Archive member included because of file (symbol)

..\..\..\..\..\framework\tcpip\src\crypto\aes_pic32mx.a(AES_CFB.o)
                              build/pic32mx_eth_sk_int_dyn/production/_ext/1164207549/snmpv3_usm.o (AESCFBEncrypt)
..\..\..\..\..\framework\tcpip\src\crypto\aes_pic32mx.a(AES_ECB_PIC32.o)
                              build/pic32mx_eth_sk_int_dyn/production/_ext/1164207549/snmpv3_usm.o (AESCreateRoundKeys)
c:/program files/microchip/xc32/v1.30-tc9/bin/../lib/gcc/pic32mx/4.5.2/../../../../pic32mx/lib\libmchp_peripheral_32MX795F512L.a(port_set_pins_digital_in_lib.o)
                              build/pic32mx_eth_sk_int_dyn/production/_ext/1951764757/system_init.o (PORTSetPinsDigitalIn)
c:/program files/microchip/xc32/v1.30-tc9/bin/../lib/gcc/pic32mx/4.5.2/../../../../pic32mx/lib\libmchp_peripheral_32MX795F512L.a(port_set_pins_digital_out_lib.o)
                              build/pic32mx_eth_sk_int_dyn/production/_ext/1951764757/system_init.o (PORTSetPinsDigitalOut)
c:/program files/microchip/xc32/v1.30-tc9/bin/../lib/gcc/pic32mx/4.5.2/../../../../pic32mx/lib\libmchp_peripheral_32MX795F512L.a(_ports_tbl_libp.o)
                              c:/program files/microchip/xc32/v1.30-tc9/bin/../lib/gcc/pic32mx/4.5.2/../../../../pic32mx/lib\libmchp_peripheral_32MX795F512L.a(port_set_pins_digital_in_lib.o) (PortRegTbl)
c:/program files/microchip/xc32/v1.30-tc9/bin/../lib/gcc/pic32mx/4.5.2\libgcc.a(_udivdi3.o)
                              build/pic32mx_eth_sk_int_dyn/production/_ext/1886247299/big_int.o (__udivdi3)
c:/program files/microchip/xc32/v1.30-tc9/bin/../lib/gcc/pic32mx/4.5.2\libgcc.a(floatunsisf.o)
                              build/pic32mx_eth_sk_int_dyn/production/_ext/52938249/sys_clk_pic32.o (__floatunsisf)
c:/program files/microchip/xc32/v1.30-tc9/bin/../lib/gcc/pic32mx/4.5.2/../../../../pic32mx/lib\libpic32.a(memcmp.o)
                              build/pic32mx_eth_sk_int_dyn/production/_ext/1697634946/drv_ethmac.o (memcmp)
c:/program files/microchip/xc32/v1.30-tc9/bin/../lib/gcc/pic32mx/4.5.2/../../../../pic32mx/lib\libpic32.a(memcpy.o)
                              build/pic32mx_eth_sk_int_dyn/production/_ext/1697634946/drv_ethmac.o (memcpy)
c:/program files/microchip/xc32/v1.30-tc9/bin/../lib/gcc/pic32mx/4.5.2/../../../../pic32mx/lib\libpic32.a(memset.o)
                              build/pic32mx_eth_sk_int_dyn/production/_ext/1697634946/drv_ethmac.o (memset)
c:/program files/microchip/xc32/v1.30-tc9/bin/../lib/gcc/pic32mx/4.5.2/../../../../pic32mx/lib\libpic32.a(strcmp.o)
                              build/pic32mx_eth_sk_int_dyn/production/_ext/1360937237/custom_http_app.o (strcmp)
c:/program files/microchip/xc32/v1.30-tc9/bin/../lib/gcc/pic32mx/4.5.2/../../../../pic32mx/lib\libpic32.a(strcpy.o)
                              build/pic32mx_eth_sk_int_dyn/production/_ext/1360937237/custom_http_app.o (strcpy)
c:/program files/microchip/xc32/v1.30-tc9/bin/../lib/gcc/pic32mx/4.5.2/../../../../pic32mx/lib\libpic32.a(strlen.o)
                              build/pic32mx_eth_sk_int_dyn/production/_ext/1886247299/helpers.o (strlen)
c:/program files/microchip/xc32/v1.30-tc9/bin/../lib/gcc/pic32mx/4.5.2/../../../../pic32mx/lib\libpic32.a(default-bootstrap-exception-handler.o)
                              c:/program files/microchip/xc32/v1.30-tc9/bin/../lib/gcc/pic32mx/4.5.2/../../../../pic32mx/lib/./proc/32MX795F512L/crt0_mips32r2.o (_bootstrap_exception_handler)
c:/program files/microchip/xc32/v1.30-tc9/bin/../lib/gcc/pic32mx/4.5.2/../../../../pic32mx/lib\libpic32.a(default-on-reset.o)
                              c:/program files/microchip/xc32/v1.30-tc9/bin/../lib/gcc/pic32mx/4.5.2/../../../../pic32mx/lib/./proc/32MX795F512L/crt0_mips32r2.o (_on_reset)
c:/program files/microchip/xc32/v1.30-tc9/bin/../lib/gcc/pic32mx/4.5.2/../../../../pic32mx/lib\libpic32.a(default-on-bootstrap.o)
                              c:/program files/microchip/xc32/v1.30-tc9/bin/../lib/gcc/pic32mx/4.5.2/../../../../pic32mx/lib/./proc/32MX795F512L/crt0_mips32r2.o (_on_bootstrap)
c:/program files/microchip/xc32/v1.30-tc9/bin/../lib/gcc/pic32mx/4.5.2/../../../../pic32mx/lib\libpic32.a(default-nmi-handler.o)
                              c:/program files/microchip/xc32/v1.30-tc9/bin/../lib/gcc/pic32mx/4.5.2/../../../../pic32mx/lib/./proc/32MX795F512L/crt0_mips32r2.o (_nmi_handler)
c:/program files/microchip/xc32/v1.30-tc9/bin/../lib/gcc/pic32mx/4.5.2/../../../../pic32mx/lib\libpic32.a(general-exception.o)
                              c:/program files/microchip/xc32/v1.30-tc9/bin/../lib/gcc/pic32mx/4.5.2/../../../../pic32mx/lib/./proc/32MX795F512L/crt0_mips32r2.o (_general_exception_context)
c:/program files/microchip/xc32/v1.30-tc9/bin/../lib/gcc/pic32mx/4.5.2/../../../../pic32mx/lib\libpic32.a(vector1.o)
                              c:/program files/microchip/xc32/v1.30-tc9/bin/../lib/gcc/pic32mx/4.5.2/../../../../pic32mx/lib/./proc/32MX795F512L\default_isr_vectors.o (__vector_dispatch_1)
c:/program files/microchip/xc32/v1.30-tc9/bin/../lib/gcc/pic32mx/4.5.2/../../../../pic32mx/lib\libpic32.a(vector2.o)
                              c:/program files/microchip/xc32/v1.30-tc9/bin/../lib/gcc/pic32mx/4.5.2/../../../../pic32mx/lib/./proc/32MX795F512L\default_isr_vectors.o (__vector_dispatch_2)
c:/program files/microchip/xc32/v1.30-tc9/bin/../lib/gcc/pic32mx/4.5.2/../../../../pic32mx/lib\libpic32.a(vector3.o)
                              c:/program files/microchip/xc32/v1.30-tc9/bin/../lib/gcc/pic32mx/4.5.2/../../../../pic32mx/lib/./proc/32MX795F512L\default_isr_vectors.o (__vector_dispatch_3)
c:/program files/microchip/xc32/v1.30-tc9/bin/../lib/gcc/pic32mx/4.5.2/../../../../pic32mx/lib\libpic32.a(vector4.o)
                              c:/program files/microchip/xc32/v1.30-tc9/bin/../lib/gcc/pic32mx/4.5.2/../../../../pic32mx/lib/./proc/32MX795F512L\default_isr_vectors.o (__vector_dispatch_4)
c:/program files/microchip/xc32/v1.30-tc9/bin/../lib/gcc/pic32mx/4.5.2/../../../../pic32mx/lib\libpic32.a(vector5.o)
                              c:/program files/microchip/xc32/v1.30-tc9/bin/../lib/gcc/pic32mx/4.5.2/../../../../pic32mx/lib/./proc/32MX795F512L\default_isr_vectors.o (__vector_dispatch_5)
c:/program files/microchip/xc32/v1.30-tc9/bin/../lib/gcc/pic32mx/4.5.2/../../../../pic32mx/lib\libpic32.a(vector6.o)
                              c:/program files/microchip/xc32/v1.30-tc9/bin/../lib/gcc/pic32mx/4.5.2/../../../../pic32mx/lib/./proc/32MX795F512L\default_isr_vectors.o (__vector_dispatch_6)
c:/program files/microchip/xc32/v1.30-tc9/bin/../lib/gcc/pic32mx/4.5.2/../../../../pic32mx/lib\libpic32.a(vector7.o)
                              c:/program files/microchip/xc32/v1.30-tc9/bin/../lib/gcc/pic32mx/4.5.2/../../../../pic32mx/lib/./proc/32MX795F512L\default_isr_vectors.o (__vector_dispatch_7)
c:/program files/microchip/xc32/v1.30-tc9/bin/../lib/gcc/pic32mx/4.5.2/../../../../pic32mx/lib\libpic32.a(vector8.o)
                              c:/program files/microchip/xc32/v1.30-tc9/bin/../lib/gcc/pic32mx/4.5.2/../../../../pic32mx/lib/./proc/32MX795F512L\default_isr_vectors.o (__vector_dispatch_8)
c:/program files/microchip/xc32/v1.30-tc9/bin/../lib/gcc/pic32mx/4.5.2/../../../../pic32mx/lib\libpic32.a(vector9.o)
                              c:/program files/microchip/xc32/v1.30-tc9/bin/../lib/gcc/pic32mx/4.5.2/../../../../pic32mx/lib/./proc/32MX795F512L\default_isr_vectors.o (__vector_dispatch_9)
c:/program files/microchip/xc32/v1.30-tc9/bin/../lib/gcc/pic32mx/4.5.2/../../../../pic32mx/lib\libpic32.a(vector10.o)
                              c:/program files/microchip/xc32/v1.30-tc9/bin/../lib/gcc/pic32mx/4.5.2/../../../../pic32mx/lib/./proc/32MX795F512L\default_isr_vectors.o (__vector_dispatch_10)
c:/program files/microchip/xc32/v1.30-tc9/bin/../lib/gcc/pic32mx/4.5.2/../../../../pic32mx/lib\libpic32.a(vector11.o)
                              c:/program files/microchip/xc32/v1.30-tc9/bin/../lib/gcc/pic32mx/4.5.2/../../../../pic32mx/lib/./proc/32MX795F512L\default_isr_vectors.o (__vector_dispatch_11)
c:/program files/microchip/xc32/v1.30-tc9/bin/../lib/gcc/pic32mx/4.5.2/../../../../pic32mx/lib\libpic32.a(vector12.o)
                              c:/program files/microchip/xc32/v1.30-tc9/bin/../lib/gcc/pic32mx/4.5.2/../../../../pic32mx/lib/./proc/32MX795F512L\default_isr_vectors.o (__vector_dispatch_12)
c:/program files/microchip/xc32/v1.30-tc9/bin/../lib/gcc/pic32mx/4.5.2/../../../../pic32mx/lib\libpic32.a(vector13.o)
                              c:/program files/microchip/xc32/v1.30-tc9/bin/../lib/gcc/pic32mx/4.5.2/../../../../pic32mx/lib/./proc/32MX795F512L\default_isr_vectors.o (__vector_dispatch_13)
c:/program files/microchip/xc32/v1.30-tc9/bin/../lib/gcc/pic32mx/4.5.2/../../../../pic32mx/lib\libpic32.a(vector14.o)
                              c:/program files/microchip/xc32/v1.30-tc9/bin/../lib/gcc/pic32mx/4.5.2/../../../../pic32mx/lib/./proc/32MX795F512L\default_isr_vectors.o (__vector_dispatch_14)
c:/program files/microchip/xc32/v1.30-tc9/bin/../lib/gcc/pic32mx/4.5.2/../../../../pic32mx/lib\libpic32.a(vector15.o)
                              c:/program files/microchip/xc32/v1.30-tc9/bin/../lib/gcc/pic32mx/4.5.2/../../../../pic32mx/lib/./proc/32MX795F512L\default_isr_vectors.o (__vector_dispatch_15)
c:/program files/microchip/xc32/v1.30-tc9/bin/../lib/gcc/pic32mx/4.5.2/../../../../pic32mx/lib\libpic32.a(vector16.o)
                              c:/program files/microchip/xc32/v1.30-tc9/bin/../lib/gcc/pic32mx/4.5.2/../../../../pic32mx/lib/./proc/32MX795F512L\default_isr_vectors.o (__vector_dispatch_16)
c:/program files/microchip/xc32/v1.30-tc9/bin/../lib/gcc/pic32mx/4.5.2/../../../../pic32mx/lib\libpic32.a(vector17.o)
                              c:/program files/microchip/xc32/v1.30-tc9/bin/../lib/gcc/pic32mx/4.5.2/../../../../pic32mx/lib/./proc/32MX795F512L\default_isr_vectors.o (__vector_dispatch_17)
c:/program files/microchip/xc32/v1.30-tc9/bin/../lib/gcc/pic32mx/4.5.2/../../../../pic32mx/lib\libpic32.a(vector18.o)
                              c:/program files/microchip/xc32/v1.30-tc9/bin/../lib/gcc/pic32mx/4.5.2/../../../../pic32mx/lib/./proc/32MX795F512L\default_isr_vectors.o (__vector_dispatch_18)
c:/program files/microchip/xc32/v1.30-tc9/bin/../lib/gcc/pic32mx/4.5.2/../../../../pic32mx/lib\libpic32.a(vector19.o)
                              c:/program files/microchip/xc32/v1.30-tc9/bin/../lib/gcc/pic32mx/4.5.2/../../../../pic32mx/lib/./proc/32MX795F512L\default_isr_vectors.o (__vector_dispatch_19)
c:/program files/microchip/xc32/v1.30-tc9/bin/../lib/gcc/pic32mx/4.5.2/../../../../pic32mx/lib\libpic32.a(vector20.o)
                              c:/program files/microchip/xc32/v1.30-tc9/bin/../lib/gcc/pic32mx/4.5.2/../../../../pic32mx/lib/./proc/32MX795F512L\default_isr_vectors.o (__vector_dispatch_20)
c:/program files/microchip/xc32/v1.30-tc9/bin/../lib/gcc/pic32mx/4.5.2/../../../../pic32mx/lib\libpic32.a(vector21.o)
                              c:/program files/microchip/xc32/v1.30-tc9/bin/../lib/gcc/pic32mx/4.5.2/../../../../pic32mx/lib/./proc/32MX795F512L\default_isr_vectors.o (__vector_dispatch_21)
c:/program files/microchip/xc32/v1.30-tc9/bin/../lib/gcc/pic32mx/4.5.2/../../../../pic32mx/lib\libpic32.a(vector22.o)
                              c:/program files/microchip/xc32/v1.30-tc9/bin/../lib/gcc/pic32mx/4.5.2/../../../../pic32mx/lib/./proc/32MX795F512L\default_isr_vectors.o (__vector_dispatch_22)
c:/program files/microchip/xc32/v1.30-tc9/bin/../lib/gcc/pic32mx/4.5.2/../../../../pic32mx/lib\libpic32.a(vector23.o)
                              c:/program files/microchip/xc32/v1.30-tc9/bin/../lib/gcc/pic32mx/4.5.2/../../../../pic32mx/lib/./proc/32MX795F512L\default_isr_vectors.o (__vector_dispatch_23)
c:/program files/microchip/xc32/v1.30-tc9/bin/../lib/gcc/pic32mx/4.5.2/../../../../pic32mx/lib\libpic32.a(vector24.o)
                              c:/program files/microchip/xc32/v1.30-tc9/bin/../lib/gcc/pic32mx/4.5.2/../../../../pic32mx/lib/./proc/32MX795F512L\default_isr_vectors.o (__vector_dispatch_24)
c:/program files/microchip/xc32/v1.30-tc9/bin/../lib/gcc/pic32mx/4.5.2/../../../../pic32mx/lib\libpic32.a(vector25.o)
                              c:/program files/microchip/xc32/v1.30-tc9/bin/../lib/gcc/pic32mx/4.5.2/../../../../pic32mx/lib/./proc/32MX795F512L\default_isr_vectors.o (__vector_dispatch_25)
c:/program files/microchip/xc32/v1.30-tc9/bin/../lib/gcc/pic32mx/4.5.2/../../../../pic32mx/lib\libpic32.a(vector26.o)
                              c:/program files/microchip/xc32/v1.30-tc9/bin/../lib/gcc/pic32mx/4.5.2/../../../../pic32mx/lib/./proc/32MX795F512L\default_isr_vectors.o (__vector_dispatch_26)
c:/program files/microchip/xc32/v1.30-tc9/bin/../lib/gcc/pic32mx/4.5.2/../../../../pic32mx/lib\libpic32.a(vector27.o)
                              c:/program files/microchip/xc32/v1.30-tc9/bin/../lib/gcc/pic32mx/4.5.2/../../../../pic32mx/lib/./proc/32MX795F512L\default_isr_vectors.o (__vector_dispatch_27)
c:/program files/microchip/xc32/v1.30-tc9/bin/../lib/gcc/pic32mx/4.5.2/../../../../pic32mx/lib\libpic32.a(vector28.o)
                              c:/program files/microchip/xc32/v1.30-tc9/bin/../lib/gcc/pic32mx/4.5.2/../../../../pic32mx/lib/./proc/32MX795F512L\default_isr_vectors.o (__vector_dispatch_28)
c:/program files/microchip/xc32/v1.30-tc9/bin/../lib/gcc/pic32mx/4.5.2/../../../../pic32mx/lib\libpic32.a(vector29.o)
                              c:/program files/microchip/xc32/v1.30-tc9/bin/../lib/gcc/pic32mx/4.5.2/../../../../pic32mx/lib/./proc/32MX795F512L\default_isr_vectors.o (__vector_dispatch_29)
c:/program files/microchip/xc32/v1.30-tc9/bin/../lib/gcc/pic32mx/4.5.2/../../../../pic32mx/lib\libpic32.a(vector30.o)
                              c:/program files/microchip/xc32/v1.30-tc9/bin/../lib/gcc/pic32mx/4.5.2/../../../../pic32mx/lib/./proc/32MX795F512L\default_isr_vectors.o (__vector_dispatch_30)
c:/program files/microchip/xc32/v1.30-tc9/bin/../lib/gcc/pic32mx/4.5.2/../../../../pic32mx/lib\libpic32.a(vector31.o)
                              c:/program files/microchip/xc32/v1.30-tc9/bin/../lib/gcc/pic32mx/4.5.2/../../../../pic32mx/lib/./proc/32MX795F512L\default_isr_vectors.o (__vector_dispatch_31)
c:/program files/microchip/xc32/v1.30-tc9/bin/../lib/gcc/pic32mx/4.5.2/../../../../pic32mx/lib\libpic32.a(vector32.o)
                              c:/program files/microchip/xc32/v1.30-tc9/bin/../lib/gcc/pic32mx/4.5.2/../../../../pic32mx/lib/./proc/32MX795F512L\default_isr_vectors.o (__vector_dispatch_32)
c:/program files/microchip/xc32/v1.30-tc9/bin/../lib/gcc/pic32mx/4.5.2/../../../../pic32mx/lib\libpic32.a(vector33.o)
                              c:/program files/microchip/xc32/v1.30-tc9/bin/../lib/gcc/pic32mx/4.5.2/../../../../pic32mx/lib/./proc/32MX795F512L\default_isr_vectors.o (__vector_dispatch_33)
c:/program files/microchip/xc32/v1.30-tc9/bin/../lib/gcc/pic32mx/4.5.2/../../../../pic32mx/lib\libpic32.a(vector34.o)
                              c:/program files/microchip/xc32/v1.30-tc9/bin/../lib/gcc/pic32mx/4.5.2/../../../../pic32mx/lib/./proc/32MX795F512L\default_isr_vectors.o (__vector_dispatch_34)
c:/program files/microchip/xc32/v1.30-tc9/bin/../lib/gcc/pic32mx/4.5.2/../../../../pic32mx/lib\libpic32.a(vector35.o)
                              c:/program files/microchip/xc32/v1.30-tc9/bin/../lib/gcc/pic32mx/4.5.2/../../../../pic32mx/lib/./proc/32MX795F512L\default_isr_vectors.o (__vector_dispatch_35)
c:/program files/microchip/xc32/v1.30-tc9/bin/../lib/gcc/pic32mx/4.5.2/../../../../pic32mx/lib\libpic32.a(vector36.o)
                              c:/program files/microchip/xc32/v1.30-tc9/bin/../lib/gcc/pic32mx/4.5.2/../../../../pic32mx/lib/./proc/32MX795F512L\default_isr_vectors.o (__vector_dispatch_36)
c:/program files/microchip/xc32/v1.30-tc9/bin/../lib/gcc/pic32mx/4.5.2/../../../../pic32mx/lib\libpic32.a(vector37.o)
                              c:/program files/microchip/xc32/v1.30-tc9/bin/../lib/gcc/pic32mx/4.5.2/../../../../pic32mx/lib/./proc/32MX795F512L\default_isr_vectors.o (__vector_dispatch_37)
c:/program files/microchip/xc32/v1.30-tc9/bin/../lib/gcc/pic32mx/4.5.2/../../../../pic32mx/lib\libpic32.a(vector38.o)
                              c:/program files/microchip/xc32/v1.30-tc9/bin/../lib/gcc/pic32mx/4.5.2/../../../../pic32mx/lib/./proc/32MX795F512L\default_isr_vectors.o (__vector_dispatch_38)
c:/program files/microchip/xc32/v1.30-tc9/bin/../lib/gcc/pic32mx/4.5.2/../../../../pic32mx/lib\libpic32.a(vector39.o)
                              c:/program files/microchip/xc32/v1.30-tc9/bin/../lib/gcc/pic32mx/4.5.2/../../../../pic32mx/lib/./proc/32MX795F512L\default_isr_vectors.o (__vector_dispatch_39)
c:/program files/microchip/xc32/v1.30-tc9/bin/../lib/gcc/pic32mx/4.5.2/../../../../pic32mx/lib\libpic32.a(vector40.o)
                              c:/program files/microchip/xc32/v1.30-tc9/bin/../lib/gcc/pic32mx/4.5.2/../../../../pic32mx/lib/./proc/32MX795F512L\default_isr_vectors.o (__vector_dispatch_40)
c:/program files/microchip/xc32/v1.30-tc9/bin/../lib/gcc/pic32mx/4.5.2/../../../../pic32mx/lib\libpic32.a(vector41.o)
                              c:/program files/microchip/xc32/v1.30-tc9/bin/../lib/gcc/pic32mx/4.5.2/../../../../pic32mx/lib/./proc/32MX795F512L\default_isr_vectors.o (__vector_dispatch_41)
c:/program files/microchip/xc32/v1.30-tc9/bin/../lib/gcc/pic32mx/4.5.2/../../../../pic32mx/lib\libpic32.a(vector42.o)
                              c:/program files/microchip/xc32/v1.30-tc9/bin/../lib/gcc/pic32mx/4.5.2/../../../../pic32mx/lib/./proc/32MX795F512L\default_isr_vectors.o (__vector_dispatch_42)
c:/program files/microchip/xc32/v1.30-tc9/bin/../lib/gcc/pic32mx/4.5.2/../../../../pic32mx/lib\libpic32.a(vector43.o)
                              c:/program files/microchip/xc32/v1.30-tc9/bin/../lib/gcc/pic32mx/4.5.2/../../../../pic32mx/lib/./proc/32MX795F512L\default_isr_vectors.o (__vector_dispatch_43)
c:/program files/microchip/xc32/v1.30-tc9/bin/../lib/gcc/pic32mx/4.5.2/../../../../pic32mx/lib\libpic32.a(vector44.o)
                              c:/program files/microchip/xc32/v1.30-tc9/bin/../lib/gcc/pic32mx/4.5.2/../../../../pic32mx/lib/./proc/32MX795F512L\default_isr_vectors.o (__vector_dispatch_44)
c:/program files/microchip/xc32/v1.30-tc9/bin/../lib/gcc/pic32mx/4.5.2/../../../../pic32mx/lib\libpic32.a(vector45.o)
                              c:/program files/microchip/xc32/v1.30-tc9/bin/../lib/gcc/pic32mx/4.5.2/../../../../pic32mx/lib/./proc/32MX795F512L\default_isr_vectors.o (__vector_dispatch_45)
c:/program files/microchip/xc32/v1.30-tc9/bin/../lib/gcc/pic32mx/4.5.2/../../../../pic32mx/lib\libpic32.a(vector46.o)
                              c:/program files/microchip/xc32/v1.30-tc9/bin/../lib/gcc/pic32mx/4.5.2/../../../../pic32mx/lib/./proc/32MX795F512L\default_isr_vectors.o (__vector_dispatch_46)
c:/program files/microchip/xc32/v1.30-tc9/bin/../lib/gcc/pic32mx/4.5.2/../../../../pic32mx/lib\libpic32.a(vector47.o)
                              c:/program files/microchip/xc32/v1.30-tc9/bin/../lib/gcc/pic32mx/4.5.2/../../../../pic32mx/lib/./proc/32MX795F512L\default_isr_vectors.o (__vector_dispatch_47)
c:/program files/microchip/xc32/v1.30-tc9/bin/../lib/gcc/pic32mx/4.5.2/../../../../pic32mx/lib\libpic32.a(vector48.o)
                              c:/program files/microchip/xc32/v1.30-tc9/bin/../lib/gcc/pic32mx/4.5.2/../../../../pic32mx/lib/./proc/32MX795F512L\default_isr_vectors.o (__vector_dispatch_48)
c:/program files/microchip/xc32/v1.30-tc9/bin/../lib/gcc/pic32mx/4.5.2/../../../../pic32mx/lib\libpic32.a(vector49.o)
                              c:/program files/microchip/xc32/v1.30-tc9/bin/../lib/gcc/pic32mx/4.5.2/../../../../pic32mx/lib/./proc/32MX795F512L\default_isr_vectors.o (__vector_dispatch_49)
c:/program files/microchip/xc32/v1.30-tc9/bin/../lib/gcc/pic32mx/4.5.2/../../../../pic32mx/lib\libpic32.a(vector50.o)
                              c:/program files/microchip/xc32/v1.30-tc9/bin/../lib/gcc/pic32mx/4.5.2/../../../../pic32mx/lib/./proc/32MX795F512L\default_isr_vectors.o (__vector_dispatch_50)
c:/program files/microchip/xc32/v1.30-tc9/bin/../lib/gcc/pic32mx/4.5.2/../../../../pic32mx/lib\libpic32.a(vector51.o)
                              c:/program files/microchip/xc32/v1.30-tc9/bin/../lib/gcc/pic32mx/4.5.2/../../../../pic32mx/lib/./proc/32MX795F512L\default_isr_vectors.o (__vector_dispatch_51)
c:/program files/microchip/xc32/v1.30-tc9/bin/../lib/gcc/pic32mx/4.5.2/../../../../pic32mx/lib\libpic32.a(vector52.o)
                              c:/program files/microchip/xc32/v1.30-tc9/bin/../lib/gcc/pic32mx/4.5.2/../../../../pic32mx/lib/./proc/32MX795F512L\default_isr_vectors.o (__vector_dispatch_52)
c:/program files/microchip/xc32/v1.30-tc9/bin/../lib/gcc/pic32mx/4.5.2/../../../../pic32mx/lib\libpic32.a(vector53.o)
                              c:/program files/microchip/xc32/v1.30-tc9/bin/../lib/gcc/pic32mx/4.5.2/../../../../pic32mx/lib/./proc/32MX795F512L\default_isr_vectors.o (__vector_dispatch_53)
c:/program files/microchip/xc32/v1.30-tc9/bin/../lib/gcc/pic32mx/4.5.2/../../../../pic32mx/lib\libpic32.a(vector54.o)
                              c:/program files/microchip/xc32/v1.30-tc9/bin/../lib/gcc/pic32mx/4.5.2/../../../../pic32mx/lib/./proc/32MX795F512L\default_isr_vectors.o (__vector_dispatch_54)
c:/program files/microchip/xc32/v1.30-tc9/bin/../lib/gcc/pic32mx/4.5.2/../../../../pic32mx/lib\libpic32.a(vector55.o)
                              c:/program files/microchip/xc32/v1.30-tc9/bin/../lib/gcc/pic32mx/4.5.2/../../../../pic32mx/lib/./proc/32MX795F512L\default_isr_vectors.o (__vector_dispatch_55)
c:/program files/microchip/xc32/v1.30-tc9/bin/../lib/gcc/pic32mx/4.5.2/../../../../pic32mx/lib\libpic32.a(vector56.o)
                              c:/program files/microchip/xc32/v1.30-tc9/bin/../lib/gcc/pic32mx/4.5.2/../../../../pic32mx/lib/./proc/32MX795F512L\default_isr_vectors.o (__vector_dispatch_56)
c:/program files/microchip/xc32/v1.30-tc9/bin/../lib/gcc/pic32mx/4.5.2/../../../../pic32mx/lib\libpic32.a(vector57.o)
                              c:/program files/microchip/xc32/v1.30-tc9/bin/../lib/gcc/pic32mx/4.5.2/../../../../pic32mx/lib/./proc/32MX795F512L\default_isr_vectors.o (__vector_dispatch_57)
c:/program files/microchip/xc32/v1.30-tc9/bin/../lib/gcc/pic32mx/4.5.2/../../../../pic32mx/lib\libpic32.a(vector58.o)
                              c:/program files/microchip/xc32/v1.30-tc9/bin/../lib/gcc/pic32mx/4.5.2/../../../../pic32mx/lib/./proc/32MX795F512L\default_isr_vectors.o (__vector_dispatch_58)
c:/program files/microchip/xc32/v1.30-tc9/bin/../lib/gcc/pic32mx/4.5.2/../../../../pic32mx/lib\libpic32.a(vector59.o)
                              c:/program files/microchip/xc32/v1.30-tc9/bin/../lib/gcc/pic32mx/4.5.2/../../../../pic32mx/lib/./proc/32MX795F512L\default_isr_vectors.o (__vector_dispatch_59)
c:/program files/microchip/xc32/v1.30-tc9/bin/../lib/gcc/pic32mx/4.5.2/../../../../pic32mx/lib\libpic32.a(vector60.o)
                              c:/program files/microchip/xc32/v1.30-tc9/bin/../lib/gcc/pic32mx/4.5.2/../../../../pic32mx/lib/./proc/32MX795F512L\default_isr_vectors.o (__vector_dispatch_60)
c:/program files/microchip/xc32/v1.30-tc9/bin/../lib/gcc/pic32mx/4.5.2/../../../../pic32mx/lib\libpic32.a(vector61.o)
                              c:/program files/microchip/xc32/v1.30-tc9/bin/../lib/gcc/pic32mx/4.5.2/../../../../pic32mx/lib/./proc/32MX795F512L\default_isr_vectors.o (__vector_dispatch_61)
c:/program files/microchip/xc32/v1.30-tc9/bin/../lib/gcc/pic32mx/4.5.2/../../../../pic32mx/lib\libpic32.a(vector62.o)
                              c:/program files/microchip/xc32/v1.30-tc9/bin/../lib/gcc/pic32mx/4.5.2/../../../../pic32mx/lib/./proc/32MX795F512L\default_isr_vectors.o (__vector_dispatch_62)
c:/program files/microchip/xc32/v1.30-tc9/bin/../lib/gcc/pic32mx/4.5.2/../../../../pic32mx/lib\libpic32.a(vector63.o)
                              c:/program files/microchip/xc32/v1.30-tc9/bin/../lib/gcc/pic32mx/4.5.2/../../../../pic32mx/lib/./proc/32MX795F512L\default_isr_vectors.o (__vector_dispatch_63)
c:/program files/microchip/xc32/v1.30-tc9/bin/../lib/gcc/pic32mx/4.5.2/../../../../pic32mx/lib\libpic32.a(defaultinterrupt.o)
                              c:/program files/microchip/xc32/v1.30-tc9/bin/../lib/gcc/pic32mx/4.5.2/../../../../pic32mx/lib\libpic32.a(vector1.o) (_DefaultInterrupt)
c:/program files/microchip/xc32/v1.30-tc9/bin/../lib/gcc/pic32mx/4.5.2/../../../../pic32mx/lib\libm.a(fp32.o)
                              build/pic32mx_eth_sk_int_dyn/production/_ext/1164207549/iperf.o (fpsub)
c:/program files/microchip/xc32/v1.30-tc9/bin/../lib/gcc/pic32mx/4.5.2/../../../../pic32mx/lib\libc.a(fassert.o)
                              build/pic32mx_eth_sk_int_dyn/production/_ext/1104573755/plib_eth_legacy.o (_fassert)
c:/program files/microchip/xc32/v1.30-tc9/bin/../lib/gcc/pic32mx/4.5.2/../../../../pic32mx/lib\libc.a(atoi.o)
                              build/pic32mx_eth_sk_int_dyn/production/_ext/1360937237/custom_snmp_app.o (atoi)
c:/program files/microchip/xc32/v1.30-tc9/bin/../lib/gcc/pic32mx/4.5.2/../../../../pic32mx/lib\libc.a(atol.o)
                              build/pic32mx_eth_sk_int_dyn/production/_ext/1360937237/custom_http_app.o (atol)
c:/program files/microchip/xc32/v1.30-tc9/bin/../lib/gcc/pic32mx/4.5.2/../../../../pic32mx/lib\libc.a(calloc.o)
                              build/pic32mx_eth_sk_int_dyn/production/_ext/1164207549/tcpip_commands.o (calloc)
c:/program files/microchip/xc32/v1.30-tc9/bin/../lib/gcc/pic32mx/4.5.2/../../../../pic32mx/lib\libc.a(ctype.o)
                              build/pic32mx_eth_sk_int_dyn/production/_ext/1164207549/tcpip_helpers.o (_ctype)
c:/program files/microchip/xc32/v1.30-tc9/bin/../lib/gcc/pic32mx/4.5.2/../../../../pic32mx/lib\libc.a(malloc.o)
                              build/pic32mx_eth_sk_int_dyn/production/_ext/1951764757/system_init_private.o (malloc)
c:/program files/microchip/xc32/v1.30-tc9/bin/../lib/gcc/pic32mx/4.5.2/../../../../pic32mx/lib\libc.a(rand.o)
                              build/pic32mx_eth_sk_int_dyn/production/_ext/1360937237/custom_http_app.o (rand)
c:/program files/microchip/xc32/v1.30-tc9/bin/../lib/gcc/pic32mx/4.5.2/../../../../pic32mx/lib\libc.a(signal.o)
                              c:/program files/microchip/xc32/v1.30-tc9/bin/../lib/gcc/pic32mx/4.5.2/../../../../pic32mx/lib\libc.a(fassert.o) (abort)
c:/program files/microchip/xc32/v1.30-tc9/bin/../lib/gcc/pic32mx/4.5.2/../../../../pic32mx/lib\libc.a(strchr.o)
                              build/pic32mx_eth_sk_int_dyn/production/_ext/1164207549/smtp.o (strchr)
c:/program files/microchip/xc32/v1.30-tc9/bin/../lib/gcc/pic32mx/4.5.2/../../../../pic32mx/lib\libc.a(strncat.o)
                              build/pic32mx_eth_sk_int_dyn/production/_ext/1886247299/sys_fs_wrapper.o (strncat)
c:/program files/microchip/xc32/v1.30-tc9/bin/../lib/gcc/pic32mx/4.5.2/../../../../pic32mx/lib\libc.a(strncmp.o)
                              build/pic32mx_eth_sk_int_dyn/production/_ext/1886247299/sys_fs_wrapper.o (strncmp)
c:/program files/microchip/xc32/v1.30-tc9/bin/../lib/gcc/pic32mx/4.5.2/../../../../pic32mx/lib\libc.a(strncpy.o)
                              build/pic32mx_eth_sk_int_dyn/production/_ext/1886247299/helpers.o (strncpy)
c:/program files/microchip/xc32/v1.30-tc9/bin/../lib/gcc/pic32mx/4.5.2/../../../../pic32mx/lib\libc.a(strstr.o)
                              build/pic32mx_eth_sk_int_dyn/production/_ext/1164207549/smtp.o (strstr)
c:/program files/microchip/xc32/v1.30-tc9/bin/../lib/gcc/pic32mx/4.5.2/../../../../pic32mx/lib\libc.a(strtok.o)
                              build/pic32mx_eth_sk_int_dyn/production/_ext/1164207549/telnet.o (strtok)
c:/program files/microchip/xc32/v1.30-tc9/bin/../lib/gcc/pic32mx/4.5.2/../../../../pic32mx/lib\libc.a(exit.o)
                              c:/program files/microchip/xc32/v1.30-tc9/bin/../lib/gcc/pic32mx/4.5.2/../../../../pic32mx/lib\libc.a(signal.o) (exit)
c:/program files/microchip/xc32/v1.30-tc9/bin/../lib/gcc/pic32mx/4.5.2/../../../../pic32mx/lib\libc.a(fprintf_cdnopsuxX.eo)
                              c:/program files/microchip/xc32/v1.30-tc9/bin/../lib/gcc/pic32mx/4.5.2/../../../../pic32mx/lib\libc.a(fassert.o) (_fprintf_cdnopsuxX)
c:/program files/microchip/xc32/v1.30-tc9/bin/../lib/gcc/pic32mx/4.5.2/../../../../pic32mx/lib\libc.a(snprintf_cdnopsuxX.eo)
                              build/pic32mx_eth_sk_int_dyn/production/_ext/1418760511/system_debug.o (_snprintf_cdnopsuxX)
c:/program files/microchip/xc32/v1.30-tc9/bin/../lib/gcc/pic32mx/4.5.2/../../../../pic32mx/lib\libc.a(sprintf_cdnopsuxX.eo)
                              build/pic32mx_eth_sk_int_dyn/production/_ext/1164207549/ftp.o (_sprintf_cdnopsuxX)
c:/program files/microchip/xc32/v1.30-tc9/bin/../lib/gcc/pic32mx/4.5.2/../../../../pic32mx/lib\libc.a(sprintf_cdnopuxX.eo)
                              build/pic32mx_eth_sk_int_dyn/production/_ext/1164207549/ftp.o (_sprintf_cdnopuxX)
c:/program files/microchip/xc32/v1.30-tc9/bin/../lib/gcc/pic32mx/4.5.2/../../../../pic32mx/lib\libc.a(vsnprintf_cdnopsuxX.eo)
                              c:/program files/microchip/xc32/v1.30-tc9/bin/../lib/gcc/pic32mx/4.5.2/../../../../pic32mx/lib\libc.a(snprintf_cdnopsuxX.eo) (_vsnprintf_cdnopsuxX)
c:/program files/microchip/xc32/v1.30-tc9/bin/../lib/gcc/pic32mx/4.5.2/../../../../pic32mx/lib\libc.a(vsnprintf.o)
                              build/pic32mx_eth_sk_int_dyn/production/_ext/1164207549/telnet.o (vsnprintf)
c:/program files/microchip/xc32/v1.30-tc9/bin/../lib/gcc/pic32mx/4.5.2/../../../../pic32mx/lib\libc.a(_iob.o)
                              c:/program files/microchip/xc32/v1.30-tc9/bin/../lib/gcc/pic32mx/4.5.2/../../../../pic32mx/lib\libc.a(fassert.o) (_iob)
c:/program files/microchip/xc32/v1.30-tc9/bin/../lib/gcc/pic32mx/4.5.2/../../../../pic32mx/lib\libc.a(stdclean_simple.o)
                              c:/program files/microchip/xc32/v1.30-tc9/bin/../lib/gcc/pic32mx/4.5.2/../../../../pic32mx/lib\libc.a(exit.o) (_cleanup)
c:/program files/microchip/xc32/v1.30-tc9/bin/../lib/gcc/pic32mx/4.5.2/../../../../pic32mx/lib\libc.a(strcspn.o)
                              c:/program files/microchip/xc32/v1.30-tc9/bin/../lib/gcc/pic32mx/4.5.2/../../../../pic32mx/lib\libc.a(strtok.o) (strcspn)
c:/program files/microchip/xc32/v1.30-tc9/bin/../lib/gcc/pic32mx/4.5.2/../../../../pic32mx/lib\libc.a(strspn.o)
                              c:/program files/microchip/xc32/v1.30-tc9/bin/../lib/gcc/pic32mx/4.5.2/../../../../pic32mx/lib\libc.a(strtok.o) (strspn)
c:/program files/microchip/xc32/v1.30-tc9/bin/../lib/gcc/pic32mx/4.5.2/../../../../pic32mx/lib\libc.a(doprnt_cdnopsuxX.eo)
                              c:/program files/microchip/xc32/v1.30-tc9/bin/../lib/gcc/pic32mx/4.5.2/../../../../pic32mx/lib\libc.a(fprintf_cdnopsuxX.eo) (_vfprintf_cdnopsuxX)
c:/program files/microchip/xc32/v1.30-tc9/bin/../lib/gcc/pic32mx/4.5.2/../../../../pic32mx/lib\libc.a(doprnt_cdnopuxX.eo)
                              c:/program files/microchip/xc32/v1.30-tc9/bin/../lib/gcc/pic32mx/4.5.2/../../../../pic32mx/lib\libc.a(sprintf_cdnopuxX.eo) (_vfprintf_cdnopuxX)
c:/program files/microchip/xc32/v1.30-tc9/bin/../lib/gcc/pic32mx/4.5.2/../../../../pic32mx/lib\libc.a(doprnt.o)
                              c:/program files/microchip/xc32/v1.30-tc9/bin/../lib/gcc/pic32mx/4.5.2/../../../../pic32mx/lib\libc.a(vsnprintf.o) (vfprintf)
c:/program files/microchip/xc32/v1.30-tc9/bin/../lib/gcc/pic32mx/4.5.2/../../../../pic32mx/lib\libc.a(_fputc_simple.o)
                              c:/program files/microchip/xc32/v1.30-tc9/bin/../lib/gcc/pic32mx/4.5.2/../../../../pic32mx/lib\libc.a(doprnt_cdnopsuxX.eo) (fputc)
c:/program files/microchip/xc32/v1.30-tc9/bin/../lib/gcc/pic32mx/4.5.2/../../../../pic32mx/lib\libc.a(powersf.o)
                              c:/program files/microchip/xc32/v1.30-tc9/bin/../lib/gcc/pic32mx/4.5.2/../../../../pic32mx/lib\libc.a(doprnt.o) (_powers_f)
c:/program files/microchip/xc32/v1.30-tc9/bin/../lib/gcc/pic32mx/4.5.2/../../../../pic32mx/lib\libc.a(_flsbuf_simple.o)
                              c:/program files/microchip/xc32/v1.30-tc9/bin/../lib/gcc/pic32mx/4.5.2/../../../../pic32mx/lib\libc.a(_fputc_simple.o) (_flsbuf)
c:/program files/microchip/xc32/v1.30-tc9/bin/../lib/gcc/pic32mx/4.5.2/../../../../pic32mx/lib\libpic32.a(sbrk.o)
                              c:/program files/microchip/xc32/v1.30-tc9/bin/../lib/gcc/pic32mx/4.5.2/../../../../pic32mx/lib\libc.a(malloc.o) (sbrk)
c:/program files/microchip/xc32/v1.30-tc9/bin/../lib/gcc/pic32mx/4.5.2/../../../../pic32mx/lib\libpic32.a(write.o)
                              c:/program files/microchip/xc32/v1.30-tc9/bin/../lib/gcc/pic32mx/4.5.2/../../../../pic32mx/lib\libc.a(_fputc_simple.o) (write)
c:/program files/microchip/xc32/v1.30-tc9/bin/../lib/gcc/pic32mx/4.5.2/../../../../pic32mx/lib\libpic32.a(errno.o)
                              c:/program files/microchip/xc32/v1.30-tc9/bin/../lib/gcc/pic32mx/4.5.2/../../../../pic32mx/lib\libpic32.a(sbrk.o) (errno)
c:/program files/microchip/xc32/v1.30-tc9/bin/../lib/gcc/pic32mx/4.5.2/../../../../pic32mx/lib\libpic32.a(_mon_putc.o)
                              c:/program files/microchip/xc32/v1.30-tc9/bin/../lib/gcc/pic32mx/4.5.2/../../../../pic32mx/lib\libpic32.a(write.o) (_mon_putc)
c:/program files/microchip/xc32/v1.30-tc9/bin/../lib/gcc/pic32mx/4.5.2/../../../../pic32mx/lib\libpic32.a(xc32_uart.o)
                              c:/program files/microchip/xc32/v1.30-tc9/bin/../lib/gcc/pic32mx/4.5.2/../../../../pic32mx/lib\libpic32.a(_mon_putc.o) (__XC_UART)
c:/program files/microchip/xc32/v1.30-tc9/bin/../lib/gcc/pic32mx/4.5.2/../../../../pic32mx/lib\libm.a(fpmod32.o)
                              c:/program files/microchip/xc32/v1.30-tc9/bin/../lib/gcc/pic32mx/4.5.2/../../../../pic32mx/lib\libc.a(doprnt.o) (frexpf)
c:/program files/microchip/xc32/v1.30-tc9/bin/../lib/gcc/pic32mx/4.5.2/../../../../pic32mx/lib\libe.a(_floatdisf.o)
                              c:/program files/microchip/xc32/v1.30-tc9/bin/../lib/gcc/pic32mx/4.5.2/../../../../pic32mx/lib\libc.a(doprnt.o) (__floatdisf)
c:/program files/microchip/xc32/v1.30-tc9/bin/../lib/gcc/pic32mx/4.5.2\libgcc.a(_floatundisf.o)
                              c:/program files/microchip/xc32/v1.30-tc9/bin/../lib/gcc/pic32mx/4.5.2/../../../../pic32mx/lib\libc.a(doprnt.o) (__floatundisf)
c:/program files/microchip/xc32/v1.30-tc9/bin/../lib/gcc/pic32mx/4.5.2\libgcc.a(_umoddi3.o)
                              c:/program files/microchip/xc32/v1.30-tc9/bin/../lib/gcc/pic32mx/4.5.2/../../../../pic32mx/lib\libc.a(doprnt_cdnopsuxX.eo) (__umoddi3)

Allocating common symbols
Common symbol       size              file

gDrvETHPHYClientObj
                    0x10              build/pic32mx_eth_sk_int_dyn/production/_ext/521481140/drv_ethphy.o
gDrvNVMMediaObject  0x401c            build/pic32mx_eth_sk_int_dyn/production/_ext/184581597/drv_nvm_media.o
gSYSFSObj           0x8               build/pic32mx_eth_sk_int_dyn/production/_ext/1750042194/sys_fs.o
_INT_PLIB_global_int_state
                    0x4               build/pic32mx_eth_sk_int_dyn/production/_ext/198928529/plib_int_pic32.o
_PhyAdd             0x4               build/pic32mx_eth_sk_int_dyn/production/_ext/521481140/drv_ethphy.o
appData             0x8               build/pic32mx_eth_sk_int_dyn/production/_ext/1360937237/app.o
appDrvObjects       0x10              build/pic32mx_eth_sk_int_dyn/production/_ext/1360937237/app.o
modeSeljunk         0x4               build/pic32mx_eth_sk_int_dyn/production/_ext/1697634946/drv_ethmac.o
lastBlock           0x40              build/pic32mx_eth_sk_int_dyn/production/_ext/1886247299/hashes.o
gSYSFSFileObj       0x1a2c            build/pic32mx_eth_sk_int_dyn/production/_ext/1750042194/sys_fs.o
netH                0x4               build/pic32mx_eth_sk_int_dyn/production/_ext/1360937237/app.o
gDrvNVMObj          0x1c              build/pic32mx_eth_sk_int_dyn/production/_ext/184581597/drv_nvm.o
gSYSFSMountPoint    0x3e8             build/pic32mx_eth_sk_int_dyn/production/_ext/1750042194/sys_fs.o
g_bfr               0x34              build/pic32mx_eth_sk_int_dyn/production/_ext/1164207549/iperf.o
gDrvNVMBufferObject
                    0xdc              build/pic32mx_eth_sk_int_dyn/production/_ext/184581597/drv_nvm.o
gDrvNVMClientObj    0x14              build/pic32mx_eth_sk_int_dyn/production/_ext/184581597/drv_nvm.o
test                0x4               build/pic32mx_eth_sk_int_dyn/production/_ext/693918571/sys_queue.o
clkObject           0x34              build/pic32mx_eth_sk_int_dyn/production/_ext/52938249/sys_clk.o
mpfsObject          0x10              build/pic32mx_eth_sk_int_dyn/production/_ext/614935175/mpfs.o
gSYSFSMediaObject   0x708             build/pic32mx_eth_sk_int_dyn/production/_ext/1750042194/sys_fs_media_manager.o
gDrvETHPHYObj       0x24              build/pic32mx_eth_sk_int_dyn/production/_ext/521481140/drv_ethphy.o
nNets               0x4               build/pic32mx_eth_sk_int_dyn/production/_ext/1360937237/app.o
errorValue          0x4               build/pic32mx_eth_sk_int_dyn/production/_ext/1750042194/sys_fs.o
gSYSFSVolumeObject  0x640             build/pic32mx_eth_sk_int_dyn/production/_ext/1750042194/sys_fs_media_manager.o
VolToPart           0x64              build/pic32mx_eth_sk_int_dyn/production/_ext/1750042194/sys_fs_media_manager.o

Microchip PIC32 Memory-Usage Report

kseg0 Program-Memory Usage
section                    address  length [bytes]      (dec)  Description
-------                 ----------  -------------------------  -----------
.rodata                 0x9d000000         0xa134       41268  Read-only const 
.text.TCPIP_SNMPv3_V3Ms 0x9d00a134         0x2804       10244   
.text.TCPIP_SNMP_Proces 0x9d00c938         0x229c        8860   
.text.vfprintf          0x9d00ebd4         0x1bb0        7088   
.text._TcpHandleSeg     0x9d010784         0x16f0        5872   
.text.TCPIP_SMTP_Client 0x9d011e74         0x1674        5748   
.text.TCPIP_HTTP_Proces 0x9d0134e8         0x163c        5692   
.text.TCPIP_DNS_ClientT 0x9d014b24         0x1180        4480   
.text.TCPIP_SNMP_Notify 0x9d015ca4         0x1098        4248   
.text.SYS_FS_MEDIA_MANA 0x9d016d3c          0xf64        3940   
.text.TCPIP_SNMPv3_Trap 0x9d017ca0          0xf60        3936   
.text.TCPIP_SNMPv3_Noti 0x9d018c00          0xec0        3776   
.text.TCPIP_HTTP_FileSe 0x9d019ac0          0xe38        3640   
.rodata                 0x9d01a8f8          0xe1c        3612  Read-only const 
.text                   0x9d01b714          0xe10        3600  App's exec code 
.text.TCPIP_SNMPv3_User 0x9d01c524          0xd8c        3468   
.text.SNMPGetVar        0x9d01d2b0          0xb9c        2972   
.text.TCPIP_DHCP_Task   0x9d01de4c          0xb90        2960   
.text.CommandIperfStart 0x9d01e9dc          0xb74        2932   
.text.HTTPPostEmail     0x9d01f550          0xb60        2912   
.dinit                  0x9d0200b0          0xb50        2896   
.text.SNMPSetVar        0x9d020c00          0xb4c        2892   
.text.TCPIP_SNMPv3_Trap 0x9d02174c          0xaf8        2808   
.text._vfprintf_cdnopsu 0x9d022244          0xad0        2768   
.text.TCPIP_SNMP_Proces 0x9d022d14          0xa84        2692   
.text._TcpSend          0x9d023798          0xa08        2568   
.text.TCPIP_FTP_CmdsExe 0x9d0241a0          0x9c4        2500   
.text.TCPIP_TCP_FifoSiz 0x9d024b64          0x974        2420   
.text.DRV_ETHMAC_PIC32M 0x9d0254d8          0x964        2404   
.rodata                 0x9d025e3c          0x928        2344  Read-only const 
.text.TCPIP_SNMP_Proces 0x9d026764          0x928        2344   
.text                   0x9d02708c          0x8ec        2284  App's exec code 
.text.TCPIP_SNMP_Proces 0x9d027978          0x888        2184   
.text.SNMPV2TrapDemo    0x9d028200          0x7bc        1980   
.text.TCPIP_SNMP_Proces 0x9d0289bc          0x7ac        1964   
.text.TCPIP_SNMP_OIDFin 0x9d029168          0x7a4        1956   
.text.StateMachineUdpRx 0x9d02990c          0x758        1880   
.text.TCPIP_TCP_Tick    0x9d02a064          0x758        1880   
.text.TCPIP_NBNS_Task   0x9d02a7bc          0x750        1872   
.text._DHCPReceive      0x9d02af0c          0x748        1864   
.text.TCPIP_FTP_FilePut 0x9d02b654          0x6e4        1764   
.text.TCPIP_SNMPv3_MsgP 0x9d02bd38          0x6bc        1724   
.text.GenericTxStart    0x9d02c3f4          0x680        1664   
.text.HTTPPostConfig    0x9d02ca74          0x67c        1660   
.text._DHCPSend         0x9d02d0f0          0x668        1640   
.text.TCPIP_SNTP_Client 0x9d02d758          0x65c        1628   
.text.CommandArp        0x9d02ddb4          0x650        1616   
.text.TCPIP_SNMPv3_Scop 0x9d02e404          0x624        1572   
.rodata                 0x9d02ea28          0x61c        1564  Read-only const 
.text.ReportBW_Jitter_L 0x9d02f044          0x614        1556   
.text.SYS_FS_FileOpen   0x9d02f658          0x5e8        1512   
.text.DRV_ETHPHY_Setup  0x9d02fc40          0x5e0        1504   
.text.TCPIP_SNMP_Proces 0x9d030220          0x5e0        1504   
.text.HTTPPrint         0x9d030800          0x5b8        1464   
.text.TCPIP_TCP_ArrayFi 0x9d030db8          0x578        1400   
.text.TCPIP_SNMP_Task   0x9d031330          0x544        1348   
.text.SHA1Calculate     0x9d031874          0x510        1296   
.text                   0x9d031d84          0x510        1296  App's exec code 
.text.SHA1HashBlock     0x9d032294          0x504        1284   
.text.TCPIP_STACK_Initi 0x9d032798          0x4fc        1276   
.text.TCPIP_ARP_Initial 0x9d032c94          0x4ec        1260   
.text.TCPIP_STACK_NetCo 0x9d033180          0x4d8        1240   
.text.TCPIP_ANNOUNCE_Se 0x9d033658          0x4c0        1216   
.text.GenericTxEnd      0x9d033b18          0x4b4        1204   
driver                  0x9d033fcc          0x488        1160   
.text.TCPIP_FTP_Server  0x9d034454          0x478        1144   
.text._TCPIP_HEAP_Free  0x9d0348cc          0x474        1140   
.text.SNMPv3Authenticat 0x9d034d40          0x468        1128   
.text                   0x9d0351a8          0x464        1124  App's exec code 
.text.DRV_ETHMAC_LibRxB 0x9d03560c          0x460        1120   
.text.TCPIP_FTP_CmdList 0x9d035a6c          0x45c        1116   
.text                   0x9d035ec8          0x448        1096  App's exec code 
.text.SNMPSendNotificat 0x9d036310          0x444        1092   
.text._Command_NetInfo  0x9d036754          0x444        1092   
.text.CommandHelp       0x9d036b98          0x430        1072   
.text.TCPIP_HTTP_FileIn 0x9d036fc8          0x42c        1068   
.rodata                 0x9d0373f4          0x84c        2124  Read-only const 
.text.TCPIP_FTP_Execute 0x9d037c40          0x418        1048   
.rodata                 0x9d038058          0x410        1040  Read-only const 
.text.DRV_ETHMAC_PIC32M 0x9d038468          0x3fc        1020   
.text._TCP_Open         0x9d038864          0x3fc        1020   
.text._Command_StackOnO 0x9d038c60          0x3e4         996   
.rodata                 0x9d039044          0x3e0         992  Read-only const 
.text                   0x9d039424          0x3dc         988  App's exec code 
.text.StateMachineTcpRx 0x9d039800          0x3cc         972   
.text.MPFS_Open         0x9d039bcc          0x3c4         964   
.text.CommandDhcpOption 0x9d039f90          0x3c4         964   
.text.TCPIP_ARP_Task    0x9d03a354          0x3ac         940   
.text.SYS_FS_Mount      0x9d03a700          0x3a8         936   
.text.StateMachineUdpRx 0x9d03aaa8          0x3a8         936   
.text._Command_NetworkO 0x9d03ae50          0x394         916   
.text.TCPIP_Helper_Base 0x9d03b1e4          0x394         916   
.text.TCPIP_STACK_Bring 0x9d03b578          0x380         896   
.text.TCPIP_IPV4_Select 0x9d03b8f8          0x37c         892   
.text._TcpFindMatchingS 0x9d03bc74          0x368         872   
.text._SYS_COMMAND_TASK 0x9d03bfdc          0x358         856   
.text._Command_AddressS 0x9d03c334          0x354         852   
.text._UDPv4Flush       0x9d03c688          0x354         852   
.text.SNMPv3Authenticat 0x9d03c9dc          0x344         836   
.text.HTTPPostMD5       0x9d03cd20          0x340         832   
.text._EthRxAckBuffer   0x9d03d060          0x334         820   
.text.MPFS_Stat         0x9d03d394          0x330         816   
.text._EthAppendBusyLis 0x9d03d6c4          0x328         808   
.text.ETH_StationAddres 0x9d03d9ec          0x328         808   
.text.TCPIP_HTTP_Initia 0x9d03dd14          0x31c         796   
.text.TCPIP_Helper_Stri 0x9d03e030          0x31c         796   
.text.SNMPv3UsmAesEncry 0x9d03e34c          0x314         788   
.text.TCPIP_STACK_Task  0x9d03e660          0x314         788   
.text._Command_IPAddres 0x9d03e974          0x310         784   
.text.DRV_ETHPHY_Negoti 0x9d03ec84          0x308         776   
.text.SNMPv3InitializeU 0x9d03ef8c          0x308         776   
.text.DRV_ETHMAC_LibRxG 0x9d03f294          0x300         768   
.text.MD5Calculate      0x9d03f594          0x300         768   
.text.SNMPv3USMAuthPriv 0x9d03f894          0x2f0         752   
.text.TCPIP_TELNET_Task 0x9d03fb84          0x2f0         752   
.text.TCPIP_SNMP_NextLe 0x9d03fe74          0x2ec         748   
.rodata                 0x9d040160          0x2e0         736  Read-only const 
.text._UDPOpen          0x9d040440          0x2e0         736   
.text.SYS_FS_FileStat   0x9d040720          0x2dc         732   
.text.StateMachineUDPTx 0x9d0409fc          0x2dc         732   
.text.GenericTxHeaderPr 0x9d040cd8          0x2d8         728   
.text.SNMPIdRecrdValida 0x9d040fb0          0x2d4         724   
.text.StateMachineRxSta 0x9d041284          0x2d0         720   
.text.ProcessEscSequenc 0x9d041554          0x2c8         712   
.text._EthAckPacket     0x9d04181c          0x2c4         708   
.text._HTTP_ReadTo      0x9d041ae0          0x2c4         708   
.text.TCPIP_SNMP_MIBRec 0x9d041da4          0x2c4         708   
.text.MD5HashBlock      0x9d042068          0x2bc         700   
.text.TCPIP_Helper_Base 0x9d042324          0x2b8         696   
.text.ParseCmdBuffer    0x9d0425dc          0x2b0         688   
.text.TCPIP_TCP_ArrayPu 0x9d04288c          0x2ac         684   
.text.DRV_NVM_MEDIA_Sec 0x9d042b38          0x2a0         672   
.text.scale             0x9d042dd8          0x2a0         672   
.text.StateMachineTCPTx 0x9d043078          0x298         664   
.text.TCPIP_IPV4_Proces 0x9d043310          0x298         664   
.text._Command_HeapInfo 0x9d0435a8          0x290         656   
.text.TCPIP_ARP_EntryRe 0x9d043838          0x28c         652   
.rodata                 0x9d043ac4          0x28c         652  Read-only const 
.text.malloc            0x9d043d50          0x288         648   
.text.DRV_NVM_Write     0x9d043fd8          0x280         640   
.text.TCPIP_UDP_Process 0x9d044258          0x278         632   
.text.DRV_NVM_Erase     0x9d0444d0          0x274         628   
.text.TCPIP_IPV4_Packet 0x9d044744          0x268         616   
.text._LoadDefaultConfi 0x9d0449ac          0x268         616   
.text.DRV_ETHMAC_LibTxS 0x9d044c14          0x264         612   
.text.MPFSGetArray      0x9d044e78          0x260         608   
.text._DHCPStartOperati 0x9d0450d8          0x260         608   
.text.TCPIP_TCP_ArrayGe 0x9d045338          0x260         608   
.text._UDPv4PAllocateSk 0x9d045598          0x260         608   
.text.SYS_GENERATE_RAND 0x9d0457f8          0x25c         604   
.text.DRV_ETHMAC_LibDes 0x9d045a54          0x258         600   
.text.SYS_CLK_SystemClo 0x9d045cac          0x258         600   
.text.SYS_FS_FileSeek   0x9d045f04          0x258         600   
.text.SYS_CLK_Reference 0x9d04615c          0x254         596   
.text._UDPFindMatchingS 0x9d0463b0          0x254         596   
.text.TCPIP_ARP_Process 0x9d046604          0x250         592   
.text.TCPIP_SNMPv3_DynA 0x9d046854          0x250         592   
.text.HTTPPostSNMPCommu 0x9d046aa4          0x24c         588   
.text                   0x9d046cf0          0x248         584  App's exec code 
.text.TCPIP_UDP_Initial 0x9d046f38          0x248         584   
.text.SYS_FS_MEDIA_MANA 0x9d047180          0x240         576   
.text.DRV_ETHPHY_Negoti 0x9d0473c0          0x23c         572   
.text.HTTPExecuteGet    0x9d0475fc          0x23c         572   
.text.TCPIP_DHCP_Initia 0x9d047838          0x23c         572   
.text.TCPIP_IPV4_PktMac 0x9d047a74          0x23c         572   
.text.DRV_ETHMAC_PIC32M 0x9d047cb0          0x238         568   
.text.TCPIP_FTP_ServerI 0x9d047ee8          0x234         564   
.text.SNMPv3ComputeHMAC 0x9d04811c          0x234         564   
.text.SYS_USERIO_ReadIO 0x9d048350          0x234         564   
.text.StateMachineTxArp 0x9d048584          0x230         560   
.text.TCPIP_UDP_ArrayGe 0x9d0487b4          0x230         560   
.text._TcpSocketSetIdle 0x9d0489e4          0x22c         556   
.text._GetMaxSegSizeOpt 0x9d048c10          0x22c         556   
.text.TCPIP_TCP_Process 0x9d048e3c          0x228         552   
.text.SYS_FS_MEDIA_MANA 0x9d049064          0x220         544   
.text.__floatdisf       0x9d049284          0x220         544   
.text.SYS_CLK_HardwareR 0x9d0494a4          0x21c         540   
.text.SNMPIsValidSetLen 0x9d0496c0          0x21c         540   
.text.MPFSGet           0x9d0498dc          0x218         536   
.text.SYS_Initialize    0x9d049af4          0x214         532   
.text._HTTP_HeaderParse 0x9d049d08          0x214         532   
.text.TCPIP_ARP_EntryQu 0x9d049f1c          0x210         528   
.text._SNMPv3_PswdToLoc 0x9d04a12c          0x20c         524   
.text._SNMPv3_PswdToLoc 0x9d04a338          0x20c         524   
.text._TCPv4Flush       0x9d04a544          0x208         520   
.text._TcpDisconnect    0x9d04a74c          0x204         516   
.text.DRV_ETHMAC_LibIni 0x9d04a950          0x200         512   
.text._ICMPProcessEchoR 0x9d04ab50          0x200         512   
.text._PhyDetectReset   0x9d04ad50          0x1fc         508   
.text.ascii_to_u32s     0x9d04af4c          0x1fc         508   
.text.DRV_ETHMAC_PIC32M 0x9d04b148          0x1f8         504   
.text.TCPIP_FTP_FileGet 0x9d04b340          0x1f8         504   
.text.TCPIP_ANNOUNCE_Ta 0x9d04b538          0x1f8         504   
.text.SYS_USERIO_SetLED 0x9d04b730          0x1f8         504   
.text.APP_Tasks         0x9d04b928          0x1f4         500   
.text.TCPIP_IPERF_Task  0x9d04bb1c          0x1f0         496   
.text._SNMPv3_Construct 0x9d04bd0c          0x1ec         492   
.text.CommandIperfSize  0x9d04bef8          0x1e8         488   
.text.SNMPv3ValidateSec 0x9d04c0e0          0x1e8         488   
.text.TCPIP_TCP_Bind    0x9d04c2c8          0x1e8         488   
.text.TCPIP_STACK_NetUp 0x9d04c4b0          0x1e8         488   
.text._ARPSendIfPkt     0x9d04c698          0x1e4         484   
.text.TCPIP_UDP_Options 0x9d04c87c          0x1e0         480   
.text._ARPProbeAddress  0x9d04ca5c          0x1dc         476   
.text.TCPIP_HTTP_URLDec 0x9d04cc38          0x1dc         476   
.text.TCPIP_SNMP_StackD 0x9d04ce14          0x1dc         476   
.text._Telnet_LogonChec 0x9d04cff0          0x1dc         476   
.text.StringToArgs      0x9d04d1cc          0x1dc         476   
.text.SNMPValidateCommu 0x9d04d3a8          0x1d4         468   
.text.TCPIP_FTP_Quit    0x9d04d57c          0x1d4         468   
.text.TCPIP_FTP_CmdStri 0x9d04d750          0x1d4         468   
.text._HTTP_HeaderParse 0x9d04d924          0x1d4         468   
.text.TCPIP_TCP_Initial 0x9d04daf8          0x1d4         468   
.text._Command_MACAddre 0x9d04dccc          0x1d0         464   
.text._SYS_COMMAND_ADDG 0x9d04de9c          0x1d0         464   
.text.DRV_ETHMAC_LibMAC 0x9d04e06c          0x1c8         456   
.text.SNMPGetNextIndex  0x9d04e234          0x1c8         456   
.text.TCPIP_DNS_UsageBe 0x9d04e3fc          0x1c8         456   
.text.SYS_USERIO_Initia 0x9d04e5c4          0x1c8         456   
.text.TCPIP_ARP_CacheEn 0x9d04e78c          0x1c4         452   
.text._TCPIP_HEAP_Mallo 0x9d04e950          0x1c4         452   
.text._SNMPv3_CheckIfVa 0x9d04eb14          0x1c0         448   
.text.FindEmailAddress  0x9d04ecd4          0x1bc         444   
.text._Telnet_UserCheck 0x9d04ee90          0x1bc         444   
.text.TCPIP_UDP_Deiniti 0x9d04f04c          0x1bc         444   
.text.HTTPPrint_uploade 0x9d04f208          0x1b8         440   
.text._SNMPv3_EngnIDFor 0x9d04f3c0          0x1b8         440   
.text._SNMPv3_CheckIfv3 0x9d04f578          0x1b8         440   
.text.TCPIP_TCP_Options 0x9d04f730          0x1b8         440   
.text._SystemTickIntHan 0x9d04f8e8          0x1b4         436   
.text._EthTxSchedBuffer 0x9d04fa9c          0x1b4         436   
.rodata                 0x9d04fc50          0x1b0         432  Read-only const 
.text.SYS_FS_FileOpen_W 0x9d04fe00          0x1b0         432   
.text.SYS_FS_FileStat_W 0x9d04ffb0          0x1b0         432   
.rodata                 0x9d050160          0x1ac         428  Read-only const 
.text.TCPIP_SNMP_Notify 0x9d05030c          0x1ac         428   
.text.TCPIP_TCP_ArrayPe 0x9d0504b8          0x1ac         428   
.text.TCPIP_Helper_Pack 0x9d050664          0x1ac         428   
.text.TCPIP_SMTP_Put    0x9d050810          0x1a8         424   
.text.TCPIP_SNMPv3_User 0x9d0509b8          0x1a8         424   
.text.TCPIP_ARP_IsResol 0x9d050b60          0x1a4         420   
.text.fround            0x9d050d04          0x1a4         420   
.text.SNMPv3AESDecryptR 0x9d050ea8          0x1a0         416   
.text._Command_GatewayA 0x9d051048          0x1a0         416   
.text._Command_PrimaryD 0x9d0511e8          0x1a0         416   
.text.DisplayNodeMsg    0x9d051388          0x1a0         416   
.text                   0x9d051528          0x1a0         416  App's exec code 
.text.StateMachineTCPTx 0x9d0516c8          0x19c         412   
.text.SNMPv3AESEncryptR 0x9d051864          0x19c         412   
.text.MPFS_Mount        0x9d051a00          0x198         408   
.text.TCPIP_PKT_DataSeg 0x9d051b98          0x198         408   
.text.DRV_NVM_Read      0x9d051d30          0x194         404   
.text.TCPIP_NBNS_NameGe 0x9d051ec4          0x194         404   
.text.TCPIP_HEAP_Create 0x9d052058          0x194         404   
.text.TCPIP_PKT_PacketA 0x9d0521ec          0x194         404   
.text.TCPIP_UDP_Bind    0x9d052380          0x194         404   
.text._sbrk_init        0x9d052514          0x194         404   
.text.TCPIP_ICMP_Proces 0x9d0526a8          0x190         400   
.text.TCPIP_SNMP_OIDStr 0x9d052838          0x190         400   
.text.TCPIP_STACK_Deini 0x9d0529c8          0x190         400   
.text._SYS_CMDIO_DELETE 0x9d052b58          0x190         400   
.text.StateMachineRxDon 0x9d052ce8          0x18c         396   
.text.TCPIP_IPV4_ArpHan 0x9d052e74          0x18c         396   
.text.TCPIP_Helper_Stri 0x9d053000          0x18c         396   
.text.DRV_ETHMAC_PIC32M 0x9d05318c          0x180         384   
.text._OAHashFindBkt    0x9d05330c          0x180         384   
.text.TCPIP_SNMP_Proces 0x9d05348c          0x180         384   
.text.TCPIP_IPERF_Initi 0x9d05360c          0x17c         380   
.text.TCPIP_SNMP_Generi 0x9d053788          0x178         376   
.text.SNMPGetExactIndex 0x9d053900          0x170         368   
.text.TCPIP_HTTP_Deinit 0x9d053a70          0x170         368   
.text.TCPIP_HTTP_Server 0x9d053be0          0x170         368   
.text.SYS_FS_MEDIA_MANA 0x9d053d50          0x16c         364   
.text.stricmppgm2ram    0x9d053ebc          0x16c         364   
.text._ARPDeleteResourc 0x9d054028          0x16c         364   
.text.TCPIP_OAHASH_Entr 0x9d054194          0x16c         364   
.text.DRV_NVM_MEDIA_Ini 0x9d054300          0x168         360   
.text._SNMPv3_CheckIfv3 0x9d054468          0x168         360   
.text._TCPIsPutReady    0x9d0545d0          0x168         360   
.text._TcpCloseSocket   0x9d054738          0x168         360   
.text                   0x9d0548a0          0x2d0         720  App's exec code 
.text.TCPIP_ARP_EntryGe 0x9d054b70          0x160         352   
.text.DNSPutString      0x9d054cd0          0x160         352   
.text._SNMPv3_CheckIfVa 0x9d054e30          0x160         352   
.text.TCPIP_STACK_NetDo 0x9d054f90          0x160         352   
.text.SYS_TICK_TimerDel 0x9d0550f0          0x15c         348   
.text.TCPIP_SNMP_Defaul 0x9d05524c          0x15c         348   
.text.TCPIP_TCP_ServerO 0x9d0553a8          0x15c         348   
.text.fputc             0x9d055504          0x15c         348   
.text.HTTPPrint_config_ 0x9d055660          0x158         344   
.text.SNMPv3GetSecurity 0x9d0557b8          0x158         344   
.text._Command_BIOSName 0x9d055910          0x154         340   
.text.CommandIperfNetIf 0x9d055a64          0x150         336   
.text._Command_DefaultI 0x9d055bb4          0x150         336   
.text.TCPIP_STACK_IPAdd 0x9d055d04          0x150         336   
.rodata                 0x9d055e54          0x150         336  Read-only const 
.text.USART_INIT        0x9d055fa4          0x14c         332   
.text.TCPIP_SNMPv3_Cmpr 0x9d0560f0          0x14c         332   
.text.TCPIP_Helper_Pack 0x9d05623c          0x14c         332   
.text.TCPIP_STACK_Stack 0x9d056388          0x14c         332   
.text._TCPIPStackProces 0x9d0564d4          0x14c         332   
.text.DRV_ETHMAC_PIC32M 0x9d056620          0x144         324   
.text.TCPIP_OAHASH_Entr 0x9d056764          0x144         324   
.text.SNMPv3USMOutMsgPr 0x9d0568a8          0x144         324   
.text._UDPSetNewRxPacke 0x9d0569ec          0x144         324   
.rodata                 0x9d056b30          0x140         320  Read-only const 
.text._ARPUpdateEntry   0x9d056c70          0x140         320   
.text.TCPIP_SNMP_Commun 0x9d056db0          0x140         320   
.text.SYS_CLK_Periphera 0x9d056ef0          0x138         312   
.text.TCPIP_ARP_EntryRe 0x9d057028          0x138         312   
.text.TCPIP_SNMP_VarDat 0x9d057160          0x138         312   
.text.TCPIP_SNMP_OIDIsV 0x9d057298          0x138         312   
.text._UDPv4TxAckFnc    0x9d0573d0          0x138         312   
.text._general_exceptio 0x9d057508          0x138         312   
.text.TCPIP_SNMP_Length 0x9d057640          0x134         308   
.text.DRV_ETHPHY_SMIClo 0x9d057774          0x130         304   
.text.uitoa             0x9d0578a4          0x130         304   
.text.HTTPExecutePost   0x9d0579d4          0x130         304   
.text.TCPIP_DHCP_Connec 0x9d057b04          0x130         304   
.rodata                 0x9d057c34          0x130         304  Read-only const 
.text.TCPIP_ARP_Resolve 0x9d057d64          0x12c         300   
.text._flsbuf           0x9d057e90          0x12c         300   
.text._DRV_NVM_WriteBuf 0x9d057fbc          0x128         296   
.text.SYS_CLK_ClosestFa 0x9d0580e4          0x128         296   
.text.TCPIP_IPV4_Packet 0x9d05820c          0x128         296   
.text.TCPIP_UDP_BcastIP 0x9d058334          0x128         296   
.text.TCPIP_SNMP_Initia 0x9d05845c          0x124         292   
.text._TCPSendWinIncUpd 0x9d058580          0x124         292   
.text.SYS_FS_FileClose  0x9d0586a4          0x120         288   
.text.HTTPPrint_reboot  0x9d0587c4          0x120         288   
.text                   0x9d0588e4          0x120         288  App's exec code 
.text.SHA1AddData       0x9d058a04          0x11c         284   
.text.TCPIP_HTTP_WebPag 0x9d058b20          0x11c         284   
.text.SNMPv3ValidateSnm 0x9d058c3c          0x11c         284   
.text.TCPIP_STACK_Bring 0x9d058d58          0x11c         284   
.text.TCPIP_STACK_Addre 0x9d058e74          0x11c         284   
.text.UDPOpenServerSkt  0x9d058f90          0x11c         284   
.text.DRV_ETHPHY_Reset  0x9d0590ac          0x118         280   
.text.MPFS_Seek         0x9d0591c4          0x118         280   
.text.SYS_FS_FileNameGe 0x9d0592dc          0x114         276   
.text.TCPIP_ANNOUNCE_In 0x9d0593f0          0x114         276   
.text.TCPIP_UDP_ArrayPu 0x9d059504          0x114         276   
.text.DRV_ETHPHY_Initia 0x9d059618          0x110         272   
.text.SYS_FS_FileRead   0x9d059728          0x110         272   
.text.SYS_FS_FileWrite  0x9d059838          0x110         272   
.text.MD5AddData        0x9d059948          0x110         272   
.text.HTTPPrint_ledSele 0x9d059a58          0x110         272   
.text.TCPIP_SNMP_OIDStr 0x9d059b68          0x110         272   
.text.TCPIP_Commands_In 0x9d059c78          0x110         272   
.text._SYS_CMDIO_ADD    0x9d059d88          0x110         272   
.text.ETH_ReceiveBuffer 0x9d059e98          0x10c         268   
.text._DHCPPacketFilter 0x9d059fa4          0x10c         268   
.text._SNMPv3_CheckIfVa 0x9d05a0b0          0x10c         268   
.text._SNMPv3_ComputeHm 0x9d05a1bc          0x10c         268   
.text._TcpSwapHeader    0x9d05a2c8          0x10c         268   
.text._TCPIPStackIpAddF 0x9d05a3d4          0x10c         268   
.text.TCPIP_STACK_NetCo 0x9d05a4e0          0x10c         268   
.text.DRV_ETHMAC_LibClo 0x9d05a5ec          0x108         264   
.text._Tcpv4LinkDataSeg 0x9d05a6f4          0x108         264   
.text.ETH_HashTableSet_ 0x9d05a7fc          0x104         260   
.text._DHCPClose        0x9d05a900          0x104         260   
.text.ResetIperfCounter 0x9d05aa04          0x104         260   
.text._SNMPv3_CheckIfVa 0x9d05ab08          0x104         260   
.text._SNMPv3_ComputeHm 0x9d05ac0c          0x104         260   
.text._Telnet_MessageLi 0x9d05ad10          0x104         260   
.text.TCPIP_UDP_Destina 0x9d05ae14          0x104         260   
.rodata                 0x9d05af18          0x104         260  Read-only const 
.text.hexatob           0x9d05b01c          0x100         256   
.text.StateMachineUdpTx 0x9d05b11c          0x100         256   
.text.OSC_FRCDivisorSel 0x9d05b21c           0xfc         252   
.text.OSC_SysClockSelec 0x9d05b318           0xfc         252   
.text._LinkReconfigure  0x9d05b414           0xf8         248   
.text._ARPAddCompleteEn 0x9d05b50c           0xf8         248   
.text._DHCPEnable       0x9d05b604           0xf8         248   
.text.SNMPv3UsmOutMsgAu 0x9d05b6fc           0xf8         248   
.text.TCPIP_Helper_Sing 0x9d05b7f4           0xf8         248   
.text.TCPIP_PKT_PacketF 0x9d05b8ec           0xf8         248   
.text.OSC_OnWaitActionS 0x9d05b9e4           0xf4         244   
.text.OSC_UsbClockSourc 0x9d05bad8           0xf4         244   
.text.HTTPPrint_btn     0x9d05bbcc           0xf4         244   
.text.TcpTxFillSegment  0x9d05bcc0           0xf4         244   
.text.CommandIperfStop  0x9d05bdb4           0xf4         244   
.text.TCPIP_Helper_MACA 0x9d05bea8           0xf4         244   
.text.SYS_USERIO_Device 0x9d05bf9c           0xf4         244   
.text.TCPIP_FTP_DeInit  0x9d05c090           0xf0         240   
.text.UdpTxFillDatagram 0x9d05c180           0xf0         240   
.text.ProcessTCPIPMacRx 0x9d05c270           0xf0         240   
.text._NetConfigStringT 0x9d05c360           0xf0         240   
.text.TCPIP_UDP_TxOffse 0x9d05c450           0xf0         240   
.text.strtok            0x9d05c540           0xf0         240   
.text.SYS_TICK_Initiali 0x9d05c630           0xec         236   
.text._MacTxPendingPack 0x9d05c71c           0xec         236   
.text._EthTxSchedList   0x9d05c808           0xec         236   
.text.PLIB_ETH_MACSetAd 0x9d05c8f4           0xec         236   
.text._LoadFATRecord    0x9d05c9e0           0xec         236   
.text.HTTPPrint_led     0x9d05cacc           0xec         236   
.text.TCPIP_ARP_HashEnt 0x9d05cbb8           0xec         236   
.text.TCPIP_DHCP_Disabl 0x9d05cca4           0xec         236   
.text.TCPIP_DNS_IsResol 0x9d05cd90           0xec         236   
.text.TCPIP_NBNS_NamePu 0x9d05ce7c           0xec         236   
.text.TCPIP_TCP_PutIsRe 0x9d05cf68           0xec         236   
.text.TCPIP_Helper_IPAd 0x9d05d054           0xec         236   
.text._TCPIP_ProcessTic 0x9d05d140           0xec         236   
.text.TCPIP_STACK_NetBi 0x9d05d22c           0xec         236   
.rodata                 0x9d05d318           0xe8         232  Read-only const 
.text._ARPSetEntry      0x9d05d400           0xe8         232   
.text.TCPIP_HTTP_PostVa 0x9d05d4e8           0xe8         232   
.text.TCPIP_IPV4_ListPu 0x9d05d5d0           0xe8         232   
.text.TCPIP_PKT_PacketM 0x9d05d6b8           0xe8         232   
.rodata                 0x9d05d7a0           0xe8         232  Read-only const 
.text.SYS_FS_MEDIA_MANA 0x9d05d888           0xe4         228   
.text.TCPIP_SNMP_Client 0x9d05d96c           0xe4         228   
.text.TCPIP_TCP_Deiniti 0x9d05da50           0xe4         228   
.text.TCPIP_STACK_NetAd 0x9d05db34           0xe4         228   
.text._TCPIPStackAsyncH 0x9d05dc18           0xe4         228   
.text.TCPIP_UDP_Flush   0x9d05dcfc           0xe4         228   
.text._MACDeinit        0x9d05dde0           0xe0         224   
.text._MacRxPacketAck   0x9d05dec0           0xe0         224   
.text.TCPIP_IPV4_DeInit 0x9d05dfa0           0xe0         224   
.text.TCPIP_SNMP_Deinit 0x9d05e080           0xe0         224   
.text._UDPFreeTxResourc 0x9d05e160           0xe0         224   
.text.TCPIP_UDP_SocketN 0x9d05e240           0xe0         224   
.text.SYS_TICK_TimerCre 0x9d05e320           0xdc         220   
.text.DRV_EXTPHY_MDIXCo 0x9d05e3fc           0xdc         220   
.text.DRV_NVM_MEDIA_Sec 0x9d05e4d8           0xdc         220   
.text.SYS_FS_FileTell   0x9d05e5b4           0xdc         220   
.text.SYS_FS_FileSize   0x9d05e690           0xdc         220   
.text._HTTP_HeaderParse 0x9d05e76c           0xdc         220   
.text._TCP_EphemeralPor 0x9d05e848           0xdc         220   
.text.TCPIP_STACK_NetAd 0x9d05e924           0xdc         220   
.text._UDPAllocateEphem 0x9d05ea00           0xdc         220   
.text._SYS_ERROR_PRINT  0x9d05eadc           0xdc         220   
.text.OSCSetPBDIV       0x9d05ebb8           0xd8         216   
.text.DRV_ETHMAC_PIC32M 0x9d05ec90           0xd8         216   
.text.TCPIP_ARP_Deiniti 0x9d05ed68           0xd8         216   
.text.StateMachineTcpLi 0x9d05ee40           0xd8         216   
.text.TCPIP_SNMP_ReadBy 0x9d05ef18           0xd8         216   
.text._SNMPv3_FindOIDsF 0x9d05eff0           0xd8         216   
.text._TcpClientSocketC 0x9d05f0c8           0xd8         216   
.text._TcpCleanup       0x9d05f1a0           0xd8         216   
.text.TCPIP_PKT_SocketA 0x9d05f278           0xd8         216   
.text.DRV_ETHPHY_SMIWri 0x9d05f350           0xd4         212   
.text.TCPIP_DNS_ClientI 0x9d05f424           0xd4         212   
.text.GenericTxDone     0x9d05f4f8           0xd4         212   
.text._TcpAbort         0x9d05f5cc           0xd4         212   
.text.TCPIP_TCP_Close   0x9d05f6a0           0xd4         212   
.text.TCPIP_HEAP_Delete 0x9d05f774           0xd4         212   
.text._SYS_RANDOM_INIT  0x9d05f848           0xd4         212   
.text                   0x9d05f91c           0xd4         212  App's exec code 
.text.SYS_CLK_UsbClockS 0x9d05f9f0           0xd0         208   
.text.fnv_32_hash       0x9d05fac0           0xd0         208   
.text.TCPIP_HTTP_ArgGet 0x9d05fb90           0xd0         208   
.text.TCPIP_SNMP_PDUIsV 0x9d05fc60           0xd0         208   
.text.TCPIP_SNMP_OIDsCo 0x9d05fd30           0xd0         208   
.text._TcpSocketSetSour 0x9d05fe00           0xd0         208   
.text._TcpAllocateTxPac 0x9d05fed0           0xd0         208   
.text.TCPIP_STACK_IsBca 0x9d05ffa0           0xd0         208   
.text.general_exception 0x9d060070           0xd0         208   
.rodata                 0x9d060140           0xd0         208  Read-only const 
.text.DRV_ETHMAC_LibDes 0x9d060210           0xcc         204   
.text._EnetPoolFreeDcpt 0x9d0602dc           0xcc         204   
.text.TCPIP_TCP_Destina 0x9d0603a8           0xcc         204   
.text.TCPIP_STACK_NetAd 0x9d060474           0xcc         204   
.text.SetPic32MXIoPins  0x9d060540           0xc8         200   
.text.HTTPPrintIP       0x9d060608           0xc8         200   
.text.DNSRetry          0x9d0606d0           0xc8         200   
.text.DNSDiscardName    0x9d060798           0xc8         200   
.text.TCPIP_Helper_Form 0x9d060860           0xc8         200   
.text._InitNetConfig    0x9d060928           0xc8         200   
.text.TCPIP_PKT_Initial 0x9d0609f0           0xc8         200   
.text._Telnet_CommandsS 0x9d060ab8           0xc8         200   
.text.INT_VectorPriorit 0x9d060b80           0xc4         196   
.text.DRV_ETHPHY_SMIRea 0x9d060c44           0xc4         196   
.text.SYS_CLK_FRCCloses 0x9d060d08           0xc4         196   
.text.SYS_CLK_Periphera 0x9d060dcc           0xc4         196   
.text.TCPIP_DHCP_IsEnab 0x9d060e90           0xc4         196   
.text.TCPIP_TCP_SocketI 0x9d060f54           0xc4         196   
.text._TCPIP_HEAP_Callo 0x9d061018           0xc4         196   
.text.TCPIP_STACK_NetAd 0x9d0610dc           0xc4         196   
.text._UDPResetRxPacket 0x9d0611a0           0xc4         196   
.text.TCPIP_UDP_SocketI 0x9d061264           0xc4         196   
.text.CmdAddHead        0x9d061328           0xc4         196   
.text._sbrk             0x9d0613ec           0xc4         196   
.text.TCPIP_FTP_Verify  0x9d0614b0           0xc0         192   
.text.TCPIP_SMTP_UsageE 0x9d061570           0xc0         192   
.text.TCPIP_SNMP_SNMPSt 0x9d061630           0xc0         192   
.text.TCPIP_STACK_NetMa 0x9d0616f0           0xc0         192   
.text.TCPIP_STACK_NetAd 0x9d0617b0           0xc0         192   
.text.TCPIP_STACK_NetIs 0x9d061870           0xc0         192   
.text.INT_VectorSubPrio 0x9d061930           0xbc         188   
.text.APP_Initialize    0x9d0619ec           0xbc         188   
.text.DRV_EXTPHY_MIICon 0x9d061aa8           0xbc         188   
.text._ARPRemoveEntry   0x9d061b64           0xbc         188   
.text.TCPIP_OAHASH_Entr 0x9d061c20           0xbc         188   
.text.TCPIP_Helper_Stri 0x9d061cdc           0xbc         188   
.text.TCPIP_STACK_NetAd 0x9d061d98           0xbc         188   
.text._UDPv4IsTxPutRead 0x9d061e54           0xbc         188   
.text._SYS_COMMAND_INIT 0x9d061f10           0xbc         188   
.text.ETH_BackToBackIPG 0x9d061fcc           0xb8         184   
.text.ETH_NonBackToBack 0x9d062084           0xb8         184   
.text.ETH_NonBackToBack 0x9d06213c           0xb8         184   
.text.ETH_CollisionWind 0x9d0621f4           0xb8         184   
.text.ETH_ReTxMaxSet_De 0x9d0622ac           0xb8         184   
.text.ETH_MaxFrameLengt 0x9d062364           0xb8         184   
.text.ETH_PHYAddressSet 0x9d06241c           0xb8         184   
.text.ETH_RegisterAddre 0x9d0624d4           0xb8         184   
.text.ETH_MaxFrameLengt 0x9d06258c           0xb8         184   
.text._ARPNotifyClients 0x9d062644           0xb8         184   
.text.TCPIP_DHCP_Reques 0x9d0626fc           0xb8         184   
.text._SNMPv3_CheckIfv3 0x9d0627b4           0xb8         184   
.text._TCPIsGetReady    0x9d06286c           0xb8         184   
.text.TCPIP_STACK_NetDe 0x9d062924           0xb8         184   
.text._SYS_DEBUG_INIT   0x9d0629dc           0xb8         184   
.text._SYS_CONSOLE_INIT 0x9d062a94           0xb8         184   
.text._MacRxFreeCallbac 0x9d062b4c           0xb4         180   
.text.TCPIP_SNMP_Notify 0x9d062c00           0xb4         180   
.text.TCPIP_SNMP_PvtMIB 0x9d062cb4           0xb4         180   
.text._SNMPv3_ComputeMd 0x9d062d68           0xb4         180   
.text._SNMPv3_ComputeSh 0x9d062e1c           0xb4         180   
.text._TcpSocketInitial 0x9d062ed0           0xb4         180   
.text.TCPIP_TCP_RemoteB 0x9d062f84           0xb4         180   
.text.TCPIP_STACK_NetAd 0x9d063038           0xb4         180   
.text.TCPIP_STACK_NetAd 0x9d0630ec           0xb4         180   
.text.TCPIP_STACK_NetAd 0x9d0631a0           0xb4         180   
.text.TCPIP_STACK_NetBI 0x9d063254           0xb4         180   
.text._UDPSetSourceAddr 0x9d063308           0xb4         180   
.text._mon_putc         0x9d0633bc           0xb4         180   
.text.DRV_ETHMAC_PIC32M 0x9d063470           0xb0         176   
.text.MPFSGetSize       0x9d063520           0xb0         176   
.text.MPFSGetStartAddr  0x9d0635d0           0xb0         176   
.text._ARPRemoveCacheEn 0x9d063680           0xb0         176   
.text.TCPIP_ARP_Handler 0x9d063730           0xb0         176   
.text.TCPIP_FTP_CmdsPar 0x9d0637e0           0xb0         176   
.text.TCPIP_IPV4_Verify 0x9d063890           0xb0         176   
.text.TCPIP_SNMPv3_Init 0x9d063940           0xb0         176   
.text._SNMPv3_AuthKeyZe 0x9d0639f0           0xb0         176   
.text.TCPIP_ANNOUNCE_De 0x9d063aa0           0xb0         176   
.text._TCPIP_HEAP_Mallo 0x9d063b50           0xb0         176   
.text.TCPIP_STACK_Netwo 0x9d063c00           0xb0         176   
.text.TCPIP_TELNET_Dein 0x9d063cb0           0xb0         176   
.text.CommandQuit       0x9d063d60           0xb0         176   
.text.CmdRemoveTail     0x9d063e10           0xb0         176   
.text.ETH_MIIMClockSet_ 0x9d063ec0           0xac         172   
.text.DRV_ETHPHY_Open   0x9d063f6c           0xac         172   
.text.DRV_ETHPHY_HWConf 0x9d064018           0xac         172   
.text.OSC_SecondaryEnab 0x9d0640c4           0xac         172   
.text.OSC_SecondaryDisa 0x9d064170           0xac         172   
.text.HTTPPrint_cookien 0x9d06421c           0xac         172   
.text.HTTPPrint_cookief 0x9d0642c8           0xac         172   
.text.TCPIP_DHCP_Enable 0x9d064374           0xac         172   
.text.TCPIP_DHCP_Renew  0x9d064420           0xac         172   
.rodata                 0x9d0644cc           0xac         172  Read-only const 
.text.TCPIP_TCP_IsConne 0x9d064578           0xac         172   
.rodata                 0x9d064624           0xa8         168  Read-only const 
.text.SYSTEMConfigWaitS 0x9d0646cc           0xa8         168   
.text.ETH_MIIMWriteData 0x9d064774           0xa8         168   
.text.SYS_FS_MEDIA_MANA 0x9d06481c           0xa8         168   
.text.TCPIP_DNS_Resolve 0x9d0648c4           0xa8         168   
.text.StateMachineTcpTx 0x9d06496c           0xa8         168   
.text.TCPIP_STACK_NetBy 0x9d064a14           0xa8         168   
.text.TCPIP_STACK_NetAd 0x9d064abc           0xa8         168   
.text.TCPIP_STACK_Strin 0x9d064b64           0xa8         168   
.text.TCPIP_UDP_RemoteB 0x9d064c0c           0xa8         168   
.text._SYS_ERROR        0x9d064cb4           0xa8         168   
.text                   0x9d064d5c           0xa8         168  App's exec code 
.text.atoi              0x9d064e04           0xa8         168   
.text.atol              0x9d064eac           0xa8         168   
.text.BSP_Initialize    0x9d064f54           0xa4         164   
.text.ETH_RMIISpeedSet_ 0x9d064ff8           0xa4         164   
.rodata                 0x9d06509c           0xa4         164  Read-only const 
.text._DRV_ETHPHY_Clien 0x9d065140           0xa4         164   
.text.HTTPPrint_helloms 0x9d0651e4           0xa4         164   
.text._DHCPNotifyClient 0x9d065288           0xa4         164   
.text.TCPIP_DNS_ClientD 0x9d06532c           0xa4         164   
.text.StateMachineUdpRx 0x9d0653d0           0xa4         164   
.text._Tcpv4TxAckFnc    0x9d065474           0xa4         164   
.text.TCPIP_STACK_NetIs 0x9d065518           0xa4         164   
.text.USART_GETS        0x9d0655bc           0xa0         160   
.text.HTTPPrint_buildda 0x9d06565c           0xa0         160   
.text._DHCPCleanup      0x9d0656fc           0xa0         160   
.text._DHCPDiscard      0x9d06579c           0xa0         160   
.text.TCPIP_DHCP_Handle 0x9d06583c           0xa0         160   
.text.TCPIP_IPV4_Initia 0x9d0658dc           0xa0         160   
.text.TCPIP_SNMP_DataIs 0x9d06597c           0xa0         160   
.text._TCPSetSourceAddr 0x9d065a1c           0xa0         160   
.text._Tcpv4UnlinkDataS 0x9d065abc           0xa0         160   
.text.TCPIP_STACK_MACId 0x9d065b5c           0xa0         160   
.text.TCPIP_STACK_NetIs 0x9d065bfc           0xa0         160   
.text.strupr            0x9d065c9c           0x9c         156   
.text.HTTPPrint_ddns_st 0x9d065d38           0x9c         156   
.text.TCPIP_IPERF_Deini 0x9d065dd4           0x9c         156   
.text.IPv4RegisterFilte 0x9d065e70           0x9c         156   
.text.TCPIP_SMTP_String 0x9d065f0c           0x9c         156   
.text.TCPIP_SNMP_ErrorS 0x9d065fa8           0x9c         156   
.text.TCPIP_SNMPv3_Engn 0x9d066044           0x9c         156   
.text._SNMPv3_SetErrorS 0x9d0660e0           0x9c         156   
.text._TcpSocketKill    0x9d06617c           0x9c         156   
.text._TCP_PortIsAvaila 0x9d066218           0x9c         156   
.text._TCP_PayloadSet   0x9d0662b4           0x9c         156   
.text.ANNOUNCE_Notify   0x9d066350           0x9c         156   
.text.TCPIP_Helper_Sing 0x9d0663ec           0x9c         156   
.text._TCPIPStackSetCon 0x9d066488           0x9c         156   
.text.UDPOpenClientSkt  0x9d066524           0x9c         156   
.text._UDPClose         0x9d0665c0           0x9c         156   
.text.TCPIP_UDP_RxOffse 0x9d06665c           0x9c         156   
.text.TCPIP_UDP_GetIsRe 0x9d0666f8           0x9c         156   
.text._UDPIsAvailablePo 0x9d066794           0x9c         156   
.text.strstr            0x9d066830           0x9c         156   
.text.DRV_ETHPHY_SMIRea 0x9d0668cc           0x98         152   
.text.SYS_FS_Initialize 0x9d066964           0x98         152   
.text.TCPIP_SMTP_UsageB 0x9d0669fc           0x98         152   
.rodata                 0x9d066a94           0x98         152  Read-only const 
.text.TCPIP_SNMP_DataTy 0x9d066b2c           0x98         152   
.text.TCPIP_SNMPv3_Auth 0x9d066bc4           0x98         152   
.text.TCPIP_TCP_ClientO 0x9d066c5c           0x98         152   
.text.TCPIP_PKT_PacketA 0x9d066cf4           0x98         152   
.text.TCPIP_TELNET_Init 0x9d066d8c           0x98         152   
.text._SYS_DEBUG_OPEN   0x9d066e24           0x98         152   
.text._SYS_ASSERT       0x9d066ebc           0x98         152   
.text._SYS_CONSOLE_OPEN 0x9d066f54           0x98         152   
.text                   0x9d066fec           0x98         152  App's exec code 
.text.rand              0x9d067084           0x98         152   
.text.DRV_ETHPHY_LinkSt 0x9d06711c           0x94         148   
.text._HTTP_HeaderParse 0x9d0671b0           0x94         148   
.text.TCPIP_TCP_WasRese 0x9d067244           0x94         148   
.text.TCPIP_TCP_Connect 0x9d0672d8           0x94         148   
.text.TCPIP_Helper_Sing 0x9d06736c           0x94         148   
.text.TCPIP_STACK_Addre 0x9d067400           0x94         148   
.text.write             0x9d067494           0x94         148   
.text.SYSTEMConfigPerfo 0x9d067528           0x90         144   
.text._MACTxAcknowledge 0x9d0675b8           0x90         144   
.text.DRV_ETHMAC_LibDes 0x9d067648           0x90         144   
.text.USART_PRINT       0x9d0676d8           0x90         144   
.rodata                 0x9d067768           0x90         144  Read-only const 
.text._HTTP_Cleanup     0x9d0677f8           0x90         144   
.text._ICMPAllocateTxPa 0x9d067888           0x90         144   
.text.TCPIP_IPV4_Verify 0x9d067918           0x90         144   
.text.TCPIP_NBNS_Deinit 0x9d0679a8           0x90         144   
.text.TCPIP_SNMPv3_Trap 0x9d067a38           0x90         144   
.text._Tcpv4AllocateTxP 0x9d067ac8           0x90         144   
.text.TCPIP_TCP_Discard 0x9d067b58           0x90         144   
.text._SysGetCDevEntry  0x9d067be8           0x90         144   
.text.HTTPNeedsAuth     0x9d067c78           0x8c         140   
.text.HTTPPrint_read_co 0x9d067d04           0x8c         140   
.text.HTTPPrint_write_c 0x9d067d90           0x8c         140   
.text.HTTPPrint_status_ 0x9d067e1c           0x8c         140   
.text.HTTPPrint_status_ 0x9d067ea8           0x8c         140   
.text.TCPIP_ARP_Handler 0x9d067f34           0x8c         140   
.text._SwapARPPacket    0x9d067fc0           0x8c         140   
.text.TCPIP_HTTP_PostNa 0x9d06804c           0x8c         140   
.text.SwapIPV4Header    0x9d0680d8           0x8c         140   
.text.TCPIP_SNMPv3_Data 0x9d068164           0x8c         140   
.text._SntpInit         0x9d0681f0           0x8c         140   
.text._TCP_Flush        0x9d06827c           0x8c         140   
.text.DRV_ETHPHY_Restar 0x9d068308           0x88         136   
.text.SHA1Initialize    0x9d068390           0x88         136   
.text.TCPIP_DHCP_Deinit 0x9d068418           0x88         136   
.text.TCPIP_SNTP_Initia 0x9d0684a0           0x88         136   
.text.TCPIP_HEAP_MaxSiz 0x9d068528           0x88         136   
.text.TCPIP_STACK_IPAdd 0x9d0685b0           0x88         136   
.text.TCPIP_STACK_MACId 0x9d068638           0x88         136   
.text.UDPIsPutReady     0x9d0686c0           0x88         136   
.text._MACTxPacket      0x9d068748           0x84         132   
.text._MACTxPacketAckCa 0x9d0687cc           0x84         132   
.text.INT_SourceIsEnabl 0x9d068850           0x84         132   
.text.LFSRSeedRand      0x9d0688d4           0x84         132   
.text.SNMPGetTimeStamp  0x9d068958           0x84         132   
.text.HTTPCheckAuth     0x9d0689dc           0x84         132   
.text.TCPIP_OAHASH_Init 0x9d068a60           0x84         132   
.text.TCPIP_SNMPv3_Auth 0x9d068ae4           0x84         132   
.text._TCPIP_HEAP_Callo 0x9d068b68           0x84         132   
.text._TCPIP_STACK_Find 0x9d068bec           0x84         132   
.text._TCPIP_STACK_Find 0x9d068c70           0x84         132   
.text.TCPIP_STACK_Netwo 0x9d068cf4           0x84         132   
.text.TCPIP_UDP_SourceI 0x9d068d78           0x84         132   
.text._SYS_CMDIO_GET_HA 0x9d068dfc           0x84         132   
.text._SYS_CONSOLE_PRIN 0x9d068e80           0x84         132   
.text.DRV_NVM_MEDIA_Ope 0x9d068f04           0x80         128   
.text._ARPAllocateTxPac 0x9d068f84           0x80         128   
.text.TCPIP_SNMP_Memory 0x9d069004           0x80         128   
.text.TCPIP_SNMP_DataCo 0x9d069084           0x80         128   
.text.TCPIP_TCP_Disconn 0x9d069104           0x80         128   
.text._fassert          0x9d069184           0x80         128   
.text.SYSTEMConfigPB    0x9d069204           0x7c         124   
.text.PLIB_ETH_RxSetBuf 0x9d069280           0x7c         124   
.text.HTTPPrint_config_ 0x9d0692fc           0x7c         124   
.text.TCPIP_DHCP_Handle 0x9d069378           0x7c         124   
.text.Ipv4DeRegisterFil 0x9d0693f4           0x7c         124   
.rodata                 0x9d069470           0x7c         124  Read-only const 
.text._TcpFlush         0x9d0694ec           0x7c         124   
.text.TCPIP_TCP_Find    0x9d069568           0x7c         124   
.text.TCPIP_Commands_De 0x9d0695e4           0x7c         124   
.text.TCPIP_STACK_Addre 0x9d069660           0x7c         124   
.text.TCPIP_STACK_NetAd 0x9d0696dc           0x7c         124   
.text.TCPIP_STACK_NetMa 0x9d069758           0x7c         124   
.text.TCPIP_STACK_NetMA 0x9d0697d4           0x7c         124   
.text._UDPSocketTxSet   0x9d069850           0x7c         124   
.text.TCPIP_UDP_TxCount 0x9d0698cc           0x7c         124   
.text.raise             0x9d069948           0x7c         124   
.text.MPFS_Unmount      0x9d0699c4           0x78         120   
.text.LFSRRand          0x9d069a3c           0x78         120   
.text._ARPDeleteCache   0x9d069ab4           0x78         120   
.rodata                 0x9d069b2c           0x78         120  Read-only const 
.text._Telnet_GETC      0x9d069ba4           0x78         120   
.rodata                 0x9d069c1c           0x78         120  Read-only const 
.text.CommandCleanup    0x9d069c94           0x78         120   
.text.strncmp           0x9d069d0c           0x78         120   
.text.SYS_TICK_TimerSet 0x9d069d84           0x74         116   
.text._MACCleanup       0x9d069df8           0x74         116   
.text._MacTxDiscardQueu 0x9d069e6c           0x74         116   
.text.ETH_EthernetIsBus 0x9d069ee0           0x74         116   
.text.ETH_TransmitIsBus 0x9d069f54           0x74         116   
.text.ETH_ReceiveIsBusy 0x9d069fc8           0x74         116   
.text.ETH_MIIMIsBusy_De 0x9d06a03c           0x74         116   
.text.PLIB_ETH_StationA 0x9d06a0b0           0x74         116   
.text.MPFS_EOF          0x9d06a124           0x74         116   
.text.MD5Initialize     0x9d06a198           0x74         116   
.text.HTTPPrint_pot     0x9d06a20c           0x74         116   
.text.HTTPPrint_config_ 0x9d06a280           0x74         116   
.text._ARPRefreshEntry  0x9d06a2f4           0x74         116   
.text.TCPIP_SNMPv3_Engn 0x9d06a368           0x74         116   
.text.TCPIP_TCP_Flush   0x9d06a3dc           0x74         116   
.text._Telnet_Close     0x9d06a450           0x74         116   
.text._Telnet_PRINT     0x9d06a4c4           0x74         116   
.text.SYS_RANDOM_ADD    0x9d06a538           0x74         116   
.text.INT_SourceFlagCle 0x9d06a5ac           0x70         112   
.text.INT_SourceEnable_ 0x9d06a61c           0x70         112   
.text.INT_SourceFlagCle 0x9d06a68c           0xe0         224   
.text.INT_SourceEnable_ 0x9d06a76c           0x70         112   
.text.INT_SourceDisable 0x9d06a7dc           0x70         112   
.text.HTTPPrint_config_ 0x9d06a84c           0x70         112   
.text.HTTPPrint_config_ 0x9d06a8bc           0x70         112   
.text.HTTPPrint_config_ 0x9d06a92c           0x70         112   
.text.HTTPPrint_config_ 0x9d06a99c           0x70         112   
.text.HTTPPrint_config_ 0x9d06aa0c           0x70         112   
.text.TCPIP_ICMP_Initia 0x9d06aa7c           0x70         112   
.text.TCPIP_NBNS_Initia 0x9d06aaec           0x70         112   
.text.TCPIP_TCP_StringP 0x9d06ab5c           0x70         112   
.text._TCPIP_AnnounceCl 0x9d06abcc           0x70         112   
.text._TCPIP_MacEventCB 0x9d06ac3c           0x70         112   
.text._sys_CONSOLE_PRIN 0x9d06acac           0x70         112   
.rodata                 0x9d06ad1c           0x70         112  Read-only const 
.text.strncat           0x9d06ad8c           0x70         112   
.text.strcspn           0x9d06adfc           0x70         112   
.text.strspn            0x9d06ae6c           0x70         112   
.text._MacCallocCallbac 0x9d06aedc           0x6c         108   
.text.DRV_ETHPHY_Deinit 0x9d06af48           0x6c         108   
.text.DRV_ETHPHY_Close  0x9d06afb4           0x6c         108   
.text._DRV_NVM_EraseBuf 0x9d06b020           0x6c         108   
.rodata                 0x9d06b08c           0x6c         108  Read-only const 
.text._SYS_FS_MEDIA_MAN 0x9d06b0f8           0x6c         108   
.text.StateMachineTxSta 0x9d06b164           0x6c         108   
.text._TCPGetRxFIFOFree 0x9d06b1d0           0x6c         108   
.text._TCP_ClientIPV4Re 0x9d06b23c           0x6c         108   
.text.TCPIP_Notificatio 0x9d06b2a8           0x6c         108   
.text.CommandReset      0x9d06b314           0x6c         108   
.text.DmaSuspend        0x9d06b380           0x68         104   
.text.ETH_RxPacketCount 0x9d06b3e8           0x68         104   
.text.DRV_ETHMAC_LibTxA 0x9d06b450           0x68         104   
.text.ETH_MIIMReadDataG 0x9d06b4b8           0x68         104   
.text.MPFS_Read         0x9d06b520           0x68         104   
.text.StateMachineTcpRx 0x9d06b588           0x68         104   
.text.TCPIP_OAHASH_Entr 0x9d06b5f0           0x68         104   
.text.TCPIP_SNMPv3_Engi 0x9d06b658           0x68         104   
.text._TcpSocketChk     0x9d06b6c0           0x68         104   
.text.TCPIP_TCP_GetIsRe 0x9d06b728           0x68         104   
.text.TCPIP_TCP_FifoRxF 0x9d06b790           0x68         104   
.text.TCPIP_STACK_NetNa 0x9d06b7f8           0x68         104   
.text.TCPIP_Notificatio 0x9d06b860           0x68         104   
.text._Telnet_DATA_RDY  0x9d06b8c8           0x68         104   
.text._UDPSocketDcpt    0x9d06b930           0x68         104   
.text._UDPAllocateTxPac 0x9d06b998           0x68         104   
.text._UDPFreeRxQueue   0x9d06ba00           0x68         104   
.text._sprintf_cdnopsux 0x9d06ba68           0x68         104   
.rodata                 0x9d06bad0           0x68         104  Read-only const 
.text.PLIB_INT_VectorPr 0x9d06bb38           0x64         100   
.text.PLIB_INT_VectorSu 0x9d06bb9c           0x64         100   
.text.PLIB_ETH_BackToBa 0x9d06bc00           0x64         100   
.text.PLIB_ETH_NonBackT 0x9d06bc64           0x64         100   
.text.PLIB_ETH_NonBackT 0x9d06bcc8           0x64         100   
.text.PLIB_ETH_Collisio 0x9d06bd2c           0x64         100   
.text.PLIB_ETH_ReTxMaxS 0x9d06bd90           0x64         100   
.text.PLIB_ETH_MaxFrame 0x9d06bdf4           0x64         100   
.text.PLIB_ETH_PHYAddre 0x9d06be58           0x64         100   
.text.PLIB_ETH_Register 0x9d06bebc           0x64         100   
.text.PLIB_ETH_MIIMWrit 0x9d06bf20           0x64         100   
.text.PLIB_ETH_ReceiveB 0x9d06bf84           0x64         100   
.text.PLIB_ETH_HashTabl 0x9d06bfe8           0x64         100   
.text.PLIB_ETH_MaxFrame 0x9d06c04c           0x64         100   
.text.btohexa_high      0x9d06c0b0           0x64         100   
.text.btohexa_low       0x9d06c114           0x64         100   
.text.TCPIP_SNMP_PDUPro 0x9d06c178           0x64         100   
.text.TCPIP_SNMPv3_Whol 0x9d06c1dc           0x64         100   
.text.TCPIP_TCP_SocketN 0x9d06c240           0x64         100   
.text.TCPIP_STACK_Addre 0x9d06c2a4           0x64         100   
.text.TCPIP_Notificatio 0x9d06c308           0x64         100   
.text._Telnet_PUTC      0x9d06c36c           0x64         100   
.text.TCPIP_UDP_SocketN 0x9d06c3d0           0x64         100   
.text._vsnprintf_cdnops 0x9d06c434           0x64         100   
.text.vsnprintf         0x9d06c498           0x64         100   
.rodata                 0x9d06c4fc           0x60          96  Read-only const 
.text.ETH_MIIMReadStart 0x9d06c55c           0x60          96   
.text.USART_PUTC        0x9d06c5bc           0x60          96   
.text.MPFSClose         0x9d06c61c           0x60          96   
.text.MPFSGetPosition   0x9d06c67c           0x60          96   
.text.HTTPPrint_reboota 0x9d06c6dc           0x60          96   
.text._HTTP_FileRdCheck 0x9d06c73c           0x60          96   
.text.TCPIP_ICMP_Deinit 0x9d06c79c           0x60          96   
.text.TCPIP_SNMP_PutByt 0x9d06c7fc           0x60          96   
.rodata                 0x9d06c85c           0x60          96  Read-only const 
.text._Telnet_MSG       0x9d06c8bc           0x60          96   
.text.PLIB_INT_SourceFl 0x9d06c91c           0x5c          92   
.text.PLIB_INT_SourceEn 0x9d06c978           0x5c          92   
.text.PLIB_INT_SourceFl 0x9d06c9d4           0x5c          92   
.text._MacTxFreeCallbac 0x9d06ca30           0x5c          92   
.text.ETH_Enable_Defaul 0x9d06ca8c           0x5c          92   
.text.ETH_Disable_Defau 0x9d06cae8           0x5c          92   
.text.ETH_TxRTSEnable_D 0x9d06cb44           0x5c          92   
.text.ETH_TxRTSDisable_ 0x9d06cba0           0x5c          92   
.text.ETH_RxEnable_Defa 0x9d06cbfc           0x5c          92   
.text.ETH_RxDisable_Def 0x9d06cc58           0x5c          92   
.text.ETH_RxBufferCount 0x9d06ccb4           0x5c          92   
.text.ETH_MIIResetEnabl 0x9d06cd10           0x5c          92   
.text.ETH_MIIResetDisab 0x9d06cd6c           0x5c          92   
.text.ETH_RMIIResetEnab 0x9d06cdc8           0x5c          92   
.text.ETH_RMIIResetDisa 0x9d06ce24           0x5c          92   
.text.PLIB_ETH_TxPacket 0x9d06ce80           0x5c          92   
.text.PLIB_ETH_RxPacket 0x9d06cedc           0x5c          92   
.text.PLIB_ETH_Interrup 0x9d06cf38           0x5c          92   
.text.PLIB_ETH_RMIISpee 0x9d06cf94           0x5c          92   
.text.ETH_MIIMResetEnab 0x9d06cff0           0x5c          92   
.text.ETH_MIIMResetDisa 0x9d06d04c           0x5c          92   
.text.ETH_MIIMWriteStar 0x9d06d0a8           0x5c          92   
.text.PLIB_ETH_MIIMCloc 0x9d06d104           0x5c          92   
.text.PLIB_INT_SourceFl 0x9d06d160           0x5c          92   
.text.PLIB_INT_SourceEn 0x9d06d1bc           0x5c          92   
.text.NVM_MemoryModifyI 0x9d06d218           0x5c          92   
.text.PLIB_NVM_MemoryOp 0x9d06d274           0x5c          92   
.text.PLIB_NVM_FlashAdd 0x9d06d2d0           0x5c          92   
.text.PLIB_NVM_FlashPro 0x9d06d32c           0x5c          92   
.text.PLIB_NVM_FlashWri 0x9d06d388           0x5c          92   
.text.PLIB_NVM_DataBloc 0x9d06d3e4           0x5c          92   
.text.PLIB_ETH_ReceiveF 0x9d06d440           0x5c          92   
.text.PLIB_ETH_ReceiveF 0x9d06d49c           0x5c          92   
.text.PLIB_OSC_OnWaitAc 0x9d06d4f8           0x5c          92   
.text.PLIB_OSC_FRCDivis 0x9d06d554           0x5c          92   
.text.PLIB_OSC_SysClock 0x9d06d5b0           0x5c          92   
.text.PLIB_OSC_UsbClock 0x9d06d60c           0x5c          92   
.text.PLIB_OSC_Referenc 0x9d06d668           0x5c          92   
.text.PLIB_OSC_Referenc 0x9d06d6c4           0x5c          92   
.text.PLIB_OSC_Referenc 0x9d06d720           0x5c          92   
.text.PLIB_OSC_Referenc 0x9d06d77c           0x5c          92   
.text.PLIB_OSC_Referenc 0x9d06d7d8           0x5c          92   
.text.PLIB_OSC_Referenc 0x9d06d834           0x5c          92   
.text.PLIB_OSC_Referenc 0x9d06d890           0x5c          92   
.text.SYS_CLK_Frequency 0x9d06d8ec           0x5c          92   
.text.INT_MultiVectorSe 0x9d06d948           0x5c          92   
.text.PLIB_INT_SourceDi 0x9d06d9a4           0x5c          92   
.text.TCPIP_OAHASH_Entr 0x9d06da00           0x5c          92   
.text._TcpSocketBind    0x9d06da5c           0x5c          92   
.text.TCPIP_STACK_Index 0x9d06dab8           0x5c          92   
.text._UDPSocketBind    0x9d06db14           0x5c          92   
.text.TCPIP_UDP_Close   0x9d06db70           0x5c          92   
.text.TCPIP_UDP_Discard 0x9d06dbcc           0x5c          92   
.text.calloc            0x9d06dc28           0x5c          92   
.text.USART_OPEN        0x9d06dc84           0x58          88   
.text.USART_GETC        0x9d06dcdc           0x58          88   
.text.PLIB_INT_SourceIs 0x9d06dd34           0x58          88   
.text.HTTPPrint_ddns_st 0x9d06dd8c           0x58          88   
.text.HTTPPrint_smtps_e 0x9d06dde4           0x58          88   
.text.HTTPPrint_snmp_en 0x9d06de3c           0x58          88   
.text.TCPIP_ARP_HashKey 0x9d06de94           0x58          88   
.text.StateMachineTcpTx 0x9d06deec           0x58          88   
.text.TCPIP_SNMP_PutDat 0x9d06df44           0x58          88   
.text.TCPIP_Helper_Powe 0x9d06df9c           0x58          88   
.text.TCPIP_Helper_Chec 0x9d06dff4           0x58          88   
.text._Telnet_Deregiste 0x9d06e04c           0x58          88   
.text.strncpy           0x9d06e0a4           0x58          88   
.text.PLIB_INT_Enable   0x9d06e0fc           0x54          84   
.text.DmaResume         0x9d06e150           0x54          84   
.text.PLIB_ETH_Enable   0x9d06e1a4           0x54          84   
.text.PLIB_ETH_Disable  0x9d06e1f8           0x54          84   
.text.PLIB_ETH_TxRTSEna 0x9d06e24c           0x54          84   
.text.PLIB_ETH_TxRTSDis 0x9d06e2a0           0x54          84   
.text.PLIB_ETH_RxEnable 0x9d06e2f4           0x54          84   
.text.PLIB_ETH_RxDisabl 0x9d06e348           0x54          84   
.text.PLIB_ETH_RxBuffer 0x9d06e39c           0x54          84   
.text.PLIB_ETH_MIIReset 0x9d06e3f0           0x54          84   
.text.PLIB_ETH_MIIReset 0x9d06e444           0x54          84   
.text.PLIB_ETH_RMIIRese 0x9d06e498           0x54          84   
.text.PLIB_ETH_RMIIRese 0x9d06e4ec           0x54          84   
.text.PLIB_ETH_MIIMRese 0x9d06e540           0x54          84   
.text.PLIB_ETH_MIIMRese 0x9d06e594           0x54          84   
.text.PLIB_ETH_MIIMRead 0x9d06e5e8           0x54          84   
.text.PLIB_ETH_MIIMWrit 0x9d06e63c           0x54          84   
.text._Phy2LinkStat     0x9d06e690           0x54          84   
.text._PhyReadReg       0x9d06e6e4           0x54          84   
.text.PLIB_INT_Enable   0x9d06e738           0x54          84   
.text.PLIB_NVM_MemoryMo 0x9d06e78c           0x54          84   
.text.PLIB_NVM_FlashWri 0x9d06e7e0           0x54          84   
.text.PLIB_OSC_Secondar 0x9d06e834           0x54          84   
.text.PLIB_OSC_Secondar 0x9d06e888           0x54          84   
.text.PLIB_INT_MultiVec 0x9d06e8dc           0x54          84   
.text.PLIB_INT_Disable  0x9d06e930           0x54          84   
.text.SYS_INT_SourceDis 0x9d06e984           0x54          84   
.text.HTTPPrint_version 0x9d06e9d8           0x54          84   
.text.HTTPPrint_drive   0x9d06ea2c           0x54          84   
.text.HTTPPrint_fstype  0x9d06ea80           0x54          84   
.text._ARPTxAckFnc      0x9d06ead4           0x54          84   
.text._DHCPSetRunFail   0x9d06eb28           0x54          84   
.text.TCPIP_SMTP_MailSe 0x9d06eb7c           0x54          84   
.text.TCPIP_SMTP_IsPutR 0x9d06ebd0           0x54          84   
.text._TcpDiscardTx     0x9d06ec24           0x54          84   
.text.TCPIP_TCP_Put     0x9d06ec78           0x54          84   
.text.TCPIP_MAC_PacketR 0x9d06eccc           0x54          84   
.text.TCPIP_STACK_Addre 0x9d06ed20           0x54          84   
.text._UDPUpdatePacket  0x9d06ed74           0x54          84   
.text.TCPIP_UDP_ServerO 0x9d06edc8           0x54          84   
.text.TCPIP_UDP_ClientO 0x9d06ee1c           0x54          84   
.text.TCPIP_UDP_Put     0x9d06ee70           0x54          84   
.text._SYS_CONSOLE_PUTC 0x9d06eec4           0x54          84   
.rodata                 0x9d06ef18           0x54          84  Read-only const 
.text.SYS_Tasks         0x9d06ef6c           0x50          80   
.text.DRV_ETHMAC_PIC32M 0x9d06efbc           0x50          80   
.text.PLIB_ETH_TxPacket 0x9d06f00c           0x50          80   
.text.PLIB_ETH_RxPacket 0x9d06f05c           0x50          80   
.text.PLIB_ETH_RxPacket 0x9d06f0ac           0x50          80   
.text.PLIB_ETH_Ethernet 0x9d06f0fc           0x50          80   
.text.PLIB_ETH_Transmit 0x9d06f14c           0x50          80   
.text.PLIB_ETH_ReceiveI 0x9d06f19c           0x50          80   
.text.DRV_ETHMAC_LibRxA 0x9d06f1ec           0x50          80   
.text.PLIB_ETH_MIIMRead 0x9d06f23c           0x50          80   
.text.PLIB_ETH_MIIMIsBu 0x9d06f28c           0x50          80   
.text.PLIB_NVM_ExistsMe 0x9d06f2dc           0x50          80   
.text.DRV_NVM_MEDIA_Buf 0x9d06f32c           0x50          80   
.text.PLIB_OSC_ExistsOn 0x9d06f37c           0x50          80   
.text.PLIB_OSC_ExistsSe 0x9d06f3cc           0x50          80   
.text.PLIB_OSC_ExistsRe 0x9d06f41c           0x50          80   
.text.SYS_CLK_SystemClo 0x9d06f46c           0x50          80   
.text.SYS_CLK_UsbClockS 0x9d06f4bc           0x50          80   
.text.PLIB_INT_IsEnable 0x9d06f50c           0x50          80   
.text.TCPIP_ARP_HashKey 0x9d06f55c           0x50          80   
.text._DNSReleaseSocket 0x9d06f5ac           0x50          80   
.text.HTTPPrint_        0x9d06f5fc           0x50          80   
.text.TCPIP_UDP_IsConne 0x9d06f64c           0x50          80   
.text._SYS_CONSOLE_MESS 0x9d06f69c           0x50          80   
.text.sbrk              0x9d06f6ec           0x50          80   
.text.ETH_ReceiveFilter 0x9d06f73c           0x4c          76   
.text.ETH_ReceiveFilter 0x9d06f788           0x4c          76   
.text.TCPIP_TCP_Get     0x9d06f7d4           0x4c          76   
.text._Command_DHCPSOnO 0x9d06f820           0x4c          76   
.text._Command_ZcllOnOf 0x9d06f86c           0x4c          76   
.text._TCPIP_HEAP_FreeD 0x9d06f8b8           0x4c          76   
.text.TCPIP_MAC_PacketT 0x9d06f904           0x4c          76   
.text.TCPIP_UDP_Get     0x9d06f950           0x4c          76   
.text                   0x9d06f99c           0x4c          76  App's exec code 
.text.ETH_InterruptClea 0x9d06f9e8           0x48          72   
.text._EthMacInit       0x9d06fa30           0x48          72   
.text.PLIB_ETH_MACSetMa 0x9d06fa78           0x48          72   
.text.PLIB_ETH_RxFilter 0x9d06fac0           0x48          72   
.text.SYS_INT_Disable   0x9d06fb08           0x48          72   
.text._ARPDeleteClients 0x9d06fb50           0x48          72   
.text.TCPIP_ARP_HashKey 0x9d06fb98           0x48          72   
.text.TCPIP_DNS_UsageEn 0x9d06fbe0           0x48          72   
.text.TCPIP_HTTP_Curren 0x9d06fc28           0x48          72   
.text.StateMachineUdpTx 0x9d06fc70           0x48          72   
.text.TCPIP_SNMP_Packet 0x9d06fcb8           0x48          72   
.text.TCPIP_STACK_NetIn 0x9d06fd00           0x48          72   
.text._TCPIPStackAsyncH 0x9d06fd48           0x48          72   
.text.TCPIP_UDP_TxPutIs 0x9d06fd90           0x48          72   
.text._SYS_CONSOLE_DATA 0x9d06fdd8           0x48          72   
.text._SYS_CONSOLE_GETC 0x9d06fe20           0x48          72   
.vector_default         0x9d06fe68           0x48          72   
.text._INT_INT_FLAG_STA 0x9d06feb0           0x44          68   
.text._INT_INT_ENABLE_C 0x9d06fef4           0x44          68   
.text._INT_INT_PRIORITY 0x9d06ff38           0x44          68   
.text.SYS_Reboot        0x9d06ff7c           0x44          68   
.text._INT_INT_FLAG_STA 0x9d06ffc0           0x44          68   
.text._ETH_ETHERNET_ON_ 0x9d070004           0x44          68   
.text._ETH_TX_REQUEST_T 0x9d070048           0x44          68   
.text._ETH_RX_ENABLE_VR 0x9d07008c           0x44          68   
.text._ETH_BUFCNT_DECRE 0x9d0700d0           0x44          68   
.text._ETH_TX_START_ADD 0x9d070114           0x44          68   
.text._ETH_RX_START_ADD 0x9d070158           0x44          68   
.text._ETH_RX_FIFO_OVER 0x9d07019c           0x44          68   
.text._ETH_PACKET_BUFFE 0x9d0701e0           0x44          68   
.text._ETH_ETHERNET_MOD 0x9d070224           0x44          68   
.text._ETH_TX_BUSY_VREG 0x9d070268           0x44          68   
.text._ETH_RX_BUSY_VREG 0x9d0702ac           0x44          68   
.text._ETH_MII_RESET_VR 0x9d0702f0           0x44          68   
.text._ETH_BACK2BACK_IP 0x9d070334           0x44          68   
.text._ETH_NON_BACK2BAC 0x9d070378           0x44          68   
.text._ETH_NON_BACK2BAC 0x9d0703bc           0x44          68   
.text._ETH_COL_WINDOW_V 0x9d070400           0x44          68   
.text._ETH_RETX_MAX_VRE 0x9d070444           0x44          68   
.text._ETH_MAX_FRAME_LE 0x9d070488           0x44          68   
.text._ETH_RESET_RMII_V 0x9d0704cc           0x44          68   
.text._ETH_SPEED_RMII_V 0x9d070510           0x44          68   
.text.ETH_TxPacketDescA 0x9d070554           0x44          68   
.text.ETH_RxPacketDescA 0x9d070598           0x44          68   
.text._EthMacReset      0x9d0705dc           0x44          68   
.text._ETH_RESET_MIIM_V 0x9d070620           0x44          68   
.text._ETH_MII_CLOCK_SE 0x9d070664           0x44          68   
.text._ETH_MIIM_READ_CO 0x9d0706a8           0x44          68   
.text._ETH_MIIM_PHY_ADD 0x9d0706ec           0x44          68   
.text._ETH_MIIM_REGISTE 0x9d070730           0x44          68   
.text._ETH_MIIM_WRITE_D 0x9d070774           0x44          68   
.text._ETH_MIIM_READ_DA 0x9d0707b8           0x44          68   
.text._ETH_MIIM_BUSY_VR 0x9d0707fc           0x44          68   
.text._INT_INT_FLAG_STA 0x9d070840           0x44          68   
.text._INT_INT_ENABLE_C 0x9d070884           0x44          68   
.text._NVM_OPERATION_MO 0x9d0708c8           0x44          68   
.text._NVM_MEMORY_MODIF 0x9d07090c           0x44          68   
.text._NVM_KEY_SEQUENCE 0x9d070950           0x44          68   
.text._NVM_ADDRESS_MODI 0x9d070994           0x44          68   
.text._NVM_PROVIDE_DATA 0x9d0709d8           0x44          68   
.text._NVM_SOURCE_ADDRE 0x9d070a1c           0x44          68   
.text.NVM_MemoryOperati 0x9d070a60           0x44          68   
.text.NVM_FlashAddressT 0x9d070aa4           0x44          68   
.text.NVM_FlashProvideD 0x9d070ae8           0x44          68   
.text.NVM_FlashWriteSta 0x9d070b2c           0x44          68   
.text.NVM_FlashWriteKey 0x9d070b70           0x44          68   
.text.NVM_DataBlockSour 0x9d070bb4           0x44          68   
.text.USART_DATA_RDY    0x9d070bf8           0x44          68   
.text._ETH_RX_ENABLE_VR 0x9d070c3c           0x44          68   
.text._ETH_RX_DATA_BUFF 0x9d070c80           0x44          68   
.text._ETH_HASH_TABLE_L 0x9d070cc4           0x44          68   
.text._ETH_HASH_TABLE_U 0x9d070d08           0x44          68   
.text._ETH_BROADCAST_EN 0x9d070d4c           0x44          68   
.text._ETH_MAX_FRAME_LE 0x9d070d90           0x44          68   
.text._ETH_STATION_ADDR 0x9d070dd4           0x44          68   
.text._ETH_STATION_ADDR 0x9d070e18           0x44          68   
.text._ETH_STATION_ADDR 0x9d070e5c           0x44          68   
.text._ETH_STATION_ADDR 0x9d070ea0           0x44          68   
.text._ETH_STATION_ADDR 0x9d070ee4           0x44          68   
.text._ETH_STATION_ADDR 0x9d070f28           0x44          68   
.text._OSC_OSC_SWITCH_I 0x9d070f6c           0x44          68   
.text._OSC_SECONDARY_EN 0x9d070fb0           0x44          68   
.text._OSC_OSC_USB_CLOC 0x9d070ff4           0x44          68   
.text._OSC_ON_WAIT_ACTI 0x9d071038           0x44          68   
.text._OSC_OSC_SELECT_V 0x9d07107c           0x44          68   
.text._OSC_OSC_FRC_DIVI 0x9d0710c0           0x44          68   
.text._OSC_OSC_REGISTER 0x9d071104           0x44          68   
.text.MPFS_Close        0x9d071148           0x44          68   
.text._INT_SINGLE_MULTI 0x9d07118c           0x44          68   
.text._INT_INT_ENABLE_C 0x9d0711d0           0x44          68   
.text.TCPIP_SNMPv3_Proc 0x9d071214           0x44          68   
.text.TCPIP_HEAP_FreeSi 0x9d071258           0x44          68   
.text.TCPIP_HEAP_LastEr 0x9d07129c           0x44          68   
.text.TCPIP_Helper_Sing 0x9d0712e0           0x44          68   
.text.TCPIP_MAC_Close   0x9d071324           0x44          68   
.text.TCPIP_MAC_LinkChe 0x9d071368           0x44          68   
.text.TCPIP_MAC_Process 0x9d0713ac           0x44          68   
.text.TCPIP_STACK_NetHa 0x9d0713f0           0x44          68   
.text.TCPIP_STACK_NetIx 0x9d071434           0x44          68   
.text.TCPIP_STACK_Gatew 0x9d071478           0x44          68   
.text.TCPIP_STACK_Prima 0x9d0714bc           0x44          68   
.text.TCPIP_STACK_Secon 0x9d071500           0x44          68   
.text.TCPIP_STACK_NetMA 0x9d071544           0x44          68   
.text.TCPIP_STACK_NetTo 0x9d071588           0x44          68   
.text._sys_CONSOLE_PUTC 0x9d0715cc           0x44          68   
.text.INTRestoreInterru 0x9d071610           0x40          64   
.text.DRV_ETHMAC_PIC32M 0x9d071650           0x40          64   
.text._ETH_PACKET_BUFFE 0x9d071690           0x40          64   
.text._ETH_BACK2BACK_IP 0x9d0716d0           0x40          64   
.text._ETH_NON_BACK2BAC 0x9d071710           0x40          64   
.text._ETH_NON_BACK2BAC 0x9d071750           0x40          64   
.text._ETH_COL_WINDOW_M 0x9d071790           0x40          64   
.text._ETH_RETX_MAX_MAS 0x9d0717d0           0x40          64   
.text._ETH_MAX_FRAME_LE 0x9d071810           0x40          64   
.text._ETH_ETHERNET_ON_ 0x9d071850           0x40          64   
.text._ETH_TX_REQUEST_T 0x9d071890           0x40          64   
.text._ETH_RX_ENABLE_PO 0x9d0718d0           0x40          64   
.text._ETH_BUFCNT_DECRE 0x9d071910           0x40          64   
.text._ETH_PACKET_BUFFE 0x9d071950           0x40          64   
.text._ETH_ETHERNET_MOD 0x9d071990           0x40          64   
.text._ETH_TX_BUSY_POS  0x9d0719d0           0x40          64   
.text._ETH_RX_BUSY_POS  0x9d071a10           0x40          64   
.text._ETH_MII_RESET_PO 0x9d071a50           0x40          64   
.text._ETH_BACK2BACK_IP 0x9d071a90           0x40          64   
.text._ETH_NON_BACK2BAC 0x9d071ad0           0x40          64   
.text._ETH_NON_BACK2BAC 0x9d071b10           0x40          64   
.text._ETH_COL_WINDOW_P 0x9d071b50           0x40          64   
.text._ETH_RETX_MAX_POS 0x9d071b90           0x40          64   
.text._ETH_MAX_FRAME_LE 0x9d071bd0           0x40          64   
.text._ETH_RESET_RMII_P 0x9d071c10           0x40          64   
.text._ETH_SPEED_RMII_P 0x9d071c50           0x40          64   
.text._ETH_MII_CLOCK_SE 0x9d071c90           0x40          64   
.text._ETH_MIIM_PHY_ADD 0x9d071cd0           0x40          64   
.text._ETH_MIIM_REGISTE 0x9d071d10           0x40          64   
.text._ETH_MIIM_WRITE_D 0x9d071d50           0x40          64   
.text._ETH_MIIM_READ_DA 0x9d071d90           0x40          64   
.text._ETH_RESET_MIIM_P 0x9d071dd0           0x40          64   
.text._ETH_MII_CLOCK_SE 0x9d071e10           0x40          64   
.text._ETH_MIIM_READ_CO 0x9d071e50           0x40          64   
.text._ETH_MIIM_PHY_ADD 0x9d071e90           0x40          64   
.text._ETH_MIIM_REGISTE 0x9d071ed0           0x40          64   
.text._ETH_MIIM_WRITE_D 0x9d071f10           0x40          64   
.text._ETH_MIIM_READ_DA 0x9d071f50           0x40          64   
.text._ETH_MIIM_BUSY_PO 0x9d071f90           0x40          64   
.text._NVM_WRITE_OPERAT 0x9d071fd0           0x40          64   
.text._NVM_MEMORY_MODIF 0x9d072010           0x40          64   
.text._ETH_RX_DATA_BUFF 0x9d072050           0x40          64   
.text._ETH_HASH_FILTER_ 0x9d072090           0x40          64   
.text._ETH_MAX_FRAME_LE 0x9d0720d0           0x40          64   
.text._ETH_STATION_ADDR 0x9d072110           0x40          64   
.text._ETH_STATION_ADDR 0x9d072150           0x40          64   
.text._ETH_STATION_ADDR 0x9d072190           0x40          64   
.text._ETH_STATION_ADDR 0x9d0721d0           0x40          64   
.text._ETH_STATION_ADDR 0x9d072210           0x40          64   
.text._ETH_STATION_ADDR 0x9d072250           0x40          64   
.text._ETH_RX_ENABLE_PO 0x9d072290           0x40          64   
.text._ETH_RX_DATA_BUFF 0x9d0722d0           0x40          64   
.text._ETH_HASH_FILTER_ 0x9d072310           0x40          64   
.text._ETH_MAX_FRAME_LE 0x9d072350           0x40          64   
.text._ETH_STATION_ADDR 0x9d072390           0x40          64   
.text._ETH_STATION_ADDR 0x9d0723d0           0x40          64   
.text._ETH_STATION_ADDR 0x9d072410           0x40          64   
.text._ETH_STATION_ADDR 0x9d072450           0x40          64   
.text._ETH_STATION_ADDR 0x9d072490           0x40          64   
.text._ETH_STATION_ADDR 0x9d0724d0           0x40          64   
.text.PLIB_ETH_RxFilter 0x9d072510           0x40          64   
.text.PLIB_ETH_RxFilter 0x9d072550           0x40          64   
.text._OSC_OSC_SELECT_M 0x9d072590           0x40          64   
.text._OSC_OSC_FRC_DIVI 0x9d0725d0           0x40          64   
.text._OSC_OSC_SWITCH_I 0x9d072610           0x40          64   
.text._OSC_SECONDARY_EN 0x9d072650           0x40          64   
.text._OSC_OSC_USB_CLOC 0x9d072690           0x40          64   
.text._OSC_ON_WAIT_ACTI 0x9d0726d0           0x40          64   
.text._OSC_OSC_SELECT_P 0x9d072710           0x40          64   
.text._OSC_OSC_FRC_DIVI 0x9d072750           0x40          64   
.text.SYS_CLK_Reference 0x9d072790           0x40          64   
.text.MPFS_GetSize      0x9d0727d0           0x40          64   
.text.MPFS_GetPosition  0x9d072810           0x40          64   
.text._INT_SINGLE_MULTI 0x9d072850           0x40          64   
.text.TCPIP_HTTP_Curren 0x9d072890           0x40          64   
.text.TCPIP_HTTP_Curren 0x9d0728d0           0x40          64   
.text.TCPIP_SNTP_Deinit 0x9d072910           0x40          64   
.text.SYS_CLK_ClockGet  0x9d072950           0x3c          60   
.text.ETH_TxPacketDescA 0x9d07298c           0x3c          60   
.text.ETH_RxPacketDescA 0x9d0729c8           0x3c          60   
.text.OSC_ReferenceOscS 0x9d072a04           0x3c          60   
.text.OSC_ReferenceOscS 0x9d072a40           0x3c          60   
.text.OSC_ReferenceOutp 0x9d072a7c           0x3c          60   
.text.OSC_ReferenceOscS 0x9d072ab8           0x3c          60   
.text.OSC_ReferenceOscS 0x9d072af4           0x3c          60   
.text.OSC_ReferenceOscE 0x9d072b30           0x3c          60   
.text.OSC_ReferenceOscD 0x9d072b6c           0x3c          60   
.text.TCPIP_HTTP_Curren 0x9d072ba8           0x3c          60   
.text.TCPIP_HTTP_Curren 0x9d072be4           0x3c          60   
.text._ICMPAckPacket    0x9d072c20           0x3c          60   
.text.TCPIP_SNMPV3_Pack 0x9d072c5c           0x3c          60   
.text.TCPIP_SNMP_WriteC 0x9d072c98           0x3c          60   
.text.TCPIP_SNMP_ReadCo 0x9d072cd4           0x3c          60   
.rodata                 0x9d072d10           0x3c          60  Read-only const 
.text._sys_CONSOLE_MESS 0x9d072d4c           0x3c          60   
.text.PORTSetPinsDigita 0x9d072d88           0x3c          60   
.text.PORTSetPinsDigita 0x9d072dc4           0x3c          60   
.text                   0x9d072e00           0x38          56  App's exec code 
.text.CheKseg0CacheOn   0x9d072e38           0x38          56   
.text.DRV_NVM_MEDIA_Clo 0x9d072e70           0x38          56   
.text.SYS_CLK_Initializ 0x9d072ea8           0x38          56   
.text.TCPIP_IPERF_Pendi 0x9d072ee0           0x38          56   
.text._OAHashProbeStep  0x9d072f18           0x38          56   
.text.TCPIP_SMTP_Flush  0x9d072f50           0x38          56   
.text.TCPIP_HEAP_Size   0x9d072f88           0x38          56   
.text.INT_Enable_PIC32  0x9d072fc0           0x34          52   
.text.INTDisableInterru 0x9d072ff4           0x34          52   
.text.INT_Enable_PIC32  0x9d073028           0x34          52   
.text.DRV_NVM_MEDIA_Add 0x9d07305c           0x34          52   
.rodata                 0x9d073090           0x34          52  Read-only const 
.text.INT_Disable_PIC32 0x9d0730c4           0x34          52   
.text.INT_IsEnabled_PIC 0x9d0730f8           0x34          52   
.text.SYS_INT_Initializ 0x9d07312c           0x34          52   
.text.TCPIP_HTTP_Curren 0x9d073160           0x34          52   
.text.TCPIP_HTTP_Curren 0x9d073194           0x34          52   
.text.TCPIP_HTTP_Curren 0x9d0731c8           0x34          52   
.text.TCPIP_HTTP_Curren 0x9d0731fc           0x34          52   
.text.TCPIP_HTTP_Curren 0x9d073230           0x34          52   
.text._TCPIP_ProcessMAC 0x9d073264           0x34          52   
.text._sys_CONSOLE_DATA 0x9d073298           0x34          52   
.text._sys_CONSOLE_GETC 0x9d0732cc           0x34          52   
.text.exit              0x9d073300           0x34          52   
.rodata                 0x9d073334           0x30          48  Read-only const 
.text.SYS_FS_Tasks      0x9d073364           0x30          48   
.text.TCPIP_SMTP_PutIsD 0x9d073394           0x30          48   
.rodata                 0x9d0733c4           0x30          48  Read-only const 
.text.TCPIP_HEAP_TraceG 0x9d0733f4           0x30          48   
.text.TCPIP_HEAP_TraceG 0x9d073424           0x30          48   
.text._TCPIP_STACK_Tick 0x9d073454           0x30          48   
.text._TCPIPStackAddres 0x9d073484           0x30          48   
.text.TCPIP_STACK_Proce 0x9d0734b4           0x30          48   
.text.SYS_USERIO_Tasks  0x9d0734e4           0x30          48   
.text.free              0x9d073514           0x30          48   
.text.SYS_WDT_Clear     0x9d073544           0x2c          44   
.text.DRV_ETHMAC_PIC32M 0x9d073570           0x2c          44   
.text.DRV_EXTPHY_SMIClo 0x9d07359c           0x2c          44   
.text.DRV_NVM_MEDIA_Med 0x9d0735c8           0x2c          44   
.text.HTTPPrint_ddns_se 0x9d0735f4           0x2c          44   
.text.TCPIP_SMTP_Client 0x9d073620           0x2c          44   
.text.TCPIP_SMTP_IsBusy 0x9d07364c           0x2c          44   
.text.TCPIP_SNMP_FileDe 0x9d073678           0x2c          44   
.text.TCPIP_ANNOUNCE_Ta 0x9d0736a4           0x2c          44   
.text.main              0x9d0736d0           0x2c          44   
.text._fprintf_cdnopsux 0x9d0736fc           0x2c          44   
.text._stub_sbd_memlayo 0x9d073728           0x2c          44   
.text.DRV_EXTPHY_SMIAdd 0x9d073754           0x28          40   
.text.NVM_ExistsMemoryM 0x9d07377c           0x28          40   
.rodata                 0x9d0737a4           0x28          40  Read-only const 
.text.OSC_ExistsOnWaitA 0x9d0737cc           0x28          40   
.text.OSC_ExistsSeconda 0x9d0737f4           0x28          40   
.text.OSC_ExistsReferen 0x9d07381c           0x28          40   
.text.TCPIP_DHCPS_Disab 0x9d073844           0x28          40   
.text.TCPIP_DHCPS_Enabl 0x9d07386c           0x28          40   
.text.TCPIP_DHCPS_IsEna 0x9d073894           0x28          40   
.text.TCPIP_STACK_Numbe 0x9d0738bc           0x28          40   
.text.TCPIP_STACK_Stack 0x9d0738e4           0x28          40   
.text.TCPIP_ZCLL_Enable 0x9d07390c           0x28          40   
.text.TCPIP_ZCLL_Disabl 0x9d073934           0x28          40   
.text.TCPIP_ZCLL_IsEnab 0x9d07395c           0x28          40   
.text.strchr            0x9d073984           0x28          40   
.text._snprintf_cdnopsu 0x9d0739ac           0x28          40   
.text.PLIB_INT_Enable_p 0x9d0739d4           0x24          36   
.text.PLIB_INT_Disable_ 0x9d0739f8           0x24          36   
.text.SYS_CLK_Reference 0x9d073a1c           0x24          36   
.text.HTTPPrint_ddns_us 0x9d073a40           0x24          36   
.text.HTTPPrint_ddns_pa 0x9d073a64           0x24          36   
.text.HTTPPrint_ddns_ho 0x9d073a88           0x24          36   
.text.TCPIP_SMTP_Client 0x9d073aac           0x24          36   
.text.TCPIP_SNMP_TrapTi 0x9d073ad0           0x24          36   
.text.TCPIP_STACK_NetDe 0x9d073af4           0x24          36   
.text.TCPIP_PKT_Deiniti 0x9d073b18           0x24          36   
.rodata                 0x9d073b3c           0x54          84  Read-only const 
.text                   0x9d073b90           0x18          24  App's exec code 
.text.abort             0x9d073ba8           0x18          24   
.rodata                 0x9d073bc0           0x20          32  Read-only const 
.text._bootstrap_except 0x9d073be0            0x8           8   
.text._on_reset         0x9d073be8            0x8           8   
.text._on_bootstrap     0x9d073bf0            0x8           8   
.text._cleanup          0x9d073bf8            0x8           8   
.rodata                 0x9d073c00            0xc          12  Read-only const 
      Total kseg0_program_mem used  :     0x73c0c      474124  90.4% of 0x80000

kseg0 Boot-Memory Usage
section                    address  length [bytes]      (dec)  Description
-------                 ----------  -------------------------  -----------
         Total kseg0_boot_mem used  :           0           0  <1% of 0x970

Exception-Memory Usage 
section                    address  length [bytes]      (dec)  Description
-------                 ----------  -------------------------  -----------
.app_excpt              0x9fc01180           0x10          16  General-Exception 
.vector_0               0x9fc01200            0xc          12  Interrupt Vector 0 
.vector_1               0x9fc01220            0x8           8  Interrupt Vector 1 
.vector_2               0x9fc01240            0x8           8  Interrupt Vector 2 
.vector_3               0x9fc01260            0x8           8  Interrupt Vector 3 
.vector_4               0x9fc01280            0x8           8  Interrupt Vector 4 
.vector_5               0x9fc012a0            0x8           8  Interrupt Vector 5 
.vector_6               0x9fc012c0            0x8           8  Interrupt Vector 6 
.vector_7               0x9fc012e0            0x8           8  Interrupt Vector 7 
.vector_8               0x9fc01300            0x8           8  Interrupt Vector 8 
.vector_9               0x9fc01320            0x8           8  Interrupt Vector 9 
.vector_10              0x9fc01340            0x8           8  Interrupt Vector 10 
.vector_11              0x9fc01360            0x8           8  Interrupt Vector 11 
.vector_12              0x9fc01380            0x8           8  Interrupt Vector 12 
.vector_13              0x9fc013a0            0x8           8  Interrupt Vector 13 
.vector_14              0x9fc013c0            0x8           8  Interrupt Vector 14 
.vector_15              0x9fc013e0            0x8           8  Interrupt Vector 15 
.vector_16              0x9fc01400            0x8           8  Interrupt Vector 16 
.vector_17              0x9fc01420            0x8           8  Interrupt Vector 17 
.vector_18              0x9fc01440            0x8           8  Interrupt Vector 18 
.vector_19              0x9fc01460            0x8           8  Interrupt Vector 19 
.vector_20              0x9fc01480            0x8           8  Interrupt Vector 20 
.vector_21              0x9fc014a0            0x8           8  Interrupt Vector 21 
.vector_22              0x9fc014c0            0x8           8  Interrupt Vector 22 
.vector_23              0x9fc014e0            0x8           8  Interrupt Vector 23 
.vector_24              0x9fc01500            0x8           8  Interrupt Vector 24 
.vector_25              0x9fc01520            0x8           8  Interrupt Vector 25 
.vector_26              0x9fc01540            0x8           8  Interrupt Vector 26 
.vector_27              0x9fc01560            0x8           8  Interrupt Vector 27 
.vector_28              0x9fc01580            0x8           8  Interrupt Vector 28 
.vector_29              0x9fc015a0            0x8           8  Interrupt Vector 29 
.vector_30              0x9fc015c0            0x8           8  Interrupt Vector 30 
.vector_31              0x9fc015e0            0x8           8  Interrupt Vector 31 
.vector_32              0x9fc01600            0x8           8  Interrupt Vector 32 
.vector_33              0x9fc01620            0x8           8  Interrupt Vector 33 
.vector_34              0x9fc01640            0x8           8  Interrupt Vector 34 
.vector_35              0x9fc01660            0x8           8  Interrupt Vector 35 
.vector_36              0x9fc01680            0x8           8  Interrupt Vector 36 
.vector_37              0x9fc016a0            0x8           8  Interrupt Vector 37 
.vector_38              0x9fc016c0            0x8           8  Interrupt Vector 38 
.vector_39              0x9fc016e0            0x8           8  Interrupt Vector 39 
.vector_40              0x9fc01700            0x8           8  Interrupt Vector 40 
.vector_41              0x9fc01720            0x8           8  Interrupt Vector 41 
.vector_42              0x9fc01740            0x8           8  Interrupt Vector 42 
.vector_43              0x9fc01760            0x8           8  Interrupt Vector 43 
.vector_44              0x9fc01780            0x8           8  Interrupt Vector 44 
.vector_45              0x9fc017a0            0x8           8  Interrupt Vector 45 
.vector_46              0x9fc017c0            0x8           8  Interrupt Vector 46 
.vector_47              0x9fc017e0            0x8           8  Interrupt Vector 47 
.vector_48              0x9fc01800            0x8           8  Interrupt Vector 48 
.vector_49              0x9fc01820            0x8           8  Interrupt Vector 49 
.vector_50              0x9fc01840            0x8           8  Interrupt Vector 50 
.vector_51              0x9fc01860            0x8           8  Interrupt Vector 51 
.vector_52              0x9fc01880            0x8           8  Interrupt Vector 52 
.vector_53              0x9fc018a0            0x8           8  Interrupt Vector 53 
.vector_54              0x9fc018c0            0x8           8  Interrupt Vector 54 
.vector_55              0x9fc018e0            0x8           8  Interrupt Vector 55 
.vector_56              0x9fc01900            0x8           8  Interrupt Vector 56 
.vector_57              0x9fc01920            0x8           8  Interrupt Vector 57 
.vector_58              0x9fc01940            0x8           8  Interrupt Vector 58 
.vector_59              0x9fc01960            0x8           8  Interrupt Vector 59 
.vector_60              0x9fc01980            0x8           8  Interrupt Vector 60 
.vector_61              0x9fc019a0            0x8           8  Interrupt Vector 61 
.vector_62              0x9fc019c0            0x8           8  Interrupt Vector 62 
.vector_63              0x9fc019e0            0x8           8  Interrupt Vector 63 
          Total exception_mem used  :       0x214         532  13.0% of 0x1000

kseg1 Boot-Memory Usage
section                    address  length [bytes]      (dec)  Description
-------                 ----------  -------------------------  -----------
.reset                  0xbfc00000          0x1c4         452  Reset handler 
.bev_excpt              0xbfc00380           0x10          16  BEV-Exception 
         Total kseg1_boot_mem used  :       0x1d4         468  40.1% of 0x490
        --------------------------------------------------------------------------
         Total Program Memory used  :     0x73ff4      475124  89.3% of 0x81e00
        --------------------------------------------------------------------------


kseg1 Data-Memory Usage
section                    address  length [bytes]      (dec)  Description
-------                 ----------  -------------------------  -----------
.eh_frame               0xa0000000           0x30          48   
.sdata                  0xa0000030           0x50          80  Small init data 
.sbss                   0xa0000080          0x2f0         752  Small uninit data 
.bss                    0xa0000370         0x6de4       28132  Uninitialized data 
.bss                    0xa0007154          0x358         856  Uninitialized data 
.data                   0xa00074ac          0x22c         556  Initialized data 
.bss                    0xa00076d8          0x220         544  Uninitialized data 
.data                   0xa00078f8          0x200         512  Initialized data 
.bss                    0xa0007af8          0x350         848  Uninitialized data 
.data                   0xa0007e48          0x134         308  Initialized data 
.bss                    0xa0007f7c           0xf0         240  Uninitialized data 
.data                   0xa000806c           0xc0         192  Initialized data 
.bss                    0xa000812c           0x7c         124  Uninitialized data 
.data                   0xa00081a8           0x30          48  Initialized data 
.bss                    0xa00081d8           0x2c          44  Uninitialized data 
.data                   0xa0008204           0x38          56  Initialized data 
.bss                    0xa000823c           0x34          52  Uninitialized data 
.data                   0xa0008270           0x18          24  Initialized data 
.bss                    0xa0008288           0x74         116  Uninitialized data 
.bss                    0xa00082fc            0x4           4  Uninitialized data 
.bss                    0xa0008300           0x34          52  Uninitialized data 
         Total kseg1_data_mem used  :      0x8334       33588  25.6% of 0x20000
        --------------------------------------------------------------------------
            Total Data Memory used  :      0x8334       33588  25.6% of 0x20000
        --------------------------------------------------------------------------


Dynamic Data-Memory Reservation
section                    address  length [bytes]      (dec)  Description
-------                 ----------  -------------------------  -----------
heap                    0xa0008338         0xafa0       44960  Reserved for heap 
stack                   0xa00132f0         0xcd00       52480  Reserved for stack 

        --------------------------------------------------------------------------

Discarded input sections

 .data          0x00000000        0x0 c:/program files/microchip/xc32/v1.30-tc9/bin/../lib/gcc/pic32mx/4.5.2/../../../../pic32mx/lib/./proc/32MX795F512L/crt0_mips32r2.o
 .bss           0x00000000        0x0 c:/program files/microchip/xc32/v1.30-tc9/bin/../lib/gcc/pic32mx/4.5.2/../../../../pic32mx/lib/./proc/32MX795F512L/crt0_mips32r2.o
 .text          0x00000000        0x0 build/pic32mx_eth_sk_int_dyn/production/_ext/1951764757/system_init.o
 .data          0x00000000        0x0 build/pic32mx_eth_sk_int_dyn/production/_ext/1951764757/system_init.o
 .bss           0x00000000        0x0 build/pic32mx_eth_sk_int_dyn/production/_ext/1951764757/system_init.o
 .reginfo       0x00000000       0x18 build/pic32mx_eth_sk_int_dyn/production/_ext/1951764757/system_init.o
 .text          0x00000000        0x0 build/pic32mx_eth_sk_int_dyn/production/_ext/1951764757/system_init_private.o
 .data          0x00000000        0x0 build/pic32mx_eth_sk_int_dyn/production/_ext/1951764757/system_init_private.o
 .bss           0x00000000        0x0 build/pic32mx_eth_sk_int_dyn/production/_ext/1951764757/system_init_private.o
 .reginfo       0x00000000       0x18 build/pic32mx_eth_sk_int_dyn/production/_ext/1951764757/system_init_private.o
 .text          0x00000000        0x0 build/pic32mx_eth_sk_int_dyn/production/_ext/1951764757/system_int.o
 .data          0x00000000        0x0 build/pic32mx_eth_sk_int_dyn/production/_ext/1951764757/system_int.o
 .bss           0x00000000        0x0 build/pic32mx_eth_sk_int_dyn/production/_ext/1951764757/system_int.o
 .reginfo       0x00000000       0x18 build/pic32mx_eth_sk_int_dyn/production/_ext/1951764757/system_int.o
 .text._INT_INT_ENABLE_CONTROL_0_VREG
                0x00000000       0x44 build/pic32mx_eth_sk_int_dyn/production/_ext/1951764757/system_int.o
 .text.INT_SourceEnable_Default
                0x00000000       0x70 build/pic32mx_eth_sk_int_dyn/production/_ext/1951764757/system_int.o
 .text.PLIB_INT_SourceEnable
                0x00000000       0x5c build/pic32mx_eth_sk_int_dyn/production/_ext/1951764757/system_int.o
 .text.SYS_INT_SourceRestore
                0x00000000       0x5c build/pic32mx_eth_sk_int_dyn/production/_ext/1951764757/system_int.o
 .text          0x00000000        0x0 build/pic32mx_eth_sk_int_dyn/production/_ext/1951764757/system_tasks.o
 .data          0x00000000        0x0 build/pic32mx_eth_sk_int_dyn/production/_ext/1951764757/system_tasks.o
 .bss           0x00000000        0x0 build/pic32mx_eth_sk_int_dyn/production/_ext/1951764757/system_tasks.o
 .reginfo       0x00000000       0x18 build/pic32mx_eth_sk_int_dyn/production/_ext/1951764757/system_tasks.o
 .text          0x00000000        0x0 build/pic32mx_eth_sk_int_dyn/production/_ext/1360937237/app.o
 .data          0x00000000        0x0 build/pic32mx_eth_sk_int_dyn/production/_ext/1360937237/app.o
 .bss           0x00000000        0x0 build/pic32mx_eth_sk_int_dyn/production/_ext/1360937237/app.o
 .reginfo       0x00000000       0x18 build/pic32mx_eth_sk_int_dyn/production/_ext/1360937237/app.o
 .text          0x00000000        0x0 build/pic32mx_eth_sk_int_dyn/production/_ext/1951764757/bsp_sys_init.o
 .data          0x00000000        0x0 build/pic32mx_eth_sk_int_dyn/production/_ext/1951764757/bsp_sys_init.o
 .bss           0x00000000        0x0 build/pic32mx_eth_sk_int_dyn/production/_ext/1951764757/bsp_sys_init.o
 .reginfo       0x00000000       0x18 build/pic32mx_eth_sk_int_dyn/production/_ext/1951764757/bsp_sys_init.o
 .text          0x00000000        0x0 build/pic32mx_eth_sk_int_dyn/production/_ext/377798159/config_performance.o
 .data          0x00000000        0x0 build/pic32mx_eth_sk_int_dyn/production/_ext/377798159/config_performance.o
 .bss           0x00000000        0x0 build/pic32mx_eth_sk_int_dyn/production/_ext/377798159/config_performance.o
 .reginfo       0x00000000       0x18 build/pic32mx_eth_sk_int_dyn/production/_ext/377798159/config_performance.o
 .text          0x00000000        0x0 build/pic32mx_eth_sk_int_dyn/production/_ext/1697634946/drv_ethmac.o
 .bss           0x00000000        0x0 build/pic32mx_eth_sk_int_dyn/production/_ext/1697634946/drv_ethmac.o
 .reginfo       0x00000000       0x18 build/pic32mx_eth_sk_int_dyn/production/_ext/1697634946/drv_ethmac.o
 .text          0x00000000        0x0 build/pic32mx_eth_sk_int_dyn/production/_ext/1697634946/drv_ethmac_lib.o
 .data          0x00000000        0x0 build/pic32mx_eth_sk_int_dyn/production/_ext/1697634946/drv_ethmac_lib.o
 .bss           0x00000000        0x0 build/pic32mx_eth_sk_int_dyn/production/_ext/1697634946/drv_ethmac_lib.o
 .reginfo       0x00000000       0x18 build/pic32mx_eth_sk_int_dyn/production/_ext/1697634946/drv_ethmac_lib.o
 .text.DRV_ETHMAC_LibDescriptorsPoolRemove
                0x00000000      0x15c build/pic32mx_eth_sk_int_dyn/production/_ext/1697634946/drv_ethmac_lib.o
 .text.DRV_ETHMAC_LibTxSendBuffer
                0x00000000      0x1d4 build/pic32mx_eth_sk_int_dyn/production/_ext/1697634946/drv_ethmac_lib.o
 .text.DRV_ETHMAC_LibTxGetBufferStatus
                0x00000000       0xc8 build/pic32mx_eth_sk_int_dyn/production/_ext/1697634946/drv_ethmac_lib.o
 .text._EnetFindPacket
                0x00000000       0x9c build/pic32mx_eth_sk_int_dyn/production/_ext/1697634946/drv_ethmac_lib.o
 .text.DRV_ETHMAC_LibRxGetBuffer
                0x00000000       0x6c build/pic32mx_eth_sk_int_dyn/production/_ext/1697634946/drv_ethmac_lib.o
 .text          0x00000000        0x0 build/pic32mx_eth_sk_int_dyn/production/_ext/521481140/drv_ethphy.o
 .data          0x00000000        0x0 build/pic32mx_eth_sk_int_dyn/production/_ext/521481140/drv_ethphy.o
 .bss           0x00000000        0x0 build/pic32mx_eth_sk_int_dyn/production/_ext/521481140/drv_ethphy.o
 .reginfo       0x00000000       0x18 build/pic32mx_eth_sk_int_dyn/production/_ext/521481140/drv_ethphy.o
 .text._ETH_MIIM_SCAN_MODE_VREG
                0x00000000       0x44 build/pic32mx_eth_sk_int_dyn/production/_ext/521481140/drv_ethphy.o
 .text._ETH_DATA_NOT_VALID_VREG
                0x00000000       0x44 build/pic32mx_eth_sk_int_dyn/production/_ext/521481140/drv_ethphy.o
 .text._ETH_MIIM_SCAN_MODE_POS
                0x00000000       0x40 build/pic32mx_eth_sk_int_dyn/production/_ext/521481140/drv_ethphy.o
 .text._ETH_DATA_NOT_VALID_POS
                0x00000000       0x40 build/pic32mx_eth_sk_int_dyn/production/_ext/521481140/drv_ethphy.o
 .text.ETH_MIIMScanModeEnable_Default
                0x00000000       0x5c build/pic32mx_eth_sk_int_dyn/production/_ext/521481140/drv_ethphy.o
 .text.ETH_MIIMScanModeDisable_Default
                0x00000000       0x5c build/pic32mx_eth_sk_int_dyn/production/_ext/521481140/drv_ethphy.o
 .text.ETH_DataNotValid_Default
                0x00000000       0x74 build/pic32mx_eth_sk_int_dyn/production/_ext/521481140/drv_ethphy.o
 .text.PLIB_ETH_MIIMScanModeEnable
                0x00000000       0x54 build/pic32mx_eth_sk_int_dyn/production/_ext/521481140/drv_ethphy.o
 .text.PLIB_ETH_MIIMScanModeDisable
                0x00000000       0x54 build/pic32mx_eth_sk_int_dyn/production/_ext/521481140/drv_ethphy.o
 .text.PLIB_ETH_DataNotValid
                0x00000000       0x50 build/pic32mx_eth_sk_int_dyn/production/_ext/521481140/drv_ethphy.o
 .text.DRV_ETHPHY_Reinitialize
                0x00000000       0xcc build/pic32mx_eth_sk_int_dyn/production/_ext/521481140/drv_ethphy.o
 .text.DRV_ETHPHY_Status
                0x00000000       0x64 build/pic32mx_eth_sk_int_dyn/production/_ext/521481140/drv_ethphy.o
 .text.DRV_ETHPHY_Tasks
                0x00000000       0x5c build/pic32mx_eth_sk_int_dyn/production/_ext/521481140/drv_ethphy.o
 .text.DRV_ETHPHY_ClientStatus
                0x00000000       0x64 build/pic32mx_eth_sk_int_dyn/production/_ext/521481140/drv_ethphy.o
 .text.DRV_ETHPHY_SMIisBusy
                0x00000000       0x74 build/pic32mx_eth_sk_int_dyn/production/_ext/521481140/drv_ethphy.o
 .text.DRV_ETHPHY_SMIScanStart
                0x00000000       0xc4 build/pic32mx_eth_sk_int_dyn/production/_ext/521481140/drv_ethphy.o
 .text.DRV_ETHPHY_SMIScanStop
                0x00000000       0x74 build/pic32mx_eth_sk_int_dyn/production/_ext/521481140/drv_ethphy.o
 .text.DRV_ETHPHY_SMIScanStatusGet
                0x00000000       0x8c build/pic32mx_eth_sk_int_dyn/production/_ext/521481140/drv_ethphy.o
 .text.DRV_ETHPHY_SMIScanDataGet
                0x00000000       0x8c build/pic32mx_eth_sk_int_dyn/production/_ext/521481140/drv_ethphy.o
 .text.DRV_ETHPHY_LinkScanStart
                0x00000000       0x44 build/pic32mx_eth_sk_int_dyn/production/_ext/521481140/drv_ethphy.o
 .text.DRV_ETHPHY_LinkScanStop
                0x00000000       0x38 build/pic32mx_eth_sk_int_dyn/production/_ext/521481140/drv_ethphy.o
 .text.DRV_ETHPHY_LinkScanRead
                0x00000000       0x48 build/pic32mx_eth_sk_int_dyn/production/_ext/521481140/drv_ethphy.o
 .text.DRV_ETHPHY_VersionGet
                0x00000000       0x2c build/pic32mx_eth_sk_int_dyn/production/_ext/521481140/drv_ethphy.o
 .text.DRV_ETHPHY_VersionStrGet
                0x00000000       0x30 build/pic32mx_eth_sk_int_dyn/production/_ext/521481140/drv_ethphy.o
 .text          0x00000000        0x0 build/pic32mx_eth_sk_int_dyn/production/_ext/521481140/drv_extphy_dp83848.o
 .data          0x00000000        0x0 build/pic32mx_eth_sk_int_dyn/production/_ext/521481140/drv_extphy_dp83848.o
 .bss           0x00000000        0x0 build/pic32mx_eth_sk_int_dyn/production/_ext/521481140/drv_extphy_dp83848.o
 .reginfo       0x00000000       0x18 build/pic32mx_eth_sk_int_dyn/production/_ext/521481140/drv_extphy_dp83848.o
 .text          0x00000000        0x0 build/pic32mx_eth_sk_int_dyn/production/_ext/184581597/drv_nvm.o
 .data          0x00000000        0x0 build/pic32mx_eth_sk_int_dyn/production/_ext/184581597/drv_nvm.o
 .bss           0x00000000        0x0 build/pic32mx_eth_sk_int_dyn/production/_ext/184581597/drv_nvm.o
 .reginfo       0x00000000       0x18 build/pic32mx_eth_sk_int_dyn/production/_ext/184581597/drv_nvm.o
 .text.INT_SourceFlagGet_Default
                0x00000000       0x84 build/pic32mx_eth_sk_int_dyn/production/_ext/184581597/drv_nvm.o
 .text.PLIB_INT_SourceFlagGet
                0x00000000       0x58 build/pic32mx_eth_sk_int_dyn/production/_ext/184581597/drv_nvm.o
 .text.DRV_NVM_Close
                0x00000000       0x74 build/pic32mx_eth_sk_int_dyn/production/_ext/184581597/drv_nvm.o
 .text.DRV_NVM_Tasks
                0x00000000      0x2b4 build/pic32mx_eth_sk_int_dyn/production/_ext/184581597/drv_nvm.o
 .text          0x00000000        0x0 build/pic32mx_eth_sk_int_dyn/production/_ext/184581597/drv_nvm_media.o
 .data          0x00000000        0x0 build/pic32mx_eth_sk_int_dyn/production/_ext/184581597/drv_nvm_media.o
 .bss           0x00000000        0x0 build/pic32mx_eth_sk_int_dyn/production/_ext/184581597/drv_nvm_media.o
 .reginfo       0x00000000       0x18 build/pic32mx_eth_sk_int_dyn/production/_ext/184581597/drv_nvm_media.o
 .text          0x00000000        0x0 build/pic32mx_eth_sk_int_dyn/production/_ext/2138650627/db_appio.o
 .data          0x00000000        0x0 build/pic32mx_eth_sk_int_dyn/production/_ext/2138650627/db_appio.o
 .bss           0x00000000        0x0 build/pic32mx_eth_sk_int_dyn/production/_ext/2138650627/db_appio.o
 .reginfo       0x00000000       0x18 build/pic32mx_eth_sk_int_dyn/production/_ext/2138650627/db_appio.o
 .text          0x00000000        0x0 build/pic32mx_eth_sk_int_dyn/production/_ext/2138650627/usart.o
 .bss           0x00000000        0x0 build/pic32mx_eth_sk_int_dyn/production/_ext/2138650627/usart.o
 .reginfo       0x00000000       0x18 build/pic32mx_eth_sk_int_dyn/production/_ext/2138650627/usart.o
 .text          0x00000000        0x0 build/pic32mx_eth_sk_int_dyn/production/_ext/1104573755/plib_eth_legacy.o
 .data          0x00000000        0x0 build/pic32mx_eth_sk_int_dyn/production/_ext/1104573755/plib_eth_legacy.o
 .bss           0x00000000        0x0 build/pic32mx_eth_sk_int_dyn/production/_ext/1104573755/plib_eth_legacy.o
 .reginfo       0x00000000       0x18 build/pic32mx_eth_sk_int_dyn/production/_ext/1104573755/plib_eth_legacy.o
 .text._ETH_PATTERN_MATCH_LOWER_VREG
                0x00000000       0x44 build/pic32mx_eth_sk_int_dyn/production/_ext/1104573755/plib_eth_legacy.o
 .text._ETH_PATTERN_MATCH_UPPER_VREG
                0x00000000       0x44 build/pic32mx_eth_sk_int_dyn/production/_ext/1104573755/plib_eth_legacy.o
 .text._ETH_PATTERN_MATCH_CHECKSUM_VREG
                0x00000000       0x44 build/pic32mx_eth_sk_int_dyn/production/_ext/1104573755/plib_eth_legacy.o
 .text._ETH_PATTERN_MATCH_OFFSET_VREG
                0x00000000       0x44 build/pic32mx_eth_sk_int_dyn/production/_ext/1104573755/plib_eth_legacy.o
 .text._ETH_PATTERN_MATCH_MODE_VREG
                0x00000000       0x44 build/pic32mx_eth_sk_int_dyn/production/_ext/1104573755/plib_eth_legacy.o
 .text._ETH_RX_FIFO_OVERFLOW_ENABLE_VREG
                0x00000000       0x44 build/pic32mx_eth_sk_int_dyn/production/_ext/1104573755/plib_eth_legacy.o
 .text._ETH_RX_FIFO_OVERFLOW_INT_VREG
                0x00000000       0x44 build/pic32mx_eth_sk_int_dyn/production/_ext/1104573755/plib_eth_legacy.o
 .text._ETH_PATTERN_MATCH_MODE_MASK
                0x00000000       0x40 build/pic32mx_eth_sk_int_dyn/production/_ext/1104573755/plib_eth_legacy.o
 .text._ETH_PATTERN_MATCH_MODE_POS
                0x00000000       0x40 build/pic32mx_eth_sk_int_dyn/production/_ext/1104573755/plib_eth_legacy.o
 .text.ETH_PatternMatchSet_Default
                0x00000000      0x10c build/pic32mx_eth_sk_int_dyn/production/_ext/1104573755/plib_eth_legacy.o
 .text.ETH_PatternMatchChecksumSet_Default
                0x00000000       0xdc build/pic32mx_eth_sk_int_dyn/production/_ext/1104573755/plib_eth_legacy.o
 .text.ETH_PatternMatchOffsetSet_Default
                0x00000000       0xdc build/pic32mx_eth_sk_int_dyn/production/_ext/1104573755/plib_eth_legacy.o
 .text.ETH_PatternMatchModeSet_Default
                0x00000000      0x110 build/pic32mx_eth_sk_int_dyn/production/_ext/1104573755/plib_eth_legacy.o
 .text.ETH_InterruptSourceEnable_Default
                0x00000000       0x48 build/pic32mx_eth_sk_int_dyn/production/_ext/1104573755/plib_eth_legacy.o
 .text.ETH_InterruptSourceDisable_Default
                0x00000000       0x48 build/pic32mx_eth_sk_int_dyn/production/_ext/1104573755/plib_eth_legacy.o
 .text.ETH_InterruptSourcesGet_Default
                0x00000000       0x3c build/pic32mx_eth_sk_int_dyn/production/_ext/1104573755/plib_eth_legacy.o
 .text.ETH_InterruptClear_Default
                0x00000000       0x48 build/pic32mx_eth_sk_int_dyn/production/_ext/1104573755/plib_eth_legacy.o
 .text.ETH_InterruptsGet_Default
                0x00000000       0x3c build/pic32mx_eth_sk_int_dyn/production/_ext/1104573755/plib_eth_legacy.o
 .text.ETH_StationAddressGet_Default
                0x00000000      0x1f4 build/pic32mx_eth_sk_int_dyn/production/_ext/1104573755/plib_eth_legacy.o
 .text.PLIB_ETH_PatternMatchSet
                0x00000000       0x64 build/pic32mx_eth_sk_int_dyn/production/_ext/1104573755/plib_eth_legacy.o
 .text.PLIB_ETH_PatternMatchChecksumSet
                0x00000000       0x64 build/pic32mx_eth_sk_int_dyn/production/_ext/1104573755/plib_eth_legacy.o
 .text.PLIB_ETH_PatternMatchOffsetSet
                0x00000000       0x64 build/pic32mx_eth_sk_int_dyn/production/_ext/1104573755/plib_eth_legacy.o
 .text.PLIB_ETH_PatternMatchModeSet
                0x00000000       0x5c build/pic32mx_eth_sk_int_dyn/production/_ext/1104573755/plib_eth_legacy.o
 .text.PLIB_ETH_InterruptSourceEnable
                0x00000000       0x5c build/pic32mx_eth_sk_int_dyn/production/_ext/1104573755/plib_eth_legacy.o
 .text.PLIB_ETH_InterruptSourceDisable
                0x00000000       0x5c build/pic32mx_eth_sk_int_dyn/production/_ext/1104573755/plib_eth_legacy.o
 .text.PLIB_ETH_InterruptSourcesGet
                0x00000000       0x50 build/pic32mx_eth_sk_int_dyn/production/_ext/1104573755/plib_eth_legacy.o
 .text.PLIB_ETH_InterruptClear
                0x00000000       0x5c build/pic32mx_eth_sk_int_dyn/production/_ext/1104573755/plib_eth_legacy.o
 .text.PLIB_ETH_InterruptsGet
                0x00000000       0x50 build/pic32mx_eth_sk_int_dyn/production/_ext/1104573755/plib_eth_legacy.o
 .text.PLIB_ETH_StationAddressGet
                0x00000000       0x60 build/pic32mx_eth_sk_int_dyn/production/_ext/1104573755/plib_eth_legacy.o
 .text.PLIB_ETH_MACGetAddress
                0x00000000      0x114 build/pic32mx_eth_sk_int_dyn/production/_ext/1104573755/plib_eth_legacy.o
 .text.PLIB_ETH_RxFiltersWrite
                0x00000000       0x58 build/pic32mx_eth_sk_int_dyn/production/_ext/1104573755/plib_eth_legacy.o
 .text.PLIB_ETH_RxFiltersPMSet
                0x00000000       0xd8 build/pic32mx_eth_sk_int_dyn/production/_ext/1104573755/plib_eth_legacy.o
 .text.PLIB_ETH_RxFiltersPMClr
                0x00000000       0x3c build/pic32mx_eth_sk_int_dyn/production/_ext/1104573755/plib_eth_legacy.o
 .text.PLIB_ETH_EventsEnableSet
                0x00000000       0x40 build/pic32mx_eth_sk_int_dyn/production/_ext/1104573755/plib_eth_legacy.o
 .text.PLIB_ETH_EventsEnableClr
                0x00000000       0x40 build/pic32mx_eth_sk_int_dyn/production/_ext/1104573755/plib_eth_legacy.o
 .text.PLIB_ETH_EventsEnableWrite
                0x00000000       0x58 build/pic32mx_eth_sk_int_dyn/production/_ext/1104573755/plib_eth_legacy.o
 .text.PLIB_ETH_EventsEnableGet
                0x00000000       0x38 build/pic32mx_eth_sk_int_dyn/production/_ext/1104573755/plib_eth_legacy.o
 .text.PLIB_ETH_EventsClr
                0x00000000       0x40 build/pic32mx_eth_sk_int_dyn/production/_ext/1104573755/plib_eth_legacy.o
 .text.PLIB_ETH_EventsGet
                0x00000000       0x38 build/pic32mx_eth_sk_int_dyn/production/_ext/1104573755/plib_eth_legacy.o
 .text          0x00000000        0x0 build/pic32mx_eth_sk_int_dyn/production/_ext/198928529/plib_int_pic32.o
 .data          0x00000000        0x0 build/pic32mx_eth_sk_int_dyn/production/_ext/198928529/plib_int_pic32.o
 .bss           0x00000000        0x0 build/pic32mx_eth_sk_int_dyn/production/_ext/198928529/plib_int_pic32.o
 .reginfo       0x00000000       0x18 build/pic32mx_eth_sk_int_dyn/production/_ext/198928529/plib_int_pic32.o
 .text          0x00000000        0x0 build/pic32mx_eth_sk_int_dyn/production/_ext/52938249/sys_clk_pic32.o
 .bss           0x00000000        0x0 build/pic32mx_eth_sk_int_dyn/production/_ext/52938249/sys_clk_pic32.o
 .reginfo       0x00000000       0x18 build/pic32mx_eth_sk_int_dyn/production/_ext/52938249/sys_clk_pic32.o
 .text          0x00000000        0x0 build/pic32mx_eth_sk_int_dyn/production/_ext/52938249/sys_clk.o
 .data          0x00000000        0x0 build/pic32mx_eth_sk_int_dyn/production/_ext/52938249/sys_clk.o
 .bss           0x00000000        0x0 build/pic32mx_eth_sk_int_dyn/production/_ext/52938249/sys_clk.o
 .reginfo       0x00000000       0x18 build/pic32mx_eth_sk_int_dyn/production/_ext/52938249/sys_clk.o
 .text._OSC_OSC_CLOCK_FAIL_VREG
                0x00000000       0x44 build/pic32mx_eth_sk_int_dyn/production/_ext/52938249/sys_clk.o
 .text._OSC_OSC_LOCK_STATUS_SYS_VREG
                0x00000000       0x44 build/pic32mx_eth_sk_int_dyn/production/_ext/52938249/sys_clk.o
 .text._OSC_OSC_LOCK_STATUS_USB_VREG
                0x00000000       0x44 build/pic32mx_eth_sk_int_dyn/production/_ext/52938249/sys_clk.o
 .text._OSC_OSC_CURRENT_GET_VREG
                0x00000000       0x44 build/pic32mx_eth_sk_int_dyn/production/_ext/52938249/sys_clk.o
 .text._OSC_OSC_FRC_TUNING_VREG
                0x00000000       0x44 build/pic32mx_eth_sk_int_dyn/production/_ext/52938249/sys_clk.o
 .text._OSC_OSC_CURRENT_GET_MASK
                0x00000000       0x40 build/pic32mx_eth_sk_int_dyn/production/_ext/52938249/sys_clk.o
 .text._OSC_OSC_FRC_TUNING_MASK
                0x00000000       0x40 build/pic32mx_eth_sk_int_dyn/production/_ext/52938249/sys_clk.o
 .text._OSC_OSC_CLOCK_FAIL_POS
                0x00000000       0x40 build/pic32mx_eth_sk_int_dyn/production/_ext/52938249/sys_clk.o
 .text._OSC_OSC_LOCK_STATUS_SYS_POS
                0x00000000       0x40 build/pic32mx_eth_sk_int_dyn/production/_ext/52938249/sys_clk.o
 .text._OSC_OSC_LOCK_STATUS_USB_POS
                0x00000000       0x40 build/pic32mx_eth_sk_int_dyn/production/_ext/52938249/sys_clk.o
 .text._OSC_OSC_CURRENT_GET_POS
                0x00000000       0x40 build/pic32mx_eth_sk_int_dyn/production/_ext/52938249/sys_clk.o
 .text._OSC_OSC_FRC_TUNING_POS
                0x00000000       0x40 build/pic32mx_eth_sk_int_dyn/production/_ext/52938249/sys_clk.o
 .text.OSC_CurrentSysClockGet_Default
                0x00000000       0x64 build/pic32mx_eth_sk_int_dyn/production/_ext/52938249/sys_clk.o
 .text.OSC_PLLIsLocked_Default
                0x00000000       0xb0 build/pic32mx_eth_sk_int_dyn/production/_ext/52938249/sys_clk.o
 .text.OSC_ExistsClockFail_Default
                0x00000000       0x28 build/pic32mx_eth_sk_int_dyn/production/_ext/52938249/sys_clk.o
 .text.OSC_ClockHasFailed_Default
                0x00000000       0x64 build/pic32mx_eth_sk_int_dyn/production/_ext/52938249/sys_clk.o
 .text.OSC_FRCTuningSelect_Default
                0x00000000       0xb4 build/pic32mx_eth_sk_int_dyn/production/_ext/52938249/sys_clk.o
 .text.PLIB_OSC_CurrentSysClockGet
                0x00000000       0x50 build/pic32mx_eth_sk_int_dyn/production/_ext/52938249/sys_clk.o
 .text.PLIB_OSC_PLLIsLocked
                0x00000000       0x58 build/pic32mx_eth_sk_int_dyn/production/_ext/52938249/sys_clk.o
 .text.PLIB_OSC_ExistsClockFail
                0x00000000       0x50 build/pic32mx_eth_sk_int_dyn/production/_ext/52938249/sys_clk.o
 .text.PLIB_OSC_ClockHasFailed
                0x00000000       0x50 build/pic32mx_eth_sk_int_dyn/production/_ext/52938249/sys_clk.o
 .text.PLIB_OSC_FRCTuningSelect
                0x00000000       0x60 build/pic32mx_eth_sk_int_dyn/production/_ext/52938249/sys_clk.o
 .text.SYS_CLK_ClockIsReady
                0x00000000       0xf8 build/pic32mx_eth_sk_int_dyn/production/_ext/52938249/sys_clk.o
 .text.SYS_CLK_ClockFrequencyGet
                0x00000000       0xb0 build/pic32mx_eth_sk_int_dyn/production/_ext/52938249/sys_clk.o
 .text.SYS_CLK_MZPeriphBusFreqGet
                0x00000000      0x108 build/pic32mx_eth_sk_int_dyn/production/_ext/52938249/sys_clk.o
 .text.SYS_CLK_ClockFrequencySet
                0x00000000       0xd4 build/pic32mx_eth_sk_int_dyn/production/_ext/52938249/sys_clk.o
 .text.SYS_CLK_FRCTune
                0x00000000       0x3c build/pic32mx_eth_sk_int_dyn/production/_ext/52938249/sys_clk.o
 .text          0x00000000        0x0 build/pic32mx_eth_sk_int_dyn/production/_ext/1750042194/sys_fs.o
 .data          0x00000000        0x0 build/pic32mx_eth_sk_int_dyn/production/_ext/1750042194/sys_fs.o
 .bss           0x00000000        0x0 build/pic32mx_eth_sk_int_dyn/production/_ext/1750042194/sys_fs.o
 .reginfo       0x00000000       0x18 build/pic32mx_eth_sk_int_dyn/production/_ext/1750042194/sys_fs.o
 .text.SYS_FS_Unmount
                0x00000000      0x218 build/pic32mx_eth_sk_int_dyn/production/_ext/1750042194/sys_fs.o
 .text.SYS_FS_FileEOF
                0x00000000       0xe4 build/pic32mx_eth_sk_int_dyn/production/_ext/1750042194/sys_fs.o
 .text.SYS_FS_FileError
                0x00000000       0x24 build/pic32mx_eth_sk_int_dyn/production/_ext/1750042194/sys_fs.o
 .text          0x00000000        0x0 build/pic32mx_eth_sk_int_dyn/production/_ext/1750042194/sys_fs_media_manager.o
 .bss           0x00000000        0x0 build/pic32mx_eth_sk_int_dyn/production/_ext/1750042194/sys_fs_media_manager.o
 .reginfo       0x00000000       0x18 build/pic32mx_eth_sk_int_dyn/production/_ext/1750042194/sys_fs_media_manager.o
 .text.SYS_FS_MEDIA_MANAGER_DeRegister
                0x00000000      0x1bc build/pic32mx_eth_sk_int_dyn/production/_ext/1750042194/sys_fs_media_manager.o
 .text.SYS_FS_MEDIA_MANAGER_SectorRead
                0x00000000       0xdc build/pic32mx_eth_sk_int_dyn/production/_ext/1750042194/sys_fs_media_manager.o
 .text.SYS_FS_MEDIA_MANAGER_SectorWrite
                0x00000000       0xdc build/pic32mx_eth_sk_int_dyn/production/_ext/1750042194/sys_fs_media_manager.o
 .text.SYS_FS_MEDIA_MANAGER_BufferStatusGet
                0x00000000       0xcc build/pic32mx_eth_sk_int_dyn/production/_ext/1750042194/sys_fs_media_manager.o
 .text.disk_read
                0x00000000       0xf8 build/pic32mx_eth_sk_int_dyn/production/_ext/1750042194/sys_fs_media_manager.o
 .text.disk_write
                0x00000000       0xf8 build/pic32mx_eth_sk_int_dyn/production/_ext/1750042194/sys_fs_media_manager.o
 .text          0x00000000        0x0 build/pic32mx_eth_sk_int_dyn/production/_ext/614935175/mpfs.o
 .data          0x00000000        0x0 build/pic32mx_eth_sk_int_dyn/production/_ext/614935175/mpfs.o
 .reginfo       0x00000000       0x18 build/pic32mx_eth_sk_int_dyn/production/_ext/614935175/mpfs.o
 .text.MPFSGetLong
                0x00000000       0x54 build/pic32mx_eth_sk_int_dyn/production/_ext/614935175/mpfs.o
 .text.MPFSGetTimestamp
                0x00000000       0xb0 build/pic32mx_eth_sk_int_dyn/production/_ext/614935175/mpfs.o
 .text.MPFSGetMicrotime
                0x00000000       0xb0 build/pic32mx_eth_sk_int_dyn/production/_ext/614935175/mpfs.o
 .text.MPFSGetFlags
                0x00000000       0xb0 build/pic32mx_eth_sk_int_dyn/production/_ext/614935175/mpfs.o
 .text.MPFSGetBytesRem
                0x00000000       0x90 build/pic32mx_eth_sk_int_dyn/production/_ext/614935175/mpfs.o
 .text.MPFSGetEndAddr
                0x00000000       0xc0 build/pic32mx_eth_sk_int_dyn/production/_ext/614935175/mpfs.o
 .text.MPFSGetFilename
                0x00000000       0xf8 build/pic32mx_eth_sk_int_dyn/production/_ext/614935175/mpfs.o
 .text.MPFSGetID
                0x00000000       0x40 build/pic32mx_eth_sk_int_dyn/production/_ext/614935175/mpfs.o
 .text          0x00000000        0x0 build/pic32mx_eth_sk_int_dyn/production/_ext/1964723635/ff.o
 .data          0x00000000        0x0 build/pic32mx_eth_sk_int_dyn/production/_ext/1964723635/ff.o
 .bss           0x00000000     0xa7a0 build/pic32mx_eth_sk_int_dyn/production/_ext/1964723635/ff.o
 .reginfo       0x00000000       0x18 build/pic32mx_eth_sk_int_dyn/production/_ext/1964723635/ff.o
 .sbss          0x00000000        0x2 build/pic32mx_eth_sk_int_dyn/production/_ext/1964723635/ff.o
 .text.ff_wtoupper
                0x00000000       0x60 build/pic32mx_eth_sk_int_dyn/production/_ext/1964723635/ff.o
 .rodata        0x00000000       0x50 build/pic32mx_eth_sk_int_dyn/production/_ext/1964723635/ff.o
 .text.mem_cpy  0x00000000       0x8c build/pic32mx_eth_sk_int_dyn/production/_ext/1964723635/ff.o
 .text.mem_set  0x00000000       0x78 build/pic32mx_eth_sk_int_dyn/production/_ext/1964723635/ff.o
 .text.mem_cmp  0x00000000       0xb0 build/pic32mx_eth_sk_int_dyn/production/_ext/1964723635/ff.o
 .text.chk_chr  0x00000000       0x6c build/pic32mx_eth_sk_int_dyn/production/_ext/1964723635/ff.o
 .text.sync_window
                0x00000000      0x140 build/pic32mx_eth_sk_int_dyn/production/_ext/1964723635/ff.o
 .text.move_window
                0x00000000       0xb4 build/pic32mx_eth_sk_int_dyn/production/_ext/1964723635/ff.o
 .text.sync_fs  0x00000000      0x27c build/pic32mx_eth_sk_int_dyn/production/_ext/1964723635/ff.o
 .text.clust2sect
                0x00000000       0x7c build/pic32mx_eth_sk_int_dyn/production/_ext/1964723635/ff.o
 .text.get_fat  0x00000000      0x2c0 build/pic32mx_eth_sk_int_dyn/production/_ext/1964723635/ff.o
 .text.put_fat  0x00000000      0x410 build/pic32mx_eth_sk_int_dyn/production/_ext/1964723635/ff.o
 .text.remove_chain
                0x00000000      0x168 build/pic32mx_eth_sk_int_dyn/production/_ext/1964723635/ff.o
 .text.create_chain
                0x00000000      0x270 build/pic32mx_eth_sk_int_dyn/production/_ext/1964723635/ff.o
 .text.dir_sdi  0x00000000      0x23c build/pic32mx_eth_sk_int_dyn/production/_ext/1964723635/ff.o
 .text.dir_next
                0x00000000      0x370 build/pic32mx_eth_sk_int_dyn/production/_ext/1964723635/ff.o
 .text.dir_alloc
                0x00000000      0x108 build/pic32mx_eth_sk_int_dyn/production/_ext/1964723635/ff.o
 .text.ld_clust
                0x00000000       0xb4 build/pic32mx_eth_sk_int_dyn/production/_ext/1964723635/ff.o
 .text.st_clust
                0x00000000       0x98 build/pic32mx_eth_sk_int_dyn/production/_ext/1964723635/ff.o
 .text.cmp_lfn  0x00000000      0x1b4 build/pic32mx_eth_sk_int_dyn/production/_ext/1964723635/ff.o
 .text.pick_lfn
                0x00000000      0x188 build/pic32mx_eth_sk_int_dyn/production/_ext/1964723635/ff.o
 .text.fit_lfn  0x00000000      0x19c build/pic32mx_eth_sk_int_dyn/production/_ext/1964723635/ff.o
 .text.gen_numname
                0x00000000      0x274 build/pic32mx_eth_sk_int_dyn/production/_ext/1964723635/ff.o
 .text.sum_sfn  0x00000000       0x80 build/pic32mx_eth_sk_int_dyn/production/_ext/1964723635/ff.o
 .text.dir_find
                0x00000000      0x2b4 build/pic32mx_eth_sk_int_dyn/production/_ext/1964723635/ff.o
 .text.dir_read
                0x00000000      0x278 build/pic32mx_eth_sk_int_dyn/production/_ext/1964723635/ff.o
 .text.dir_register
                0x00000000      0x3b4 build/pic32mx_eth_sk_int_dyn/production/_ext/1964723635/ff.o
 .text.dir_remove
                0x00000000      0x13c build/pic32mx_eth_sk_int_dyn/production/_ext/1964723635/ff.o
 .text.create_name
                0x00000000      0x7b8 build/pic32mx_eth_sk_int_dyn/production/_ext/1964723635/ff.o
 .text.get_fileinfo
                0x00000000      0x438 build/pic32mx_eth_sk_int_dyn/production/_ext/1964723635/ff.o
 .text.follow_path
                0x00000000      0x1c8 build/pic32mx_eth_sk_int_dyn/production/_ext/1964723635/ff.o
 .text.check_fs
                0x00000000      0x188 build/pic32mx_eth_sk_int_dyn/production/_ext/1964723635/ff.o
 .text.chk_mounted
                0x00000000      0xaa0 build/pic32mx_eth_sk_int_dyn/production/_ext/1964723635/ff.o
 .text.validate
                0x00000000       0xc4 build/pic32mx_eth_sk_int_dyn/production/_ext/1964723635/ff.o
 .text.f_mount  0x00000000      0x120 build/pic32mx_eth_sk_int_dyn/production/_ext/1964723635/ff.o
 .text.f_unmount
                0x00000000       0xfc build/pic32mx_eth_sk_int_dyn/production/_ext/1964723635/ff.o
 .text.f_open   0x00000000      0x524 build/pic32mx_eth_sk_int_dyn/production/_ext/1964723635/ff.o
 .text.f_read   0x00000000      0x584 build/pic32mx_eth_sk_int_dyn/production/_ext/1964723635/ff.o
 .text.f_write  0x00000000      0x644 build/pic32mx_eth_sk_int_dyn/production/_ext/1964723635/ff.o
 .text.f_sync   0x00000000      0x28c build/pic32mx_eth_sk_int_dyn/production/_ext/1964723635/ff.o
 .text.f_close  0x00000000       0x70 build/pic32mx_eth_sk_int_dyn/production/_ext/1964723635/ff.o
 .text.f_lseek  0x00000000      0x5a0 build/pic32mx_eth_sk_int_dyn/production/_ext/1964723635/ff.o
 .text.f_opendir
                0x00000000      0x190 build/pic32mx_eth_sk_int_dyn/production/_ext/1964723635/ff.o
 .text.f_readdir
                0x00000000      0x110 build/pic32mx_eth_sk_int_dyn/production/_ext/1964723635/ff.o
 .text.f_stat   0x00000000       0xd0 build/pic32mx_eth_sk_int_dyn/production/_ext/1964723635/ff.o
 .text.f_getfree
                0x00000000      0x30c build/pic32mx_eth_sk_int_dyn/production/_ext/1964723635/ff.o
 .text.f_truncate
                0x00000000      0x21c build/pic32mx_eth_sk_int_dyn/production/_ext/1964723635/ff.o
 .text.f_unlink
                0x00000000      0x230 build/pic32mx_eth_sk_int_dyn/production/_ext/1964723635/ff.o
 .text.f_mkdir  0x00000000      0x41c build/pic32mx_eth_sk_int_dyn/production/_ext/1964723635/ff.o
 .text.f_chmod  0x00000000      0x138 build/pic32mx_eth_sk_int_dyn/production/_ext/1964723635/ff.o
 .text.f_utime  0x00000000      0x14c build/pic32mx_eth_sk_int_dyn/production/_ext/1964723635/ff.o
 .text.f_rename
                0x00000000      0x2fc build/pic32mx_eth_sk_int_dyn/production/_ext/1964723635/ff.o
 .text.f_tell   0x00000000       0x40 build/pic32mx_eth_sk_int_dyn/production/_ext/1964723635/ff.o
 .text.f_eof    0x00000000       0x54 build/pic32mx_eth_sk_int_dyn/production/_ext/1964723635/ff.o
 .text.f_size   0x00000000       0x40 build/pic32mx_eth_sk_int_dyn/production/_ext/1964723635/ff.o
 .text          0x00000000        0x0 build/pic32mx_eth_sk_int_dyn/production/_ext/732200470/diskio.o
 .data          0x00000000        0x0 build/pic32mx_eth_sk_int_dyn/production/_ext/732200470/diskio.o
 .bss           0x00000000        0x0 build/pic32mx_eth_sk_int_dyn/production/_ext/732200470/diskio.o
 .reginfo       0x00000000       0x18 build/pic32mx_eth_sk_int_dyn/production/_ext/732200470/diskio.o
 .text.disk_initialize
                0x00000000       0x30 build/pic32mx_eth_sk_int_dyn/production/_ext/732200470/diskio.o
 .text.disk_status
                0x00000000       0x2c build/pic32mx_eth_sk_int_dyn/production/_ext/732200470/diskio.o
 .text.disk_ioctl
                0x00000000       0x38 build/pic32mx_eth_sk_int_dyn/production/_ext/732200470/diskio.o
 .text.get_fattime
                0x00000000       0x84 build/pic32mx_eth_sk_int_dyn/production/_ext/732200470/diskio.o
 .text          0x00000000        0x0 build/pic32mx_eth_sk_int_dyn/production/_ext/1042686532/sys_int_pic32.o
 .data          0x00000000        0x0 build/pic32mx_eth_sk_int_dyn/production/_ext/1042686532/sys_int_pic32.o
 .bss           0x00000000        0x0 build/pic32mx_eth_sk_int_dyn/production/_ext/1042686532/sys_int_pic32.o
 .reginfo       0x00000000       0x18 build/pic32mx_eth_sk_int_dyn/production/_ext/1042686532/sys_int_pic32.o
 .text          0x00000000        0x0 build/pic32mx_eth_sk_int_dyn/production/_ext/826631961/sys_ports.o
 .data          0x00000000        0x0 build/pic32mx_eth_sk_int_dyn/production/_ext/826631961/sys_ports.o
 .bss           0x00000000        0x0 build/pic32mx_eth_sk_int_dyn/production/_ext/826631961/sys_ports.o
 .reginfo       0x00000000       0x18 build/pic32mx_eth_sk_int_dyn/production/_ext/826631961/sys_ports.o
 .text._PORTS_READ_B_VREG
                0x00000000       0x44 build/pic32mx_eth_sk_int_dyn/production/_ext/826631961/sys_ports.o
 .text._PORTS_WRITE_B_VREG
                0x00000000       0x44 build/pic32mx_eth_sk_int_dyn/production/_ext/826631961/sys_ports.o
 .text._PORTS_DIRECTION_B_VREG
                0x00000000       0x44 build/pic32mx_eth_sk_int_dyn/production/_ext/826631961/sys_ports.o
 .text._PORTS_OPEN_DRAIN_B_VREG
                0x00000000       0x44 build/pic32mx_eth_sk_int_dyn/production/_ext/826631961/sys_ports.o
 .text._PORTS_PIN_MODE_VREG
                0x00000000       0x44 build/pic32mx_eth_sk_int_dyn/production/_ext/826631961/sys_ports.o
 .text._PORTS_CHANGE_NOTICE_VREG
                0x00000000       0x44 build/pic32mx_eth_sk_int_dyn/production/_ext/826631961/sys_ports.o
 .text._PORTS_CHANGE_NOTICE_IN_IDLE_VREG
                0x00000000       0x44 build/pic32mx_eth_sk_int_dyn/production/_ext/826631961/sys_ports.o
 .text._PORTS_PIN_CHANGE_NOTICE_VREG
                0x00000000       0x44 build/pic32mx_eth_sk_int_dyn/production/_ext/826631961/sys_ports.o
 .text._PORTS_CHANGE_NOTICE_PULL_UP_VREG
                0x00000000       0x44 build/pic32mx_eth_sk_int_dyn/production/_ext/826631961/sys_ports.o
 .text._PORTS_CHANGE_NOTICE_POS
                0x00000000       0x40 build/pic32mx_eth_sk_int_dyn/production/_ext/826631961/sys_ports.o
 .text._PORTS_CHANGE_NOTICE_IN_IDLE_POS
                0x00000000       0x40 build/pic32mx_eth_sk_int_dyn/production/_ext/826631961/sys_ports.o
 .rodata        0x00000000      0x108 build/pic32mx_eth_sk_int_dyn/production/_ext/826631961/sys_ports.o
 .text.PORTS_RemapInput_Unsupported
                0x00000000       0x40 build/pic32mx_eth_sk_int_dyn/production/_ext/826631961/sys_ports.o
 .text.PORTS_RemapOutput_Unsupported
                0x00000000       0x40 build/pic32mx_eth_sk_int_dyn/production/_ext/826631961/sys_ports.o
 .text.PORTS_PinModeSelect_Default
                0x00000000       0x8c build/pic32mx_eth_sk_int_dyn/production/_ext/826631961/sys_ports.o
 .text.PORTS_PinGet_MCU32
                0x00000000       0x78 build/pic32mx_eth_sk_int_dyn/production/_ext/826631961/sys_ports.o
 .text.PORTS_Read_MCU32
                0x00000000       0x5c build/pic32mx_eth_sk_int_dyn/production/_ext/826631961/sys_ports.o
 .text.PORTS_PinWrite_MCU32
                0x00000000       0xc4 build/pic32mx_eth_sk_int_dyn/production/_ext/826631961/sys_ports.o
 .text.PORTS_PinSet_MCU32
                0x00000000       0x70 build/pic32mx_eth_sk_int_dyn/production/_ext/826631961/sys_ports.o
 .text.PORTS_PinClear_MCU32
                0x00000000       0x70 build/pic32mx_eth_sk_int_dyn/production/_ext/826631961/sys_ports.o
 .text.PORTS_PinToggle_MCU32
                0x00000000       0x70 build/pic32mx_eth_sk_int_dyn/production/_ext/826631961/sys_ports.o
 .text.PORTS_Write_MCU32
                0x00000000       0x64 build/pic32mx_eth_sk_int_dyn/production/_ext/826631961/sys_ports.o
 .text.PORTS_Set_MCU32
                0x00000000       0x6c build/pic32mx_eth_sk_int_dyn/production/_ext/826631961/sys_ports.o
 .text.PORTS_Toggle_MCU32
                0x00000000       0x6c build/pic32mx_eth_sk_int_dyn/production/_ext/826631961/sys_ports.o
 .text.PORTS_Clear_MCU32
                0x00000000       0x6c build/pic32mx_eth_sk_int_dyn/production/_ext/826631961/sys_ports.o
 .text.PORTS_PinDirectionInputSet_MCU32
                0x00000000       0x70 build/pic32mx_eth_sk_int_dyn/production/_ext/826631961/sys_ports.o
 .text.PORTS_PinDirectionOutputSet_MCU32
                0x00000000       0x70 build/pic32mx_eth_sk_int_dyn/production/_ext/826631961/sys_ports.o
 .text.PORTS_DirectionInputSet_MCU32
                0x00000000       0x6c build/pic32mx_eth_sk_int_dyn/production/_ext/826631961/sys_ports.o
 .text.PORTS_DirectionOutputSet_MCU32
                0x00000000       0x6c build/pic32mx_eth_sk_int_dyn/production/_ext/826631961/sys_ports.o
 .text.PORTS_DirectionGet_MCU32
                0x00000000       0x60 build/pic32mx_eth_sk_int_dyn/production/_ext/826631961/sys_ports.o
 .text.PORTS_PinOpenDrainEnable_MCU32
                0x00000000       0x70 build/pic32mx_eth_sk_int_dyn/production/_ext/826631961/sys_ports.o
 .text.PORTS_PinOpenDrainDisable_MCU32
                0x00000000       0x70 build/pic32mx_eth_sk_int_dyn/production/_ext/826631961/sys_ports.o
 .text.PORTS_OpenDrainEnable_MCU32
                0x00000000       0x6c build/pic32mx_eth_sk_int_dyn/production/_ext/826631961/sys_ports.o
 .text.PORTS_OpenDrainDisable_MCU32
                0x00000000       0x6c build/pic32mx_eth_sk_int_dyn/production/_ext/826631961/sys_ports.o
 .text.PORTS_ChangeNoticeEnable_Default
                0x00000000       0x5c build/pic32mx_eth_sk_int_dyn/production/_ext/826631961/sys_ports.o
 .text.PORTS_ChangeNoticeDisable_Default
                0x00000000       0x5c build/pic32mx_eth_sk_int_dyn/production/_ext/826631961/sys_ports.o
 .text.PORTS_PinChangeNoticeEnable_Default
                0x00000000       0x50 build/pic32mx_eth_sk_int_dyn/production/_ext/826631961/sys_ports.o
 .text.PORTS_PinChangeNoticeDisable_Default
                0x00000000       0x50 build/pic32mx_eth_sk_int_dyn/production/_ext/826631961/sys_ports.o
 .text.PORTS_ChangeNoticeInIdleEnable_Default
                0x00000000       0x5c build/pic32mx_eth_sk_int_dyn/production/_ext/826631961/sys_ports.o
 .text.PORTS_ChangeNoticeInIdleDisable_Default
                0x00000000       0x5c build/pic32mx_eth_sk_int_dyn/production/_ext/826631961/sys_ports.o
 .text.PORTS_ChangeNoticePullUpEnable_Default
                0x00000000       0x50 build/pic32mx_eth_sk_int_dyn/production/_ext/826631961/sys_ports.o
 .text.PORTS_ChangeNoticePullUpDisable_Default
                0x00000000       0x50 build/pic32mx_eth_sk_int_dyn/production/_ext/826631961/sys_ports.o
 .text.PLIB_PORTS_RemapInput
                0x00000000       0x64 build/pic32mx_eth_sk_int_dyn/production/_ext/826631961/sys_ports.o
 .text.PLIB_PORTS_RemapOutput
                0x00000000       0x64 build/pic32mx_eth_sk_int_dyn/production/_ext/826631961/sys_ports.o
 .text.PLIB_PORTS_PinModeSelect
                0x00000000       0x64 build/pic32mx_eth_sk_int_dyn/production/_ext/826631961/sys_ports.o
 .text.PLIB_PORTS_PinGet
                0x00000000       0x60 build/pic32mx_eth_sk_int_dyn/production/_ext/826631961/sys_ports.o
 .text.PLIB_PORTS_Read
                0x00000000       0x58 build/pic32mx_eth_sk_int_dyn/production/_ext/826631961/sys_ports.o
 .text.PLIB_PORTS_PinWrite
                0x00000000       0x74 build/pic32mx_eth_sk_int_dyn/production/_ext/826631961/sys_ports.o
 .text.PLIB_PORTS_PinSet
                0x00000000       0x64 build/pic32mx_eth_sk_int_dyn/production/_ext/826631961/sys_ports.o
 .text.PLIB_PORTS_PinClear
                0x00000000       0x64 build/pic32mx_eth_sk_int_dyn/production/_ext/826631961/sys_ports.o
 .text.PLIB_PORTS_PinToggle
                0x00000000       0x64 build/pic32mx_eth_sk_int_dyn/production/_ext/826631961/sys_ports.o
 .text.PLIB_PORTS_Write
                0x00000000       0x64 build/pic32mx_eth_sk_int_dyn/production/_ext/826631961/sys_ports.o
 .text.PLIB_PORTS_Set
                0x00000000       0x74 build/pic32mx_eth_sk_int_dyn/production/_ext/826631961/sys_ports.o
 .text.PLIB_PORTS_Toggle
                0x00000000       0x6c build/pic32mx_eth_sk_int_dyn/production/_ext/826631961/sys_ports.o
 .text.PLIB_PORTS_Clear
                0x00000000       0x6c build/pic32mx_eth_sk_int_dyn/production/_ext/826631961/sys_ports.o
 .text.PLIB_PORTS_PinDirectionInputSet
                0x00000000       0x64 build/pic32mx_eth_sk_int_dyn/production/_ext/826631961/sys_ports.o
 .text.PLIB_PORTS_PinDirectionOutputSet
                0x00000000       0x64 build/pic32mx_eth_sk_int_dyn/production/_ext/826631961/sys_ports.o
 .text.PLIB_PORTS_DirectionInputSet
                0x00000000       0x6c build/pic32mx_eth_sk_int_dyn/production/_ext/826631961/sys_ports.o
 .text.PLIB_PORTS_DirectionOutputSet
                0x00000000       0x6c build/pic32mx_eth_sk_int_dyn/production/_ext/826631961/sys_ports.o
 .text.PLIB_PORTS_DirectionGet
                0x00000000       0x58 build/pic32mx_eth_sk_int_dyn/production/_ext/826631961/sys_ports.o
 .text.PLIB_PORTS_PinOpenDrainEnable
                0x00000000       0x64 build/pic32mx_eth_sk_int_dyn/production/_ext/826631961/sys_ports.o
 .text.PLIB_PORTS_PinOpenDrainDisable
                0x00000000       0x64 build/pic32mx_eth_sk_int_dyn/production/_ext/826631961/sys_ports.o
 .text.PLIB_PORTS_OpenDrainEnable
                0x00000000       0x6c build/pic32mx_eth_sk_int_dyn/production/_ext/826631961/sys_ports.o
 .text.PLIB_PORTS_OpenDrainDisable
                0x00000000       0x6c build/pic32mx_eth_sk_int_dyn/production/_ext/826631961/sys_ports.o
 .text.PLIB_PORTS_ChangeNoticeEnable
                0x00000000       0x54 build/pic32mx_eth_sk_int_dyn/production/_ext/826631961/sys_ports.o
 .text.PLIB_PORTS_ChangeNoticeDisable
                0x00000000       0x54 build/pic32mx_eth_sk_int_dyn/production/_ext/826631961/sys_ports.o
 .text.PLIB_PORTS_PinChangeNoticeEnable
                0x00000000       0x5c build/pic32mx_eth_sk_int_dyn/production/_ext/826631961/sys_ports.o
 .text.PLIB_PORTS_PinChangeNoticeDisable
                0x00000000       0x5c build/pic32mx_eth_sk_int_dyn/production/_ext/826631961/sys_ports.o
 .text.PLIB_PORTS_ChangeNoticeInIdleEnable
                0x00000000       0x54 build/pic32mx_eth_sk_int_dyn/production/_ext/826631961/sys_ports.o
 .text.PLIB_PORTS_ChangeNoticeInIdleDisable
                0x00000000       0x54 build/pic32mx_eth_sk_int_dyn/production/_ext/826631961/sys_ports.o
 .text.PLIB_PORTS_ChangeNoticePullUpEnable
                0x00000000       0x5c build/pic32mx_eth_sk_int_dyn/production/_ext/826631961/sys_ports.o
 .text.PLIB_PORTS_ChangeNoticePullUpDisable
                0x00000000       0x5c build/pic32mx_eth_sk_int_dyn/production/_ext/826631961/sys_ports.o
 .text.SYS_PORTS_Read
                0x00000000       0x40 build/pic32mx_eth_sk_int_dyn/production/_ext/826631961/sys_ports.o
 .text.SYS_PORTS_Write
                0x00000000       0x48 build/pic32mx_eth_sk_int_dyn/production/_ext/826631961/sys_ports.o
 .text.SYS_PORTS_Set
                0x00000000       0x58 build/pic32mx_eth_sk_int_dyn/production/_ext/826631961/sys_ports.o
 .text.SYS_PORTS_Clear
                0x00000000       0x50 build/pic32mx_eth_sk_int_dyn/production/_ext/826631961/sys_ports.o
 .text.SYS_PORTS_DirectionSelect
                0x00000000       0x84 build/pic32mx_eth_sk_int_dyn/production/_ext/826631961/sys_ports.o
 .text.SYS_PORTS_DirectionGet
                0x00000000       0x40 build/pic32mx_eth_sk_int_dyn/production/_ext/826631961/sys_ports.o
 .text.SYS_PORTS_Toggle
                0x00000000       0x50 build/pic32mx_eth_sk_int_dyn/production/_ext/826631961/sys_ports.o
 .text.SYS_PORTS_OpenDrainEnable
                0x00000000       0x50 build/pic32mx_eth_sk_int_dyn/production/_ext/826631961/sys_ports.o
 .text.SYS_PORTS_OpenDrainDisable
                0x00000000       0x50 build/pic32mx_eth_sk_int_dyn/production/_ext/826631961/sys_ports.o
 .text.SYS_PORTS_ChangeNotificationGlobalEnable
                0x00000000       0x38 build/pic32mx_eth_sk_int_dyn/production/_ext/826631961/sys_ports.o
 .text.SYS_PORTS_GlobalChangeNotificationDisable
                0x00000000       0x38 build/pic32mx_eth_sk_int_dyn/production/_ext/826631961/sys_ports.o
 .text.SYS_PORTS_ChangeNotificationEnable
                0x00000000       0x90 build/pic32mx_eth_sk_int_dyn/production/_ext/826631961/sys_ports.o
 .text.SYS_PORTS_ChangeNotificationDisable
                0x00000000       0x40 build/pic32mx_eth_sk_int_dyn/production/_ext/826631961/sys_ports.o
 .text.SYS_PORTS_ChangeNotificationInIdleModeEnable
                0x00000000       0x38 build/pic32mx_eth_sk_int_dyn/production/_ext/826631961/sys_ports.o
 .text.SYS_PORTS_ChangeNotificationInIdleModeDisable
                0x00000000       0x38 build/pic32mx_eth_sk_int_dyn/production/_ext/826631961/sys_ports.o
 .text.SYS_PORTS_ChangeNotificationPullUpEnable
                0x00000000       0x40 build/pic32mx_eth_sk_int_dyn/production/_ext/826631961/sys_ports.o
 .text.SYS_PORTS_ChangeNotificationPullUpDisable
                0x00000000       0x40 build/pic32mx_eth_sk_int_dyn/production/_ext/826631961/sys_ports.o
 .text.SYS_PORTS_PinModeSelect
                0x00000000       0x48 build/pic32mx_eth_sk_int_dyn/production/_ext/826631961/sys_ports.o
 .text.SYS_PORTS_PinWrite
                0x00000000       0x58 build/pic32mx_eth_sk_int_dyn/production/_ext/826631961/sys_ports.o
 .text.SYS_PORTS_PinRead
                0x00000000       0x48 build/pic32mx_eth_sk_int_dyn/production/_ext/826631961/sys_ports.o
 .text.SYS_PORTS_PinToggle
                0x00000000       0x48 build/pic32mx_eth_sk_int_dyn/production/_ext/826631961/sys_ports.o
 .text.SYS_PORTS_PinSet
                0x00000000       0x48 build/pic32mx_eth_sk_int_dyn/production/_ext/826631961/sys_ports.o
 .text.SYS_PORTS_PinClear
                0x00000000       0x48 build/pic32mx_eth_sk_int_dyn/production/_ext/826631961/sys_ports.o
 .text.SYS_PORTS_PinDirectionSelect
                0x00000000       0x74 build/pic32mx_eth_sk_int_dyn/production/_ext/826631961/sys_ports.o
 .text.SYS_PORTS_PinOpenDrainEnable
                0x00000000       0x48 build/pic32mx_eth_sk_int_dyn/production/_ext/826631961/sys_ports.o
 .text.SYS_PORTS_PinOpenDrainDisable
                0x00000000       0x48 build/pic32mx_eth_sk_int_dyn/production/_ext/826631961/sys_ports.o
 .text.SYS_PORTS_RemapInput
                0x00000000       0x48 build/pic32mx_eth_sk_int_dyn/production/_ext/826631961/sys_ports.o
 .text.SYS_PORTS_RemapOutput
                0x00000000       0x48 build/pic32mx_eth_sk_int_dyn/production/_ext/826631961/sys_ports.o
 .text          0x00000000        0x0 build/pic32mx_eth_sk_int_dyn/production/_ext/693918571/sys_queue.o
 .data          0x00000000        0x0 build/pic32mx_eth_sk_int_dyn/production/_ext/693918571/sys_queue.o
 .bss           0x00000000        0x0 build/pic32mx_eth_sk_int_dyn/production/_ext/693918571/sys_queue.o
 .reginfo       0x00000000       0x18 build/pic32mx_eth_sk_int_dyn/production/_ext/693918571/sys_queue.o
 .text.QUEUE_Initialize
                0x00000000       0x60 build/pic32mx_eth_sk_int_dyn/production/_ext/693918571/sys_queue.o
 .text.QUEUE_Reset
                0x00000000       0x44 build/pic32mx_eth_sk_int_dyn/production/_ext/693918571/sys_queue.o
 .text.QUEUE_Push
                0x00000000      0x180 build/pic32mx_eth_sk_int_dyn/production/_ext/693918571/sys_queue.o
 .text.QUEUE_Pop
                0x00000000       0x8c build/pic32mx_eth_sk_int_dyn/production/_ext/693918571/sys_queue.o
 .text          0x00000000        0x0 build/pic32mx_eth_sk_int_dyn/production/_ext/1886247299/big_int.o
 .data          0x00000000        0x0 build/pic32mx_eth_sk_int_dyn/production/_ext/1886247299/big_int.o
 .bss           0x00000000        0x0 build/pic32mx_eth_sk_int_dyn/production/_ext/1886247299/big_int.o
 .reginfo       0x00000000       0x18 build/pic32mx_eth_sk_int_dyn/production/_ext/1886247299/big_int.o
 .text.BigInt   0x00000000       0x70 build/pic32mx_eth_sk_int_dyn/production/_ext/1886247299/big_int.o
 .text.BigIntZero
                0x00000000       0x68 build/pic32mx_eth_sk_int_dyn/production/_ext/1886247299/big_int.o
 .text.BigIntMod
                0x00000000      0x220 build/pic32mx_eth_sk_int_dyn/production/_ext/1886247299/big_int.o
 .text.BigIntCompare
                0x00000000      0x16c build/pic32mx_eth_sk_int_dyn/production/_ext/1886247299/big_int.o
 .text.BigIntMagnitudeDifference
                0x00000000       0x58 build/pic32mx_eth_sk_int_dyn/production/_ext/1886247299/big_int.o
 .text.BigIntMagnitude
                0x00000000       0x50 build/pic32mx_eth_sk_int_dyn/production/_ext/1886247299/big_int.o
 .text.BigIntMSB
                0x00000000       0xac build/pic32mx_eth_sk_int_dyn/production/_ext/1886247299/big_int.o
 .text.BigIntMultiply
                0x00000000       0x94 build/pic32mx_eth_sk_int_dyn/production/_ext/1886247299/big_int.o
 .text.BigIntSquare
                0x00000000       0x74 build/pic32mx_eth_sk_int_dyn/production/_ext/1886247299/big_int.o
 .text.BigIntAdd
                0x00000000       0x74 build/pic32mx_eth_sk_int_dyn/production/_ext/1886247299/big_int.o
 .text.BigIntSubtract
                0x00000000       0x74 build/pic32mx_eth_sk_int_dyn/production/_ext/1886247299/big_int.o
 .text.BigIntCopy
                0x00000000       0x70 build/pic32mx_eth_sk_int_dyn/production/_ext/1886247299/big_int.o
 .text.BigIntSwapEndianness
                0x00000000       0x9c build/pic32mx_eth_sk_int_dyn/production/_ext/1886247299/big_int.o
 .text          0x00000000      0x400 build/pic32mx_eth_sk_int_dyn/production/_ext/1886247299/big_int_helper_c32.o
 .data          0x00000000        0x0 build/pic32mx_eth_sk_int_dyn/production/_ext/1886247299/big_int_helper_c32.o
 .bss           0x00000000       0x20 build/pic32mx_eth_sk_int_dyn/production/_ext/1886247299/big_int_helper_c32.o
 .reginfo       0x00000000       0x18 build/pic32mx_eth_sk_int_dyn/production/_ext/1886247299/big_int_helper_c32.o
 .debug_line    0x00000000      0x15f build/pic32mx_eth_sk_int_dyn/production/_ext/1886247299/big_int_helper_c32.o
 .debug_info    0x00000000       0xb9 build/pic32mx_eth_sk_int_dyn/production/_ext/1886247299/big_int_helper_c32.o
 .debug_abbrev  0x00000000       0x14 build/pic32mx_eth_sk_int_dyn/production/_ext/1886247299/big_int_helper_c32.o
 .debug_aranges
                0x00000000       0x20 build/pic32mx_eth_sk_int_dyn/production/_ext/1886247299/big_int_helper_c32.o
 .text          0x00000000        0x0 build/pic32mx_eth_sk_int_dyn/production/_ext/1886247299/hashes.o
 .data          0x00000000        0x0 build/pic32mx_eth_sk_int_dyn/production/_ext/1886247299/hashes.o
 .bss           0x00000000        0x0 build/pic32mx_eth_sk_int_dyn/production/_ext/1886247299/hashes.o
 .reginfo       0x00000000       0x18 build/pic32mx_eth_sk_int_dyn/production/_ext/1886247299/hashes.o
 .text.HashAddData
                0x00000000       0x94 build/pic32mx_eth_sk_int_dyn/production/_ext/1886247299/hashes.o
 .text          0x00000000        0x0 build/pic32mx_eth_sk_int_dyn/production/_ext/1886247299/helpers.o
 .data          0x00000000        0x0 build/pic32mx_eth_sk_int_dyn/production/_ext/1886247299/helpers.o
 .bss           0x00000000        0x0 build/pic32mx_eth_sk_int_dyn/production/_ext/1886247299/helpers.o
 .reginfo       0x00000000       0x18 build/pic32mx_eth_sk_int_dyn/production/_ext/1886247299/helpers.o
 .text.strnchr  0x00000000       0xb4 build/pic32mx_eth_sk_int_dyn/production/_ext/1886247299/helpers.o
 .text.strncpy_m
                0x00000000      0x10c build/pic32mx_eth_sk_int_dyn/production/_ext/1886247299/helpers.o
 .text          0x00000000        0x0 build/pic32mx_eth_sk_int_dyn/production/_ext/1886247299/lfsr.o
 .data          0x00000000        0x0 build/pic32mx_eth_sk_int_dyn/production/_ext/1886247299/lfsr.o
 .bss           0x00000000        0x0 build/pic32mx_eth_sk_int_dyn/production/_ext/1886247299/lfsr.o
 .reginfo       0x00000000       0x18 build/pic32mx_eth_sk_int_dyn/production/_ext/1886247299/lfsr.o
 .text          0x00000000        0x0 build/pic32mx_eth_sk_int_dyn/production/_ext/1886247299/sys_fs_wrapper.o
 .data          0x00000000        0x0 build/pic32mx_eth_sk_int_dyn/production/_ext/1886247299/sys_fs_wrapper.o
 .bss           0x00000000        0x0 build/pic32mx_eth_sk_int_dyn/production/_ext/1886247299/sys_fs_wrapper.o
 .reginfo       0x00000000       0x18 build/pic32mx_eth_sk_int_dyn/production/_ext/1886247299/sys_fs_wrapper.o
 .text.SYS_FS_Unmount_Wrapper
                0x00000000      0x1a4 build/pic32mx_eth_sk_int_dyn/production/_ext/1886247299/sys_fs_wrapper.o
 .text          0x00000000        0x0 build/pic32mx_eth_sk_int_dyn/production/_ext/1360937237/assert_to_ide.o
 .data          0x00000000        0x0 build/pic32mx_eth_sk_int_dyn/production/_ext/1360937237/assert_to_ide.o
 .bss           0x00000000        0x0 build/pic32mx_eth_sk_int_dyn/production/_ext/1360937237/assert_to_ide.o
 .reginfo       0x00000000       0x18 build/pic32mx_eth_sk_int_dyn/production/_ext/1360937237/assert_to_ide.o
 .text          0x00000000        0x0 build/pic32mx_eth_sk_int_dyn/production/_ext/1360937237/mpfs_img2.o
 .data          0x00000000        0xc build/pic32mx_eth_sk_int_dyn/production/_ext/1360937237/mpfs_img2.o
 .bss           0x00000000        0x0 build/pic32mx_eth_sk_int_dyn/production/_ext/1360937237/mpfs_img2.o
 .reginfo       0x00000000       0x18 build/pic32mx_eth_sk_int_dyn/production/_ext/1360937237/mpfs_img2.o
 .text          0x00000000        0x0 build/pic32mx_eth_sk_int_dyn/production/_ext/1360937237/custom_snmp_app.o
 .reginfo       0x00000000       0x18 build/pic32mx_eth_sk_int_dyn/production/_ext/1360937237/custom_snmp_app.o
 .text.SNMPTrapDemo
                0x00000000      0x884 build/pic32mx_eth_sk_int_dyn/production/_ext/1360937237/custom_snmp_app.o
 .text.SNMPSendTrap
                0x00000000      0x510 build/pic32mx_eth_sk_int_dyn/production/_ext/1360937237/custom_snmp_app.o
 .text          0x00000000        0x0 build/pic32mx_eth_sk_int_dyn/production/_ext/1360937237/custom_http_app.o
 .data          0x00000000        0x0 build/pic32mx_eth_sk_int_dyn/production/_ext/1360937237/custom_http_app.o
 .reginfo       0x00000000       0x18 build/pic32mx_eth_sk_int_dyn/production/_ext/1360937237/custom_http_app.o
 .text.HTTPPrint_lcdtext
                0x00000000       0x24 build/pic32mx_eth_sk_int_dyn/production/_ext/1360937237/custom_http_app.o
 .text          0x00000000        0x0 build/pic32mx_eth_sk_int_dyn/production/_ext/1164207549/arcfour.o
 .data          0x00000000        0x0 build/pic32mx_eth_sk_int_dyn/production/_ext/1164207549/arcfour.o
 .bss           0x00000000        0x0 build/pic32mx_eth_sk_int_dyn/production/_ext/1164207549/arcfour.o
 .reginfo       0x00000000       0x18 build/pic32mx_eth_sk_int_dyn/production/_ext/1164207549/arcfour.o
 .text          0x00000000        0x0 build/pic32mx_eth_sk_int_dyn/production/_ext/1164207549/arp.o
 .data          0x00000000        0x0 build/pic32mx_eth_sk_int_dyn/production/_ext/1164207549/arp.o
 .reginfo       0x00000000       0x18 build/pic32mx_eth_sk_int_dyn/production/_ext/1164207549/arp.o
 .text.TCPIP_ARP_Probe
                0x00000000      0x120 build/pic32mx_eth_sk_int_dyn/production/_ext/1164207549/arp.o
 .text.TCPIP_ARP_EntrySet
                0x00000000      0x2bc build/pic32mx_eth_sk_int_dyn/production/_ext/1164207549/arp.o
 .text.TCPIP_ARP_EntryRemoveAll
                0x00000000       0xf8 build/pic32mx_eth_sk_int_dyn/production/_ext/1164207549/arp.o
 .text.TCPIP_ARP_CacheThresholdSet
                0x00000000      0x138 build/pic32mx_eth_sk_int_dyn/production/_ext/1164207549/arp.o
 .text          0x00000000        0x0 build/pic32mx_eth_sk_int_dyn/production/_ext/1164207549/berkeley_api.o
 .data          0x00000000        0x0 build/pic32mx_eth_sk_int_dyn/production/_ext/1164207549/berkeley_api.o
 .bss           0x00000000        0x0 build/pic32mx_eth_sk_int_dyn/production/_ext/1164207549/berkeley_api.o
 .reginfo       0x00000000       0x18 build/pic32mx_eth_sk_int_dyn/production/_ext/1164207549/berkeley_api.o
 .text          0x00000000        0x0 build/pic32mx_eth_sk_int_dyn/production/_ext/1164207549/dhcp.o
 .data          0x00000000        0x0 build/pic32mx_eth_sk_int_dyn/production/_ext/1164207549/dhcp.o
 .reginfo       0x00000000       0x18 build/pic32mx_eth_sk_int_dyn/production/_ext/1164207549/dhcp.o
 .text.TCPIP_DHCP_IsBound
                0x00000000       0xf0 build/pic32mx_eth_sk_int_dyn/production/_ext/1164207549/dhcp.o
 .text.TCPIP_DHCP_IsServerDetected
                0x00000000       0xf0 build/pic32mx_eth_sk_int_dyn/production/_ext/1164207549/dhcp.o
 .text.TCPIP_DHCP_RequestTimeoutSet
                0x00000000       0x2c build/pic32mx_eth_sk_int_dyn/production/_ext/1164207549/dhcp.o
 .text          0x00000000        0x0 build/pic32mx_eth_sk_int_dyn/production/_ext/1164207549/dhcps.o
 .data          0x00000000        0x0 build/pic32mx_eth_sk_int_dyn/production/_ext/1164207549/dhcps.o
 .bss           0x00000000        0x0 build/pic32mx_eth_sk_int_dyn/production/_ext/1164207549/dhcps.o
 .reginfo       0x00000000       0x18 build/pic32mx_eth_sk_int_dyn/production/_ext/1164207549/dhcps.o
 .text          0x00000000        0x0 build/pic32mx_eth_sk_int_dyn/production/_ext/1164207549/dns.o
 .data          0x00000000        0x0 build/pic32mx_eth_sk_int_dyn/production/_ext/1164207549/dns.o
 .reginfo       0x00000000       0x18 build/pic32mx_eth_sk_int_dyn/production/_ext/1164207549/dns.o
 .text          0x00000000        0x0 build/pic32mx_eth_sk_int_dyn/production/_ext/1164207549/dnss.o
 .data          0x00000000        0x0 build/pic32mx_eth_sk_int_dyn/production/_ext/1164207549/dnss.o
 .bss           0x00000000        0x0 build/pic32mx_eth_sk_int_dyn/production/_ext/1164207549/dnss.o
 .reginfo       0x00000000       0x18 build/pic32mx_eth_sk_int_dyn/production/_ext/1164207549/dnss.o
 .text          0x00000000        0x0 build/pic32mx_eth_sk_int_dyn/production/_ext/1164207549/ftp.o
 .bss           0x00000000        0x0 build/pic32mx_eth_sk_int_dyn/production/_ext/1164207549/ftp.o
 .reginfo       0x00000000       0x18 build/pic32mx_eth_sk_int_dyn/production/_ext/1164207549/ftp.o
 .text          0x00000000        0x0 build/pic32mx_eth_sk_int_dyn/production/_ext/1164207549/hash_fnv.o
 .data          0x00000000        0x0 build/pic32mx_eth_sk_int_dyn/production/_ext/1164207549/hash_fnv.o
 .bss           0x00000000        0x0 build/pic32mx_eth_sk_int_dyn/production/_ext/1164207549/hash_fnv.o
 .reginfo       0x00000000       0x18 build/pic32mx_eth_sk_int_dyn/production/_ext/1164207549/hash_fnv.o
 .text.fnv_32a_hash
                0x00000000       0xd0 build/pic32mx_eth_sk_int_dyn/production/_ext/1164207549/hash_fnv.o
 .text          0x00000000        0x0 build/pic32mx_eth_sk_int_dyn/production/_ext/1164207549/http.o
 .data          0x00000000        0x0 build/pic32mx_eth_sk_int_dyn/production/_ext/1164207549/http.o
 .bss           0x00000000        0x0 build/pic32mx_eth_sk_int_dyn/production/_ext/1164207549/http.o
 .reginfo       0x00000000       0x18 build/pic32mx_eth_sk_int_dyn/production/_ext/1164207549/http.o
 .text.TCPIP_HTTP_CurrentConnectionCallbackPosGet
                0x00000000       0x34 build/pic32mx_eth_sk_int_dyn/production/_ext/1164207549/http.o
 .text.TCPIP_HTTP_CurrentConnectionByteCountSet
                0x00000000       0x3c build/pic32mx_eth_sk_int_dyn/production/_ext/1164207549/http.o
 .text.TCPIP_HTTP_CurrentConnectionIsAuthorizedGet
                0x00000000       0x34 build/pic32mx_eth_sk_int_dyn/production/_ext/1164207549/http.o
 .text.TCPIP_HTTP_CurrentConnectionIsAuthorizedSet
                0x00000000       0x40 build/pic32mx_eth_sk_int_dyn/production/_ext/1164207549/http.o
 .text.TCPIP_HTTP_CurrentConnectionUserDataSet
                0x00000000       0x3c build/pic32mx_eth_sk_int_dyn/production/_ext/1164207549/http.o
 .text.TCPIP_HTTP_CurrentConnectionUserDataGet
                0x00000000       0x34 build/pic32mx_eth_sk_int_dyn/production/_ext/1164207549/http.o
 .text.TCPIP_HTTP_CurrentConnectionIndexGet
                0x00000000       0x34 build/pic32mx_eth_sk_int_dyn/production/_ext/1164207549/http.o
 .text.TCPIP_HTTP_ActiveConnectionCountGet
                0x00000000       0x98 build/pic32mx_eth_sk_int_dyn/production/_ext/1164207549/http.o
 .text          0x00000000        0x0 build/pic32mx_eth_sk_int_dyn/production/_ext/1164207549/icmp.o
 .data          0x00000000        0x0 build/pic32mx_eth_sk_int_dyn/production/_ext/1164207549/icmp.o
 .bss           0x00000000        0x0 build/pic32mx_eth_sk_int_dyn/production/_ext/1164207549/icmp.o
 .reginfo       0x00000000       0x18 build/pic32mx_eth_sk_int_dyn/production/_ext/1164207549/icmp.o
 .text.TCPIP_ICMP_CallbackRegister
                0x00000000       0x28 build/pic32mx_eth_sk_int_dyn/production/_ext/1164207549/icmp.o
 .text.TCPIP_ICMP_CallbackDeregister
                0x00000000       0x28 build/pic32mx_eth_sk_int_dyn/production/_ext/1164207549/icmp.o
 .text          0x00000000        0x0 build/pic32mx_eth_sk_int_dyn/production/_ext/1164207549/icmpv6.o
 .data          0x00000000        0x0 build/pic32mx_eth_sk_int_dyn/production/_ext/1164207549/icmpv6.o
 .bss           0x00000000        0x0 build/pic32mx_eth_sk_int_dyn/production/_ext/1164207549/icmpv6.o
 .reginfo       0x00000000       0x18 build/pic32mx_eth_sk_int_dyn/production/_ext/1164207549/icmpv6.o
 .text          0x00000000        0x0 build/pic32mx_eth_sk_int_dyn/production/_ext/1164207549/iperf.o
 .data          0x00000000        0x0 build/pic32mx_eth_sk_int_dyn/production/_ext/1164207549/iperf.o
 .reginfo       0x00000000       0x18 build/pic32mx_eth_sk_int_dyn/production/_ext/1164207549/iperf.o
 .text          0x00000000        0x0 build/pic32mx_eth_sk_int_dyn/production/_ext/1164207549/ipv4.o
 .data          0x00000000        0x0 build/pic32mx_eth_sk_int_dyn/production/_ext/1164207549/ipv4.o
 .reginfo       0x00000000       0x18 build/pic32mx_eth_sk_int_dyn/production/_ext/1164207549/ipv4.o
 .text          0x00000000        0x0 build/pic32mx_eth_sk_int_dyn/production/_ext/1164207549/ipv6.o
 .data          0x00000000        0x0 build/pic32mx_eth_sk_int_dyn/production/_ext/1164207549/ipv6.o
 .bss           0x00000000        0x0 build/pic32mx_eth_sk_int_dyn/production/_ext/1164207549/ipv6.o
 .reginfo       0x00000000       0x18 build/pic32mx_eth_sk_int_dyn/production/_ext/1164207549/ipv6.o
 .text          0x00000000        0x0 build/pic32mx_eth_sk_int_dyn/production/_ext/1164207549/nbns.o
 .data          0x00000000        0x0 build/pic32mx_eth_sk_int_dyn/production/_ext/1164207549/nbns.o
 .bss           0x00000000        0x0 build/pic32mx_eth_sk_int_dyn/production/_ext/1164207549/nbns.o
 .reginfo       0x00000000       0x18 build/pic32mx_eth_sk_int_dyn/production/_ext/1164207549/nbns.o
 .text          0x00000000        0x0 build/pic32mx_eth_sk_int_dyn/production/_ext/1164207549/ndp.o
 .data          0x00000000        0x0 build/pic32mx_eth_sk_int_dyn/production/_ext/1164207549/ndp.o
 .bss           0x00000000        0x0 build/pic32mx_eth_sk_int_dyn/production/_ext/1164207549/ndp.o
 .reginfo       0x00000000       0x18 build/pic32mx_eth_sk_int_dyn/production/_ext/1164207549/ndp.o
 .text          0x00000000        0x0 build/pic32mx_eth_sk_int_dyn/production/_ext/1164207549/oahash.o
 .data          0x00000000        0x0 build/pic32mx_eth_sk_int_dyn/production/_ext/1164207549/oahash.o
 .bss           0x00000000        0x0 build/pic32mx_eth_sk_int_dyn/production/_ext/1164207549/oahash.o
 .reginfo       0x00000000       0x18 build/pic32mx_eth_sk_int_dyn/production/_ext/1164207549/oahash.o
 .text          0x00000000        0x0 build/pic32mx_eth_sk_int_dyn/production/_ext/1164207549/rsa.o
 .data          0x00000000        0x0 build/pic32mx_eth_sk_int_dyn/production/_ext/1164207549/rsa.o
 .bss           0x00000000        0x0 build/pic32mx_eth_sk_int_dyn/production/_ext/1164207549/rsa.o
 .reginfo       0x00000000       0x18 build/pic32mx_eth_sk_int_dyn/production/_ext/1164207549/rsa.o
 .text          0x00000000        0x0 build/pic32mx_eth_sk_int_dyn/production/_ext/1164207549/smtp.o
 .data          0x00000000        0x0 build/pic32mx_eth_sk_int_dyn/production/_ext/1164207549/smtp.o
 .reginfo       0x00000000       0x18 build/pic32mx_eth_sk_int_dyn/production/_ext/1164207549/smtp.o
 .text.TCPIP_SMTP_ArrayPut
                0x00000000       0xb8 build/pic32mx_eth_sk_int_dyn/production/_ext/1164207549/smtp.o
 .text          0x00000000        0x0 build/pic32mx_eth_sk_int_dyn/production/_ext/1164207549/snmp.o
 .reginfo       0x00000000       0x18 build/pic32mx_eth_sk_int_dyn/production/_ext/1164207549/snmp.o
 .text.TCPIP_SNMP_ProcessBufferDataGet
                0x00000000       0x40 build/pic32mx_eth_sk_int_dyn/production/_ext/1164207549/snmp.o
 .text.TCPIP_SNMP_FileDescrGet
                0x00000000       0x24 build/pic32mx_eth_sk_int_dyn/production/_ext/1164207549/snmp.o
 .text          0x00000000        0x0 build/pic32mx_eth_sk_int_dyn/production/_ext/1164207549/snmpv3.o
 .data          0x00000000        0x0 build/pic32mx_eth_sk_int_dyn/production/_ext/1164207549/snmpv3.o
 .bss           0x00000000        0x0 build/pic32mx_eth_sk_int_dyn/production/_ext/1164207549/snmpv3.o
 .reginfo       0x00000000       0x18 build/pic32mx_eth_sk_int_dyn/production/_ext/1164207549/snmpv3.o
 .text.TCPIP_SNMPv3_EngnDecodeMsgFlags
                0x00000000       0x48 build/pic32mx_eth_sk_int_dyn/production/_ext/1164207549/snmpv3.o
 .text          0x00000000        0x0 build/pic32mx_eth_sk_int_dyn/production/_ext/1164207549/snmpv3_usm.o
 .data          0x00000000        0x0 build/pic32mx_eth_sk_int_dyn/production/_ext/1164207549/snmpv3_usm.o
 .reginfo       0x00000000       0x18 build/pic32mx_eth_sk_int_dyn/production/_ext/1164207549/snmpv3_usm.o
 .text.SNMPv3ValidateUserSecurityName
                0x00000000      0x148 build/pic32mx_eth_sk_int_dyn/production/_ext/1164207549/snmpv3_usm.o
 .text          0x00000000        0x0 build/pic32mx_eth_sk_int_dyn/production/_ext/1164207549/sntp.o
 .data          0x00000000        0x0 build/pic32mx_eth_sk_int_dyn/production/_ext/1164207549/sntp.o
 .reginfo       0x00000000       0x18 build/pic32mx_eth_sk_int_dyn/production/_ext/1164207549/sntp.o
 .text._SntpIsIdle
                0x00000000       0x60 build/pic32mx_eth_sk_int_dyn/production/_ext/1164207549/sntp.o
 .text.TCPIP_SNTP_UTCSecondsGet
                0x00000000       0x88 build/pic32mx_eth_sk_int_dyn/production/_ext/1164207549/sntp.o
 .text.TCPIP_SNTP_ConnectionParamSet
                0x00000000       0x88 build/pic32mx_eth_sk_int_dyn/production/_ext/1164207549/sntp.o
 .text.TCPIP_SNTP_ConnectionInitiate
                0x00000000       0x54 build/pic32mx_eth_sk_int_dyn/production/_ext/1164207549/sntp.o
 .text.TCPIP_SNTP_TimeStampGet
                0x00000000       0xb8 build/pic32mx_eth_sk_int_dyn/production/_ext/1164207549/sntp.o
 .text.TCPIP_SNTP_LastErrorGet
                0x00000000       0x30 build/pic32mx_eth_sk_int_dyn/production/_ext/1164207549/sntp.o
 .text          0x00000000        0x0 build/pic32mx_eth_sk_int_dyn/production/_ext/1164207549/ssl.o
 .data          0x00000000        0x0 build/pic32mx_eth_sk_int_dyn/production/_ext/1164207549/ssl.o
 .bss           0x00000000        0x0 build/pic32mx_eth_sk_int_dyn/production/_ext/1164207549/ssl.o
 .reginfo       0x00000000       0x18 build/pic32mx_eth_sk_int_dyn/production/_ext/1164207549/ssl.o
 .text          0x00000000        0x0 build/pic32mx_eth_sk_int_dyn/production/_ext/1164207549/tcp.o
 .data          0x00000000        0x0 build/pic32mx_eth_sk_int_dyn/production/_ext/1164207549/tcp.o
 .bss           0x00000000        0x0 build/pic32mx_eth_sk_int_dyn/production/_ext/1164207549/tcp.o
 .reginfo       0x00000000       0x18 build/pic32mx_eth_sk_int_dyn/production/_ext/1164207549/tcp.o
 .text.TCPIP_TCP_ConnectionSetToMSS
                0x00000000       0x44 build/pic32mx_eth_sk_int_dyn/production/_ext/1164207549/tcp.o
 .text.TCPIP_TCP_Abort
                0x00000000       0x6c build/pic32mx_eth_sk_int_dyn/production/_ext/1164207549/tcp.o
 .text.TCPIP_TCP_SocketsNumberGet
                0x00000000       0x24 build/pic32mx_eth_sk_int_dyn/production/_ext/1164207549/tcp.o
 .text.TCPIP_TCP_FifoTxFullGet
                0x00000000       0xa4 build/pic32mx_eth_sk_int_dyn/production/_ext/1164207549/tcp.o
 .text.TCPIP_TCP_Peek
                0x00000000       0x60 build/pic32mx_eth_sk_int_dyn/production/_ext/1164207549/tcp.o
 .text.TCPIP_TCP_SocketNetSet
                0x00000000       0xe0 build/pic32mx_eth_sk_int_dyn/production/_ext/1164207549/tcp.o
 .text.TCPIP_TCP_OptionsGet
                0x00000000      0x1b8 build/pic32mx_eth_sk_int_dyn/production/_ext/1164207549/tcp.o
 .text.TCPIP_TCP_SourceIPAddressSet
                0x00000000       0x84 build/pic32mx_eth_sk_int_dyn/production/_ext/1164207549/tcp.o
 .text          0x00000000        0x0 build/pic32mx_eth_sk_int_dyn/production/_ext/1164207549/tcpip_announce.o
 .data          0x00000000        0x0 build/pic32mx_eth_sk_int_dyn/production/_ext/1164207549/tcpip_announce.o
 .bss           0x00000000        0x0 build/pic32mx_eth_sk_int_dyn/production/_ext/1164207549/tcpip_announce.o
 .reginfo       0x00000000       0x18 build/pic32mx_eth_sk_int_dyn/production/_ext/1164207549/tcpip_announce.o
 .text          0x00000000        0x0 build/pic32mx_eth_sk_int_dyn/production/_ext/1164207549/tcpip_commands.o
 .data          0x00000000        0x0 build/pic32mx_eth_sk_int_dyn/production/_ext/1164207549/tcpip_commands.o
 .bss           0x00000000        0x0 build/pic32mx_eth_sk_int_dyn/production/_ext/1164207549/tcpip_commands.o
 .reginfo       0x00000000       0x18 build/pic32mx_eth_sk_int_dyn/production/_ext/1164207549/tcpip_commands.o
 .text          0x00000000        0x0 build/pic32mx_eth_sk_int_dyn/production/_ext/1164207549/tcpip_heap_alloc.o
 .data          0x00000000        0x0 build/pic32mx_eth_sk_int_dyn/production/_ext/1164207549/tcpip_heap_alloc.o
 .bss           0x00000000        0x0 build/pic32mx_eth_sk_int_dyn/production/_ext/1164207549/tcpip_heap_alloc.o
 .reginfo       0x00000000       0x18 build/pic32mx_eth_sk_int_dyn/production/_ext/1164207549/tcpip_heap_alloc.o
 .text.TCPIP_HEAP_SetNoMemHandler
                0x00000000       0x40 build/pic32mx_eth_sk_int_dyn/production/_ext/1164207549/tcpip_heap_alloc.o
 .data          0x00000000        0x0 build/pic32mx_eth_sk_int_dyn/production/_ext/1164207549/tcpip_helper_c32.o
 .bss           0x00000000        0x0 build/pic32mx_eth_sk_int_dyn/production/_ext/1164207549/tcpip_helper_c32.o
 .reginfo       0x00000000       0x18 build/pic32mx_eth_sk_int_dyn/production/_ext/1164207549/tcpip_helper_c32.o
 .text          0x00000000        0x0 build/pic32mx_eth_sk_int_dyn/production/_ext/1164207549/tcpip_helpers.o
 .data          0x00000000        0x0 build/pic32mx_eth_sk_int_dyn/production/_ext/1164207549/tcpip_helpers.o
 .bss           0x00000000        0x0 build/pic32mx_eth_sk_int_dyn/production/_ext/1164207549/tcpip_helpers.o
 .reginfo       0x00000000       0x18 build/pic32mx_eth_sk_int_dyn/production/_ext/1164207549/tcpip_helpers.o
 .text.TCPIP_Helper_FindCommonPrefix
                0x00000000      0x110 build/pic32mx_eth_sk_int_dyn/production/_ext/1164207549/tcpip_helpers.o
 .text.TCPIP_Helper_SingleListHeadAdd
                0x00000000       0x74 build/pic32mx_eth_sk_int_dyn/production/_ext/1164207549/tcpip_helpers.o
 .text.TCPIP_Helper_SingleListMidAdd
                0x00000000       0x5c build/pic32mx_eth_sk_int_dyn/production/_ext/1164207549/tcpip_helpers.o
 .text.TCPIP_Helper_SingleListNextRemove
                0x00000000       0xb0 build/pic32mx_eth_sk_int_dyn/production/_ext/1164207549/tcpip_helpers.o
 .text.TCPIP_Helper_SingleListAppend
                0x00000000       0x64 build/pic32mx_eth_sk_int_dyn/production/_ext/1164207549/tcpip_helpers.o
 .text.TCPIP_Helper_DoubleListInitialize
                0x00000000       0x44 build/pic32mx_eth_sk_int_dyn/production/_ext/1164207549/tcpip_helpers.o
 .text.TCPIP_Helper_DoubleListHeadAdd
                0x00000000       0xbc build/pic32mx_eth_sk_int_dyn/production/_ext/1164207549/tcpip_helpers.o
 .text.TCPIP_Helper_DoubleListTailAdd
                0x00000000       0xbc build/pic32mx_eth_sk_int_dyn/production/_ext/1164207549/tcpip_helpers.o
 .text.TCPIP_Helper_DoubleListMidAdd
                0x00000000       0x78 build/pic32mx_eth_sk_int_dyn/production/_ext/1164207549/tcpip_helpers.o
 .text.TCPIP_Helper_DoubleListHeadRemove
                0x00000000       0xa8 build/pic32mx_eth_sk_int_dyn/production/_ext/1164207549/tcpip_helpers.o
 .text.TCPIP_Helper_DoubleListTailRemove
                0x00000000       0xa8 build/pic32mx_eth_sk_int_dyn/production/_ext/1164207549/tcpip_helpers.o
 .text.TCPIP_Helper_DoubleListMidRemove
                0x00000000       0x64 build/pic32mx_eth_sk_int_dyn/production/_ext/1164207549/tcpip_helpers.o
 .text.TCPIP_Helper_DoubleListNodeRemove
                0x00000000       0x90 build/pic32mx_eth_sk_int_dyn/production/_ext/1164207549/tcpip_helpers.o
 .text          0x00000000        0x0 build/pic32mx_eth_sk_int_dyn/production/_ext/1164207549/tcpip_mac_object.o
 .data          0x00000000        0x0 build/pic32mx_eth_sk_int_dyn/production/_ext/1164207549/tcpip_mac_object.o
 .bss           0x00000000        0x0 build/pic32mx_eth_sk_int_dyn/production/_ext/1164207549/tcpip_mac_object.o
 .reginfo       0x00000000       0x18 build/pic32mx_eth_sk_int_dyn/production/_ext/1164207549/tcpip_mac_object.o
 .text.TCPIP_MAC_RxFilterHashTableEntrySet
                0x00000000       0x4c build/pic32mx_eth_sk_int_dyn/production/_ext/1164207549/tcpip_mac_object.o
 .text.TCPIP_MAC_PowerMode
                0x00000000       0x4c build/pic32mx_eth_sk_int_dyn/production/_ext/1164207549/tcpip_mac_object.o
 .text          0x00000000        0x0 build/pic32mx_eth_sk_int_dyn/production/_ext/1164207549/tcpip_manager.o
 .data          0x00000000        0x0 build/pic32mx_eth_sk_int_dyn/production/_ext/1164207549/tcpip_manager.o
 .reginfo       0x00000000       0x18 build/pic32mx_eth_sk_int_dyn/production/_ext/1164207549/tcpip_manager.o
 .text.TCPIP_STACK_MacToNet
                0x00000000       0x8c build/pic32mx_eth_sk_int_dyn/production/_ext/1164207549/tcpip_manager.o
 .text.TCPIP_STACK_MacToNetIndex
                0x00000000       0x8c build/pic32mx_eth_sk_int_dyn/production/_ext/1164207549/tcpip_manager.o
 .text.TCPIP_STACK_NetAddressDnsSecondSet
                0x00000000       0xcc build/pic32mx_eth_sk_int_dyn/production/_ext/1164207549/tcpip_manager.o
 .text.TCPIP_STACK_SetLocalMasksType
                0x00000000       0xf8 build/pic32mx_eth_sk_int_dyn/production/_ext/1164207549/tcpip_manager.o
 .text.TCPIP_STACK_SetLocalMasks
                0x00000000       0xd0 build/pic32mx_eth_sk_int_dyn/production/_ext/1164207549/tcpip_manager.o
 .text.TCPIP_STACK_NetMACId
                0x00000000       0xc0 build/pic32mx_eth_sk_int_dyn/production/_ext/1164207549/tcpip_manager.o
 .text.TCPIP_STACK_ModuleGetConfig
                0x00000000       0xc0 build/pic32mx_eth_sk_int_dyn/production/_ext/1164207549/tcpip_manager.o
 .text._TCPIPStackAsyncHandlerSetParams
                0x00000000       0x80 build/pic32mx_eth_sk_int_dyn/production/_ext/1164207549/tcpip_manager.o
 .text          0x00000000        0x0 build/pic32mx_eth_sk_int_dyn/production/_ext/1164207549/tcpip_notify.o
 .data          0x00000000        0x0 build/pic32mx_eth_sk_int_dyn/production/_ext/1164207549/tcpip_notify.o
 .bss           0x00000000        0x0 build/pic32mx_eth_sk_int_dyn/production/_ext/1164207549/tcpip_notify.o
 .reginfo       0x00000000       0x18 build/pic32mx_eth_sk_int_dyn/production/_ext/1164207549/tcpip_notify.o
 .text          0x00000000        0x0 build/pic32mx_eth_sk_int_dyn/production/_ext/1164207549/tcpip_packet.o
 .data          0x00000000        0x0 build/pic32mx_eth_sk_int_dyn/production/_ext/1164207549/tcpip_packet.o
 .bss           0x00000000        0x0 build/pic32mx_eth_sk_int_dyn/production/_ext/1164207549/tcpip_packet.o
 .reginfo       0x00000000       0x18 build/pic32mx_eth_sk_int_dyn/production/_ext/1164207549/tcpip_packet.o
 .text.TCPIP_PKT_SegmentAlloc
                0x00000000      0x12c build/pic32mx_eth_sk_int_dyn/production/_ext/1164207549/tcpip_packet.o
 .text.TCPIP_PKT_SegmentAppend
                0x00000000       0x8c build/pic32mx_eth_sk_int_dyn/production/_ext/1164207549/tcpip_packet.o
 .text.TCPIP_PKT_SegmentFree
                0x00000000       0x78 build/pic32mx_eth_sk_int_dyn/production/_ext/1164207549/tcpip_packet.o
 .text          0x00000000        0x0 build/pic32mx_eth_sk_int_dyn/production/_ext/1164207549/tcpip_reboot.o
 .data          0x00000000        0x0 build/pic32mx_eth_sk_int_dyn/production/_ext/1164207549/tcpip_reboot.o
 .bss           0x00000000        0x0 build/pic32mx_eth_sk_int_dyn/production/_ext/1164207549/tcpip_reboot.o
 .reginfo       0x00000000       0x18 build/pic32mx_eth_sk_int_dyn/production/_ext/1164207549/tcpip_reboot.o
 .text          0x00000000        0x0 build/pic32mx_eth_sk_int_dyn/production/_ext/1164207549/telnet.o
 .data          0x00000000        0x0 build/pic32mx_eth_sk_int_dyn/production/_ext/1164207549/telnet.o
 .reginfo       0x00000000       0x18 build/pic32mx_eth_sk_int_dyn/production/_ext/1164207549/telnet.o
 .text          0x00000000        0x0 build/pic32mx_eth_sk_int_dyn/production/_ext/1164207549/udp.o
 .data          0x00000000        0x0 build/pic32mx_eth_sk_int_dyn/production/_ext/1164207549/udp.o
 .reginfo       0x00000000       0x18 build/pic32mx_eth_sk_int_dyn/production/_ext/1164207549/udp.o
 .text.TCPIP_UDP_StringPut
                0x00000000       0xa8 build/pic32mx_eth_sk_int_dyn/production/_ext/1164207549/udp.o
 .text.TCPIP_UDP_OptionsGet
                0x00000000      0x178 build/pic32mx_eth_sk_int_dyn/production/_ext/1164207549/udp.o
 .text.UDPSetSplitPayload
                0x00000000      0x108 build/pic32mx_eth_sk_int_dyn/production/_ext/1164207549/udp.o
 .text          0x00000000        0x0 build/pic32mx_eth_sk_int_dyn/production/_ext/1164207549/zero_conf_helper.o
 .data          0x00000000        0x0 build/pic32mx_eth_sk_int_dyn/production/_ext/1164207549/zero_conf_helper.o
 .bss           0x00000000        0x0 build/pic32mx_eth_sk_int_dyn/production/_ext/1164207549/zero_conf_helper.o
 .reginfo       0x00000000       0x18 build/pic32mx_eth_sk_int_dyn/production/_ext/1164207549/zero_conf_helper.o
 .text          0x00000000        0x0 build/pic32mx_eth_sk_int_dyn/production/_ext/1164207549/zero_conf_link_local.o
 .data          0x00000000        0x0 build/pic32mx_eth_sk_int_dyn/production/_ext/1164207549/zero_conf_link_local.o
 .bss           0x00000000        0x0 build/pic32mx_eth_sk_int_dyn/production/_ext/1164207549/zero_conf_link_local.o
 .reginfo       0x00000000       0x18 build/pic32mx_eth_sk_int_dyn/production/_ext/1164207549/zero_conf_link_local.o
 .text          0x00000000        0x0 build/pic32mx_eth_sk_int_dyn/production/_ext/1164207549/zero_conf_multicast_dns.o
 .data          0x00000000        0x0 build/pic32mx_eth_sk_int_dyn/production/_ext/1164207549/zero_conf_multicast_dns.o
 .bss           0x00000000        0x0 build/pic32mx_eth_sk_int_dyn/production/_ext/1164207549/zero_conf_multicast_dns.o
 .reginfo       0x00000000       0x18 build/pic32mx_eth_sk_int_dyn/production/_ext/1164207549/zero_conf_multicast_dns.o
 .text          0x00000000        0x0 build/pic32mx_eth_sk_int_dyn/production/_ext/1418760511/pic32mz_ports.o
 .data          0x00000000        0x0 build/pic32mx_eth_sk_int_dyn/production/_ext/1418760511/pic32mz_ports.o
 .bss           0x00000000        0x0 build/pic32mx_eth_sk_int_dyn/production/_ext/1418760511/pic32mz_ports.o
 .reginfo       0x00000000       0x18 build/pic32mx_eth_sk_int_dyn/production/_ext/1418760511/pic32mz_ports.o
 .text          0x00000000        0x0 build/pic32mx_eth_sk_int_dyn/production/_ext/1418760511/system_command.o
 .data          0x00000000        0x0 build/pic32mx_eth_sk_int_dyn/production/_ext/1418760511/system_command.o
 .reginfo       0x00000000       0x18 build/pic32mx_eth_sk_int_dyn/production/_ext/1418760511/system_command.o
 .text          0x00000000        0x0 build/pic32mx_eth_sk_int_dyn/production/_ext/1418760511/system_debug.o
 .bss           0x00000000        0x0 build/pic32mx_eth_sk_int_dyn/production/_ext/1418760511/system_debug.o
 .reginfo       0x00000000       0x18 build/pic32mx_eth_sk_int_dyn/production/_ext/1418760511/system_debug.o
 .text.__sys_assert
                0x00000000       0x3c build/pic32mx_eth_sk_int_dyn/production/_ext/1418760511/system_debug.o
 .text._SYS_PRINT
                0x00000000       0xcc build/pic32mx_eth_sk_int_dyn/production/_ext/1418760511/system_debug.o
 .text._SYS_CONSOLE_GETLINE
                0x00000000       0x58 build/pic32mx_eth_sk_int_dyn/production/_ext/1418760511/system_debug.o
 .text          0x00000000        0x0 build/pic32mx_eth_sk_int_dyn/production/_ext/1418760511/system_random.o
 .data          0x00000000        0x0 build/pic32mx_eth_sk_int_dyn/production/_ext/1418760511/system_random.o
 .reginfo       0x00000000       0x18 build/pic32mx_eth_sk_int_dyn/production/_ext/1418760511/system_random.o
 .text.SYS_RANDOM_GET
                0x00000000       0x90 build/pic32mx_eth_sk_int_dyn/production/_ext/1418760511/system_random.o
 .text._SYS_RANDOM_DE_INIT
                0x00000000       0x20 build/pic32mx_eth_sk_int_dyn/production/_ext/1418760511/system_random.o
 .text          0x00000000        0x0 build/pic32mx_eth_sk_int_dyn/production/_ext/1418760511/system_userio.o
 .data          0x00000000        0x0 build/pic32mx_eth_sk_int_dyn/production/_ext/1418760511/system_userio.o
 .reginfo       0x00000000       0x18 build/pic32mx_eth_sk_int_dyn/production/_ext/1418760511/system_userio.o
 .text.SYS_USERIO_ButtonGetBitMap
                0x00000000       0x84 build/pic32mx_eth_sk_int_dyn/production/_ext/1418760511/system_userio.o
 .text.SYS_USERIO_ButtonGet
                0x00000000      0x140 build/pic32mx_eth_sk_int_dyn/production/_ext/1418760511/system_userio.o
 .text.SYS_USERIO_ButtonsTest
                0x00000000       0xc4 build/pic32mx_eth_sk_int_dyn/production/_ext/1418760511/system_userio.o
 .text          0x00000000        0x0 build/pic32mx_eth_sk_int_dyn/production/_ext/1360937237/main.o
 .data          0x00000000        0x0 build/pic32mx_eth_sk_int_dyn/production/_ext/1360937237/main.o
 .bss           0x00000000        0x0 build/pic32mx_eth_sk_int_dyn/production/_ext/1360937237/main.o
 .reginfo       0x00000000       0x18 build/pic32mx_eth_sk_int_dyn/production/_ext/1360937237/main.o
 .data          0x00000000        0x0 ..\..\..\..\..\framework\tcpip\src\crypto\aes_pic32mx.a(AES_CFB.o)
 .bss           0x00000000        0x0 ..\..\..\..\..\framework\tcpip\src\crypto\aes_pic32mx.a(AES_CFB.o)
 .reginfo       0x00000000       0x18 ..\..\..\..\..\framework\tcpip\src\crypto\aes_pic32mx.a(AES_CFB.o)
 .pdr           0x00000000       0x40 ..\..\..\..\..\framework\tcpip\src\crypto\aes_pic32mx.a(AES_CFB.o)
 .bss           0x00000000        0x0 ..\..\..\..\..\framework\tcpip\src\crypto\aes_pic32mx.a(AES_ECB_PIC32.o)
 .reginfo       0x00000000       0x18 ..\..\..\..\..\framework\tcpip\src\crypto\aes_pic32mx.a(AES_ECB_PIC32.o)
 .pdr           0x00000000       0x80 ..\..\..\..\..\framework\tcpip\src\crypto\aes_pic32mx.a(AES_ECB_PIC32.o)
 .text          0x00000000        0x0 c:/program files/microchip/xc32/v1.30-tc9/bin/../lib/gcc/pic32mx/4.5.2/../../../../pic32mx/lib/./proc/32MX795F512L\default_isr_vectors.o
 .data          0x00000000        0x0 c:/program files/microchip/xc32/v1.30-tc9/bin/../lib/gcc/pic32mx/4.5.2/../../../../pic32mx/lib/./proc/32MX795F512L\default_isr_vectors.o
 .bss           0x00000000        0x0 c:/program files/microchip/xc32/v1.30-tc9/bin/../lib/gcc/pic32mx/4.5.2/../../../../pic32mx/lib/./proc/32MX795F512L\default_isr_vectors.o
 .reginfo       0x00000000       0x18 c:/program files/microchip/xc32/v1.30-tc9/bin/../lib/gcc/pic32mx/4.5.2/../../../../pic32mx/lib/./proc/32MX795F512L\default_isr_vectors.o
 .discard       0x00000000      0x100 c:/program files/microchip/xc32/v1.30-tc9/bin/../lib/gcc/pic32mx/4.5.2/../../../../pic32mx/lib/./proc/32MX795F512L\default_isr_vectors.o
 .text          0x00000000        0x0 c:/program files/microchip/xc32/v1.30-tc9/bin/../lib/gcc/pic32mx/4.5.2/../../../../pic32mx/lib/./proc/32MX795F512L\processor.o
 .data          0x00000000        0x0 c:/program files/microchip/xc32/v1.30-tc9/bin/../lib/gcc/pic32mx/4.5.2/../../../../pic32mx/lib/./proc/32MX795F512L\processor.o
 .bss           0x00000000        0x0 c:/program files/microchip/xc32/v1.30-tc9/bin/../lib/gcc/pic32mx/4.5.2/../../../../pic32mx/lib/./proc/32MX795F512L\processor.o
 .reginfo       0x00000000       0x18 c:/program files/microchip/xc32/v1.30-tc9/bin/../lib/gcc/pic32mx/4.5.2/../../../../pic32mx/lib/./proc/32MX795F512L\processor.o
 .text          0x00000000        0x0 c:/program files/microchip/xc32/v1.30-tc9/bin/../lib/gcc/pic32mx/4.5.2/../../../../pic32mx/lib\libmchp_peripheral_32MX795F512L.a(port_set_pins_digital_in_lib.o)
 .data          0x00000000        0x0 c:/program files/microchip/xc32/v1.30-tc9/bin/../lib/gcc/pic32mx/4.5.2/../../../../pic32mx/lib\libmchp_peripheral_32MX795F512L.a(port_set_pins_digital_in_lib.o)
 .bss           0x00000000        0x0 c:/program files/microchip/xc32/v1.30-tc9/bin/../lib/gcc/pic32mx/4.5.2/../../../../pic32mx/lib\libmchp_peripheral_32MX795F512L.a(port_set_pins_digital_in_lib.o)
 .reginfo       0x00000000       0x18 c:/program files/microchip/xc32/v1.30-tc9/bin/../lib/gcc/pic32mx/4.5.2/../../../../pic32mx/lib\libmchp_peripheral_32MX795F512L.a(port_set_pins_digital_in_lib.o)
 .pdr           0x00000000       0x20 c:/program files/microchip/xc32/v1.30-tc9/bin/../lib/gcc/pic32mx/4.5.2/../../../../pic32mx/lib\libmchp_peripheral_32MX795F512L.a(port_set_pins_digital_in_lib.o)
 .text          0x00000000        0x0 c:/program files/microchip/xc32/v1.30-tc9/bin/../lib/gcc/pic32mx/4.5.2/../../../../pic32mx/lib\libmchp_peripheral_32MX795F512L.a(port_set_pins_digital_out_lib.o)
 .data          0x00000000        0x0 c:/program files/microchip/xc32/v1.30-tc9/bin/../lib/gcc/pic32mx/4.5.2/../../../../pic32mx/lib\libmchp_peripheral_32MX795F512L.a(port_set_pins_digital_out_lib.o)
 .bss           0x00000000        0x0 c:/program files/microchip/xc32/v1.30-tc9/bin/../lib/gcc/pic32mx/4.5.2/../../../../pic32mx/lib\libmchp_peripheral_32MX795F512L.a(port_set_pins_digital_out_lib.o)
 .reginfo       0x00000000       0x18 c:/program files/microchip/xc32/v1.30-tc9/bin/../lib/gcc/pic32mx/4.5.2/../../../../pic32mx/lib\libmchp_peripheral_32MX795F512L.a(port_set_pins_digital_out_lib.o)
 .pdr           0x00000000       0x20 c:/program files/microchip/xc32/v1.30-tc9/bin/../lib/gcc/pic32mx/4.5.2/../../../../pic32mx/lib\libmchp_peripheral_32MX795F512L.a(port_set_pins_digital_out_lib.o)
 .text          0x00000000        0x0 c:/program files/microchip/xc32/v1.30-tc9/bin/../lib/gcc/pic32mx/4.5.2/../../../../pic32mx/lib\libmchp_peripheral_32MX795F512L.a(_ports_tbl_libp.o)
 .data          0x00000000        0x0 c:/program files/microchip/xc32/v1.30-tc9/bin/../lib/gcc/pic32mx/4.5.2/../../../../pic32mx/lib\libmchp_peripheral_32MX795F512L.a(_ports_tbl_libp.o)
 .bss           0x00000000        0x0 c:/program files/microchip/xc32/v1.30-tc9/bin/../lib/gcc/pic32mx/4.5.2/../../../../pic32mx/lib\libmchp_peripheral_32MX795F512L.a(_ports_tbl_libp.o)
 .reginfo       0x00000000       0x18 c:/program files/microchip/xc32/v1.30-tc9/bin/../lib/gcc/pic32mx/4.5.2/../../../../pic32mx/lib\libmchp_peripheral_32MX795F512L.a(_ports_tbl_libp.o)
 .pdr           0x00000000        0x0 c:/program files/microchip/xc32/v1.30-tc9/bin/../lib/gcc/pic32mx/4.5.2/../../../../pic32mx/lib\libmchp_peripheral_32MX795F512L.a(_ports_tbl_libp.o)
 .data          0x00000000        0x0 c:/program files/microchip/xc32/v1.30-tc9/bin/../lib/gcc/pic32mx/4.5.2\libgcc.a(_udivdi3.o)
 .bss           0x00000000        0x0 c:/program files/microchip/xc32/v1.30-tc9/bin/../lib/gcc/pic32mx/4.5.2\libgcc.a(_udivdi3.o)
 .reginfo       0x00000000       0x18 c:/program files/microchip/xc32/v1.30-tc9/bin/../lib/gcc/pic32mx/4.5.2\libgcc.a(_udivdi3.o)
 .data          0x00000000        0x0 c:/program files/microchip/xc32/v1.30-tc9/bin/../lib/gcc/pic32mx/4.5.2\libgcc.a(floatunsisf.o)
 .bss           0x00000000        0x0 c:/program files/microchip/xc32/v1.30-tc9/bin/../lib/gcc/pic32mx/4.5.2\libgcc.a(floatunsisf.o)
 .reginfo       0x00000000       0x18 c:/program files/microchip/xc32/v1.30-tc9/bin/../lib/gcc/pic32mx/4.5.2\libgcc.a(floatunsisf.o)
 .data          0x00000000        0x0 c:/program files/microchip/xc32/v1.30-tc9/bin/../lib/gcc/pic32mx/4.5.2/../../../../pic32mx/lib\libpic32.a(memcmp.o)
 .bss           0x00000000        0x0 c:/program files/microchip/xc32/v1.30-tc9/bin/../lib/gcc/pic32mx/4.5.2/../../../../pic32mx/lib\libpic32.a(memcmp.o)
 .reginfo       0x00000000       0x18 c:/program files/microchip/xc32/v1.30-tc9/bin/../lib/gcc/pic32mx/4.5.2/../../../../pic32mx/lib\libpic32.a(memcmp.o)
 .data          0x00000000        0x0 c:/program files/microchip/xc32/v1.30-tc9/bin/../lib/gcc/pic32mx/4.5.2/../../../../pic32mx/lib\libpic32.a(memcpy.o)
 .bss           0x00000000        0x0 c:/program files/microchip/xc32/v1.30-tc9/bin/../lib/gcc/pic32mx/4.5.2/../../../../pic32mx/lib\libpic32.a(memcpy.o)
 .reginfo       0x00000000       0x18 c:/program files/microchip/xc32/v1.30-tc9/bin/../lib/gcc/pic32mx/4.5.2/../../../../pic32mx/lib\libpic32.a(memcpy.o)
 .data          0x00000000        0x0 c:/program files/microchip/xc32/v1.30-tc9/bin/../lib/gcc/pic32mx/4.5.2/../../../../pic32mx/lib\libpic32.a(memset.o)
 .bss           0x00000000        0x0 c:/program files/microchip/xc32/v1.30-tc9/bin/../lib/gcc/pic32mx/4.5.2/../../../../pic32mx/lib\libpic32.a(memset.o)
 .reginfo       0x00000000       0x18 c:/program files/microchip/xc32/v1.30-tc9/bin/../lib/gcc/pic32mx/4.5.2/../../../../pic32mx/lib\libpic32.a(memset.o)
 .data          0x00000000        0x0 c:/program files/microchip/xc32/v1.30-tc9/bin/../lib/gcc/pic32mx/4.5.2/../../../../pic32mx/lib\libpic32.a(strcmp.o)
 .bss           0x00000000        0x0 c:/program files/microchip/xc32/v1.30-tc9/bin/../lib/gcc/pic32mx/4.5.2/../../../../pic32mx/lib\libpic32.a(strcmp.o)
 .reginfo       0x00000000       0x18 c:/program files/microchip/xc32/v1.30-tc9/bin/../lib/gcc/pic32mx/4.5.2/../../../../pic32mx/lib\libpic32.a(strcmp.o)
 .data          0x00000000        0x0 c:/program files/microchip/xc32/v1.30-tc9/bin/../lib/gcc/pic32mx/4.5.2/../../../../pic32mx/lib\libpic32.a(strcpy.o)
 .bss           0x00000000        0x0 c:/program files/microchip/xc32/v1.30-tc9/bin/../lib/gcc/pic32mx/4.5.2/../../../../pic32mx/lib\libpic32.a(strcpy.o)
 .reginfo       0x00000000       0x18 c:/program files/microchip/xc32/v1.30-tc9/bin/../lib/gcc/pic32mx/4.5.2/../../../../pic32mx/lib\libpic32.a(strcpy.o)
 .data          0x00000000        0x0 c:/program files/microchip/xc32/v1.30-tc9/bin/../lib/gcc/pic32mx/4.5.2/../../../../pic32mx/lib\libpic32.a(strlen.o)
 .bss           0x00000000        0x0 c:/program files/microchip/xc32/v1.30-tc9/bin/../lib/gcc/pic32mx/4.5.2/../../../../pic32mx/lib\libpic32.a(strlen.o)
 .reginfo       0x00000000       0x18 c:/program files/microchip/xc32/v1.30-tc9/bin/../lib/gcc/pic32mx/4.5.2/../../../../pic32mx/lib\libpic32.a(strlen.o)
 .text          0x00000000        0x0 c:/program files/microchip/xc32/v1.30-tc9/bin/../lib/gcc/pic32mx/4.5.2/../../../../pic32mx/lib\libpic32.a(default-bootstrap-exception-handler.o)
 .data          0x00000000        0x0 c:/program files/microchip/xc32/v1.30-tc9/bin/../lib/gcc/pic32mx/4.5.2/../../../../pic32mx/lib\libpic32.a(default-bootstrap-exception-handler.o)
 .bss           0x00000000        0x0 c:/program files/microchip/xc32/v1.30-tc9/bin/../lib/gcc/pic32mx/4.5.2/../../../../pic32mx/lib\libpic32.a(default-bootstrap-exception-handler.o)
 .reginfo       0x00000000       0x18 c:/program files/microchip/xc32/v1.30-tc9/bin/../lib/gcc/pic32mx/4.5.2/../../../../pic32mx/lib\libpic32.a(default-bootstrap-exception-handler.o)
 .text          0x00000000        0x0 c:/program files/microchip/xc32/v1.30-tc9/bin/../lib/gcc/pic32mx/4.5.2/../../../../pic32mx/lib\libpic32.a(default-on-reset.o)
 .data          0x00000000        0x0 c:/program files/microchip/xc32/v1.30-tc9/bin/../lib/gcc/pic32mx/4.5.2/../../../../pic32mx/lib\libpic32.a(default-on-reset.o)
 .bss           0x00000000        0x0 c:/program files/microchip/xc32/v1.30-tc9/bin/../lib/gcc/pic32mx/4.5.2/../../../../pic32mx/lib\libpic32.a(default-on-reset.o)
 .reginfo       0x00000000       0x18 c:/program files/microchip/xc32/v1.30-tc9/bin/../lib/gcc/pic32mx/4.5.2/../../../../pic32mx/lib\libpic32.a(default-on-reset.o)
 .text          0x00000000        0x0 c:/program files/microchip/xc32/v1.30-tc9/bin/../lib/gcc/pic32mx/4.5.2/../../../../pic32mx/lib\libpic32.a(default-on-bootstrap.o)
 .data          0x00000000        0x0 c:/program files/microchip/xc32/v1.30-tc9/bin/../lib/gcc/pic32mx/4.5.2/../../../../pic32mx/lib\libpic32.a(default-on-bootstrap.o)
 .bss           0x00000000        0x0 c:/program files/microchip/xc32/v1.30-tc9/bin/../lib/gcc/pic32mx/4.5.2/../../../../pic32mx/lib\libpic32.a(default-on-bootstrap.o)
 .reginfo       0x00000000       0x18 c:/program files/microchip/xc32/v1.30-tc9/bin/../lib/gcc/pic32mx/4.5.2/../../../../pic32mx/lib\libpic32.a(default-on-bootstrap.o)
 .data          0x00000000        0x0 c:/program files/microchip/xc32/v1.30-tc9/bin/../lib/gcc/pic32mx/4.5.2/../../../../pic32mx/lib\libpic32.a(default-nmi-handler.o)
 .bss           0x00000000        0x0 c:/program files/microchip/xc32/v1.30-tc9/bin/../lib/gcc/pic32mx/4.5.2/../../../../pic32mx/lib\libpic32.a(default-nmi-handler.o)
 .reginfo       0x00000000       0x18 c:/program files/microchip/xc32/v1.30-tc9/bin/../lib/gcc/pic32mx/4.5.2/../../../../pic32mx/lib\libpic32.a(default-nmi-handler.o)
 .text          0x00000000        0x0 c:/program files/microchip/xc32/v1.30-tc9/bin/../lib/gcc/pic32mx/4.5.2/../../../../pic32mx/lib\libpic32.a(general-exception.o)
 .data          0x00000000        0x0 c:/program files/microchip/xc32/v1.30-tc9/bin/../lib/gcc/pic32mx/4.5.2/../../../../pic32mx/lib\libpic32.a(general-exception.o)
 .bss           0x00000000        0x0 c:/program files/microchip/xc32/v1.30-tc9/bin/../lib/gcc/pic32mx/4.5.2/../../../../pic32mx/lib\libpic32.a(general-exception.o)
 .reginfo       0x00000000       0x18 c:/program files/microchip/xc32/v1.30-tc9/bin/../lib/gcc/pic32mx/4.5.2/../../../../pic32mx/lib\libpic32.a(general-exception.o)
 .text          0x00000000        0x0 c:/program files/microchip/xc32/v1.30-tc9/bin/../lib/gcc/pic32mx/4.5.2/../../../../pic32mx/lib\libpic32.a(vector1.o)
 .data          0x00000000        0x0 c:/program files/microchip/xc32/v1.30-tc9/bin/../lib/gcc/pic32mx/4.5.2/../../../../pic32mx/lib\libpic32.a(vector1.o)
 .bss           0x00000000        0x0 c:/program files/microchip/xc32/v1.30-tc9/bin/../lib/gcc/pic32mx/4.5.2/../../../../pic32mx/lib\libpic32.a(vector1.o)
 .reginfo       0x00000000       0x18 c:/program files/microchip/xc32/v1.30-tc9/bin/../lib/gcc/pic32mx/4.5.2/../../../../pic32mx/lib\libpic32.a(vector1.o)
 .text          0x00000000        0x0 c:/program files/microchip/xc32/v1.30-tc9/bin/../lib/gcc/pic32mx/4.5.2/../../../../pic32mx/lib\libpic32.a(vector2.o)
 .data          0x00000000        0x0 c:/program files/microchip/xc32/v1.30-tc9/bin/../lib/gcc/pic32mx/4.5.2/../../../../pic32mx/lib\libpic32.a(vector2.o)
 .bss           0x00000000        0x0 c:/program files/microchip/xc32/v1.30-tc9/bin/../lib/gcc/pic32mx/4.5.2/../../../../pic32mx/lib\libpic32.a(vector2.o)
 .reginfo       0x00000000       0x18 c:/program files/microchip/xc32/v1.30-tc9/bin/../lib/gcc/pic32mx/4.5.2/../../../../pic32mx/lib\libpic32.a(vector2.o)
 .text          0x00000000        0x0 c:/program files/microchip/xc32/v1.30-tc9/bin/../lib/gcc/pic32mx/4.5.2/../../../../pic32mx/lib\libpic32.a(vector3.o)
 .data          0x00000000        0x0 c:/program files/microchip/xc32/v1.30-tc9/bin/../lib/gcc/pic32mx/4.5.2/../../../../pic32mx/lib\libpic32.a(vector3.o)
 .bss           0x00000000        0x0 c:/program files/microchip/xc32/v1.30-tc9/bin/../lib/gcc/pic32mx/4.5.2/../../../../pic32mx/lib\libpic32.a(vector3.o)
 .reginfo       0x00000000       0x18 c:/program files/microchip/xc32/v1.30-tc9/bin/../lib/gcc/pic32mx/4.5.2/../../../../pic32mx/lib\libpic32.a(vector3.o)
 .text          0x00000000        0x0 c:/program files/microchip/xc32/v1.30-tc9/bin/../lib/gcc/pic32mx/4.5.2/../../../../pic32mx/lib\libpic32.a(vector4.o)
 .data          0x00000000        0x0 c:/program files/microchip/xc32/v1.30-tc9/bin/../lib/gcc/pic32mx/4.5.2/../../../../pic32mx/lib\libpic32.a(vector4.o)
 .bss           0x00000000        0x0 c:/program files/microchip/xc32/v1.30-tc9/bin/../lib/gcc/pic32mx/4.5.2/../../../../pic32mx/lib\libpic32.a(vector4.o)
 .reginfo       0x00000000       0x18 c:/program files/microchip/xc32/v1.30-tc9/bin/../lib/gcc/pic32mx/4.5.2/../../../../pic32mx/lib\libpic32.a(vector4.o)
 .text          0x00000000        0x0 c:/program files/microchip/xc32/v1.30-tc9/bin/../lib/gcc/pic32mx/4.5.2/../../../../pic32mx/lib\libpic32.a(vector5.o)
 .data          0x00000000        0x0 c:/program files/microchip/xc32/v1.30-tc9/bin/../lib/gcc/pic32mx/4.5.2/../../../../pic32mx/lib\libpic32.a(vector5.o)
 .bss           0x00000000        0x0 c:/program files/microchip/xc32/v1.30-tc9/bin/../lib/gcc/pic32mx/4.5.2/../../../../pic32mx/lib\libpic32.a(vector5.o)
 .reginfo       0x00000000       0x18 c:/program files/microchip/xc32/v1.30-tc9/bin/../lib/gcc/pic32mx/4.5.2/../../../../pic32mx/lib\libpic32.a(vector5.o)
 .text          0x00000000        0x0 c:/program files/microchip/xc32/v1.30-tc9/bin/../lib/gcc/pic32mx/4.5.2/../../../../pic32mx/lib\libpic32.a(vector6.o)
 .data          0x00000000        0x0 c:/program files/microchip/xc32/v1.30-tc9/bin/../lib/gcc/pic32mx/4.5.2/../../../../pic32mx/lib\libpic32.a(vector6.o)
 .bss           0x00000000        0x0 c:/program files/microchip/xc32/v1.30-tc9/bin/../lib/gcc/pic32mx/4.5.2/../../../../pic32mx/lib\libpic32.a(vector6.o)
 .reginfo       0x00000000       0x18 c:/program files/microchip/xc32/v1.30-tc9/bin/../lib/gcc/pic32mx/4.5.2/../../../../pic32mx/lib\libpic32.a(vector6.o)
 .text          0x00000000        0x0 c:/program files/microchip/xc32/v1.30-tc9/bin/../lib/gcc/pic32mx/4.5.2/../../../../pic32mx/lib\libpic32.a(vector7.o)
 .data          0x00000000        0x0 c:/program files/microchip/xc32/v1.30-tc9/bin/../lib/gcc/pic32mx/4.5.2/../../../../pic32mx/lib\libpic32.a(vector7.o)
 .bss           0x00000000        0x0 c:/program files/microchip/xc32/v1.30-tc9/bin/../lib/gcc/pic32mx/4.5.2/../../../../pic32mx/lib\libpic32.a(vector7.o)
 .reginfo       0x00000000       0x18 c:/program files/microchip/xc32/v1.30-tc9/bin/../lib/gcc/pic32mx/4.5.2/../../../../pic32mx/lib\libpic32.a(vector7.o)
 .text          0x00000000        0x0 c:/program files/microchip/xc32/v1.30-tc9/bin/../lib/gcc/pic32mx/4.5.2/../../../../pic32mx/lib\libpic32.a(vector8.o)
 .data          0x00000000        0x0 c:/program files/microchip/xc32/v1.30-tc9/bin/../lib/gcc/pic32mx/4.5.2/../../../../pic32mx/lib\libpic32.a(vector8.o)
 .bss           0x00000000        0x0 c:/program files/microchip/xc32/v1.30-tc9/bin/../lib/gcc/pic32mx/4.5.2/../../../../pic32mx/lib\libpic32.a(vector8.o)
 .reginfo       0x00000000       0x18 c:/program files/microchip/xc32/v1.30-tc9/bin/../lib/gcc/pic32mx/4.5.2/../../../../pic32mx/lib\libpic32.a(vector8.o)
 .text          0x00000000        0x0 c:/program files/microchip/xc32/v1.30-tc9/bin/../lib/gcc/pic32mx/4.5.2/../../../../pic32mx/lib\libpic32.a(vector9.o)
 .data          0x00000000        0x0 c:/program files/microchip/xc32/v1.30-tc9/bin/../lib/gcc/pic32mx/4.5.2/../../../../pic32mx/lib\libpic32.a(vector9.o)
 .bss           0x00000000        0x0 c:/program files/microchip/xc32/v1.30-tc9/bin/../lib/gcc/pic32mx/4.5.2/../../../../pic32mx/lib\libpic32.a(vector9.o)
 .reginfo       0x00000000       0x18 c:/program files/microchip/xc32/v1.30-tc9/bin/../lib/gcc/pic32mx/4.5.2/../../../../pic32mx/lib\libpic32.a(vector9.o)
 .text          0x00000000        0x0 c:/program files/microchip/xc32/v1.30-tc9/bin/../lib/gcc/pic32mx/4.5.2/../../../../pic32mx/lib\libpic32.a(vector10.o)
 .data          0x00000000        0x0 c:/program files/microchip/xc32/v1.30-tc9/bin/../lib/gcc/pic32mx/4.5.2/../../../../pic32mx/lib\libpic32.a(vector10.o)
 .bss           0x00000000        0x0 c:/program files/microchip/xc32/v1.30-tc9/bin/../lib/gcc/pic32mx/4.5.2/../../../../pic32mx/lib\libpic32.a(vector10.o)
 .reginfo       0x00000000       0x18 c:/program files/microchip/xc32/v1.30-tc9/bin/../lib/gcc/pic32mx/4.5.2/../../../../pic32mx/lib\libpic32.a(vector10.o)
 .text          0x00000000        0x0 c:/program files/microchip/xc32/v1.30-tc9/bin/../lib/gcc/pic32mx/4.5.2/../../../../pic32mx/lib\libpic32.a(vector11.o)
 .data          0x00000000        0x0 c:/program files/microchip/xc32/v1.30-tc9/bin/../lib/gcc/pic32mx/4.5.2/../../../../pic32mx/lib\libpic32.a(vector11.o)
 .bss           0x00000000        0x0 c:/program files/microchip/xc32/v1.30-tc9/bin/../lib/gcc/pic32mx/4.5.2/../../../../pic32mx/lib\libpic32.a(vector11.o)
 .reginfo       0x00000000       0x18 c:/program files/microchip/xc32/v1.30-tc9/bin/../lib/gcc/pic32mx/4.5.2/../../../../pic32mx/lib\libpic32.a(vector11.o)
 .text          0x00000000        0x0 c:/program files/microchip/xc32/v1.30-tc9/bin/../lib/gcc/pic32mx/4.5.2/../../../../pic32mx/lib\libpic32.a(vector12.o)
 .data          0x00000000        0x0 c:/program files/microchip/xc32/v1.30-tc9/bin/../lib/gcc/pic32mx/4.5.2/../../../../pic32mx/lib\libpic32.a(vector12.o)
 .bss           0x00000000        0x0 c:/program files/microchip/xc32/v1.30-tc9/bin/../lib/gcc/pic32mx/4.5.2/../../../../pic32mx/lib\libpic32.a(vector12.o)
 .reginfo       0x00000000       0x18 c:/program files/microchip/xc32/v1.30-tc9/bin/../lib/gcc/pic32mx/4.5.2/../../../../pic32mx/lib\libpic32.a(vector12.o)
 .text          0x00000000        0x0 c:/program files/microchip/xc32/v1.30-tc9/bin/../lib/gcc/pic32mx/4.5.2/../../../../pic32mx/lib\libpic32.a(vector13.o)
 .data          0x00000000        0x0 c:/program files/microchip/xc32/v1.30-tc9/bin/../lib/gcc/pic32mx/4.5.2/../../../../pic32mx/lib\libpic32.a(vector13.o)
 .bss           0x00000000        0x0 c:/program files/microchip/xc32/v1.30-tc9/bin/../lib/gcc/pic32mx/4.5.2/../../../../pic32mx/lib\libpic32.a(vector13.o)
 .reginfo       0x00000000       0x18 c:/program files/microchip/xc32/v1.30-tc9/bin/../lib/gcc/pic32mx/4.5.2/../../../../pic32mx/lib\libpic32.a(vector13.o)
 .text          0x00000000        0x0 c:/program files/microchip/xc32/v1.30-tc9/bin/../lib/gcc/pic32mx/4.5.2/../../../../pic32mx/lib\libpic32.a(vector14.o)
 .data          0x00000000        0x0 c:/program files/microchip/xc32/v1.30-tc9/bin/../lib/gcc/pic32mx/4.5.2/../../../../pic32mx/lib\libpic32.a(vector14.o)
 .bss           0x00000000        0x0 c:/program files/microchip/xc32/v1.30-tc9/bin/../lib/gcc/pic32mx/4.5.2/../../../../pic32mx/lib\libpic32.a(vector14.o)
 .reginfo       0x00000000       0x18 c:/program files/microchip/xc32/v1.30-tc9/bin/../lib/gcc/pic32mx/4.5.2/../../../../pic32mx/lib\libpic32.a(vector14.o)
 .text          0x00000000        0x0 c:/program files/microchip/xc32/v1.30-tc9/bin/../lib/gcc/pic32mx/4.5.2/../../../../pic32mx/lib\libpic32.a(vector15.o)
 .data          0x00000000        0x0 c:/program files/microchip/xc32/v1.30-tc9/bin/../lib/gcc/pic32mx/4.5.2/../../../../pic32mx/lib\libpic32.a(vector15.o)
 .bss           0x00000000        0x0 c:/program files/microchip/xc32/v1.30-tc9/bin/../lib/gcc/pic32mx/4.5.2/../../../../pic32mx/lib\libpic32.a(vector15.o)
 .reginfo       0x00000000       0x18 c:/program files/microchip/xc32/v1.30-tc9/bin/../lib/gcc/pic32mx/4.5.2/../../../../pic32mx/lib\libpic32.a(vector15.o)
 .text          0x00000000        0x0 c:/program files/microchip/xc32/v1.30-tc9/bin/../lib/gcc/pic32mx/4.5.2/../../../../pic32mx/lib\libpic32.a(vector16.o)
 .data          0x00000000        0x0 c:/program files/microchip/xc32/v1.30-tc9/bin/../lib/gcc/pic32mx/4.5.2/../../../../pic32mx/lib\libpic32.a(vector16.o)
 .bss           0x00000000        0x0 c:/program files/microchip/xc32/v1.30-tc9/bin/../lib/gcc/pic32mx/4.5.2/../../../../pic32mx/lib\libpic32.a(vector16.o)
 .reginfo       0x00000000       0x18 c:/program files/microchip/xc32/v1.30-tc9/bin/../lib/gcc/pic32mx/4.5.2/../../../../pic32mx/lib\libpic32.a(vector16.o)
 .text          0x00000000        0x0 c:/program files/microchip/xc32/v1.30-tc9/bin/../lib/gcc/pic32mx/4.5.2/../../../../pic32mx/lib\libpic32.a(vector17.o)
 .data          0x00000000        0x0 c:/program files/microchip/xc32/v1.30-tc9/bin/../lib/gcc/pic32mx/4.5.2/../../../../pic32mx/lib\libpic32.a(vector17.o)
 .bss           0x00000000        0x0 c:/program files/microchip/xc32/v1.30-tc9/bin/../lib/gcc/pic32mx/4.5.2/../../../../pic32mx/lib\libpic32.a(vector17.o)
 .reginfo       0x00000000       0x18 c:/program files/microchip/xc32/v1.30-tc9/bin/../lib/gcc/pic32mx/4.5.2/../../../../pic32mx/lib\libpic32.a(vector17.o)
 .text          0x00000000        0x0 c:/program files/microchip/xc32/v1.30-tc9/bin/../lib/gcc/pic32mx/4.5.2/../../../../pic32mx/lib\libpic32.a(vector18.o)
 .data          0x00000000        0x0 c:/program files/microchip/xc32/v1.30-tc9/bin/../lib/gcc/pic32mx/4.5.2/../../../../pic32mx/lib\libpic32.a(vector18.o)
 .bss           0x00000000        0x0 c:/program files/microchip/xc32/v1.30-tc9/bin/../lib/gcc/pic32mx/4.5.2/../../../../pic32mx/lib\libpic32.a(vector18.o)
 .reginfo       0x00000000       0x18 c:/program files/microchip/xc32/v1.30-tc9/bin/../lib/gcc/pic32mx/4.5.2/../../../../pic32mx/lib\libpic32.a(vector18.o)
 .text          0x00000000        0x0 c:/program files/microchip/xc32/v1.30-tc9/bin/../lib/gcc/pic32mx/4.5.2/../../../../pic32mx/lib\libpic32.a(vector19.o)
 .data          0x00000000        0x0 c:/program files/microchip/xc32/v1.30-tc9/bin/../lib/gcc/pic32mx/4.5.2/../../../../pic32mx/lib\libpic32.a(vector19.o)
 .bss           0x00000000        0x0 c:/program files/microchip/xc32/v1.30-tc9/bin/../lib/gcc/pic32mx/4.5.2/../../../../pic32mx/lib\libpic32.a(vector19.o)
 .reginfo       0x00000000       0x18 c:/program files/microchip/xc32/v1.30-tc9/bin/../lib/gcc/pic32mx/4.5.2/../../../../pic32mx/lib\libpic32.a(vector19.o)
 .text          0x00000000        0x0 c:/program files/microchip/xc32/v1.30-tc9/bin/../lib/gcc/pic32mx/4.5.2/../../../../pic32mx/lib\libpic32.a(vector20.o)
 .data          0x00000000        0x0 c:/program files/microchip/xc32/v1.30-tc9/bin/../lib/gcc/pic32mx/4.5.2/../../../../pic32mx/lib\libpic32.a(vector20.o)
 .bss           0x00000000        0x0 c:/program files/microchip/xc32/v1.30-tc9/bin/../lib/gcc/pic32mx/4.5.2/../../../../pic32mx/lib\libpic32.a(vector20.o)
 .reginfo       0x00000000       0x18 c:/program files/microchip/xc32/v1.30-tc9/bin/../lib/gcc/pic32mx/4.5.2/../../../../pic32mx/lib\libpic32.a(vector20.o)
 .text          0x00000000        0x0 c:/program files/microchip/xc32/v1.30-tc9/bin/../lib/gcc/pic32mx/4.5.2/../../../../pic32mx/lib\libpic32.a(vector21.o)
 .data          0x00000000        0x0 c:/program files/microchip/xc32/v1.30-tc9/bin/../lib/gcc/pic32mx/4.5.2/../../../../pic32mx/lib\libpic32.a(vector21.o)
 .bss           0x00000000        0x0 c:/program files/microchip/xc32/v1.30-tc9/bin/../lib/gcc/pic32mx/4.5.2/../../../../pic32mx/lib\libpic32.a(vector21.o)
 .reginfo       0x00000000       0x18 c:/program files/microchip/xc32/v1.30-tc9/bin/../lib/gcc/pic32mx/4.5.2/../../../../pic32mx/lib\libpic32.a(vector21.o)
 .text          0x00000000        0x0 c:/program files/microchip/xc32/v1.30-tc9/bin/../lib/gcc/pic32mx/4.5.2/../../../../pic32mx/lib\libpic32.a(vector22.o)
 .data          0x00000000        0x0 c:/program files/microchip/xc32/v1.30-tc9/bin/../lib/gcc/pic32mx/4.5.2/../../../../pic32mx/lib\libpic32.a(vector22.o)
 .bss           0x00000000        0x0 c:/program files/microchip/xc32/v1.30-tc9/bin/../lib/gcc/pic32mx/4.5.2/../../../../pic32mx/lib\libpic32.a(vector22.o)
 .reginfo       0x00000000       0x18 c:/program files/microchip/xc32/v1.30-tc9/bin/../lib/gcc/pic32mx/4.5.2/../../../../pic32mx/lib\libpic32.a(vector22.o)
 .text          0x00000000        0x0 c:/program files/microchip/xc32/v1.30-tc9/bin/../lib/gcc/pic32mx/4.5.2/../../../../pic32mx/lib\libpic32.a(vector23.o)
 .data          0x00000000        0x0 c:/program files/microchip/xc32/v1.30-tc9/bin/../lib/gcc/pic32mx/4.5.2/../../../../pic32mx/lib\libpic32.a(vector23.o)
 .bss           0x00000000        0x0 c:/program files/microchip/xc32/v1.30-tc9/bin/../lib/gcc/pic32mx/4.5.2/../../../../pic32mx/lib\libpic32.a(vector23.o)
 .reginfo       0x00000000       0x18 c:/program files/microchip/xc32/v1.30-tc9/bin/../lib/gcc/pic32mx/4.5.2/../../../../pic32mx/lib\libpic32.a(vector23.o)
 .text          0x00000000        0x0 c:/program files/microchip/xc32/v1.30-tc9/bin/../lib/gcc/pic32mx/4.5.2/../../../../pic32mx/lib\libpic32.a(vector24.o)
 .data          0x00000000        0x0 c:/program files/microchip/xc32/v1.30-tc9/bin/../lib/gcc/pic32mx/4.5.2/../../../../pic32mx/lib\libpic32.a(vector24.o)
 .bss           0x00000000        0x0 c:/program files/microchip/xc32/v1.30-tc9/bin/../lib/gcc/pic32mx/4.5.2/../../../../pic32mx/lib\libpic32.a(vector24.o)
 .reginfo       0x00000000       0x18 c:/program files/microchip/xc32/v1.30-tc9/bin/../lib/gcc/pic32mx/4.5.2/../../../../pic32mx/lib\libpic32.a(vector24.o)
 .text          0x00000000        0x0 c:/program files/microchip/xc32/v1.30-tc9/bin/../lib/gcc/pic32mx/4.5.2/../../../../pic32mx/lib\libpic32.a(vector25.o)
 .data          0x00000000        0x0 c:/program files/microchip/xc32/v1.30-tc9/bin/../lib/gcc/pic32mx/4.5.2/../../../../pic32mx/lib\libpic32.a(vector25.o)
 .bss           0x00000000        0x0 c:/program files/microchip/xc32/v1.30-tc9/bin/../lib/gcc/pic32mx/4.5.2/../../../../pic32mx/lib\libpic32.a(vector25.o)
 .reginfo       0x00000000       0x18 c:/program files/microchip/xc32/v1.30-tc9/bin/../lib/gcc/pic32mx/4.5.2/../../../../pic32mx/lib\libpic32.a(vector25.o)
 .text          0x00000000        0x0 c:/program files/microchip/xc32/v1.30-tc9/bin/../lib/gcc/pic32mx/4.5.2/../../../../pic32mx/lib\libpic32.a(vector26.o)
 .data          0x00000000        0x0 c:/program files/microchip/xc32/v1.30-tc9/bin/../lib/gcc/pic32mx/4.5.2/../../../../pic32mx/lib\libpic32.a(vector26.o)
 .bss           0x00000000        0x0 c:/program files/microchip/xc32/v1.30-tc9/bin/../lib/gcc/pic32mx/4.5.2/../../../../pic32mx/lib\libpic32.a(vector26.o)
 .reginfo       0x00000000       0x18 c:/program files/microchip/xc32/v1.30-tc9/bin/../lib/gcc/pic32mx/4.5.2/../../../../pic32mx/lib\libpic32.a(vector26.o)
 .text          0x00000000        0x0 c:/program files/microchip/xc32/v1.30-tc9/bin/../lib/gcc/pic32mx/4.5.2/../../../../pic32mx/lib\libpic32.a(vector27.o)
 .data          0x00000000        0x0 c:/program files/microchip/xc32/v1.30-tc9/bin/../lib/gcc/pic32mx/4.5.2/../../../../pic32mx/lib\libpic32.a(vector27.o)
 .bss           0x00000000        0x0 c:/program files/microchip/xc32/v1.30-tc9/bin/../lib/gcc/pic32mx/4.5.2/../../../../pic32mx/lib\libpic32.a(vector27.o)
 .reginfo       0x00000000       0x18 c:/program files/microchip/xc32/v1.30-tc9/bin/../lib/gcc/pic32mx/4.5.2/../../../../pic32mx/lib\libpic32.a(vector27.o)
 .text          0x00000000        0x0 c:/program files/microchip/xc32/v1.30-tc9/bin/../lib/gcc/pic32mx/4.5.2/../../../../pic32mx/lib\libpic32.a(vector28.o)
 .data          0x00000000        0x0 c:/program files/microchip/xc32/v1.30-tc9/bin/../lib/gcc/pic32mx/4.5.2/../../../../pic32mx/lib\libpic32.a(vector28.o)
 .bss           0x00000000        0x0 c:/program files/microchip/xc32/v1.30-tc9/bin/../lib/gcc/pic32mx/4.5.2/../../../../pic32mx/lib\libpic32.a(vector28.o)
 .reginfo       0x00000000       0x18 c:/program files/microchip/xc32/v1.30-tc9/bin/../lib/gcc/pic32mx/4.5.2/../../../../pic32mx/lib\libpic32.a(vector28.o)
 .text          0x00000000        0x0 c:/program files/microchip/xc32/v1.30-tc9/bin/../lib/gcc/pic32mx/4.5.2/../../../../pic32mx/lib\libpic32.a(vector29.o)
 .data          0x00000000        0x0 c:/program files/microchip/xc32/v1.30-tc9/bin/../lib/gcc/pic32mx/4.5.2/../../../../pic32mx/lib\libpic32.a(vector29.o)
 .bss           0x00000000        0x0 c:/program files/microchip/xc32/v1.30-tc9/bin/../lib/gcc/pic32mx/4.5.2/../../../../pic32mx/lib\libpic32.a(vector29.o)
 .reginfo       0x00000000       0x18 c:/program files/microchip/xc32/v1.30-tc9/bin/../lib/gcc/pic32mx/4.5.2/../../../../pic32mx/lib\libpic32.a(vector29.o)
 .text          0x00000000        0x0 c:/program files/microchip/xc32/v1.30-tc9/bin/../lib/gcc/pic32mx/4.5.2/../../../../pic32mx/lib\libpic32.a(vector30.o)
 .data          0x00000000        0x0 c:/program files/microchip/xc32/v1.30-tc9/bin/../lib/gcc/pic32mx/4.5.2/../../../../pic32mx/lib\libpic32.a(vector30.o)
 .bss           0x00000000        0x0 c:/program files/microchip/xc32/v1.30-tc9/bin/../lib/gcc/pic32mx/4.5.2/../../../../pic32mx/lib\libpic32.a(vector30.o)
 .reginfo       0x00000000       0x18 c:/program files/microchip/xc32/v1.30-tc9/bin/../lib/gcc/pic32mx/4.5.2/../../../../pic32mx/lib\libpic32.a(vector30.o)
 .text          0x00000000        0x0 c:/program files/microchip/xc32/v1.30-tc9/bin/../lib/gcc/pic32mx/4.5.2/../../../../pic32mx/lib\libpic32.a(vector31.o)
 .data          0x00000000        0x0 c:/program files/microchip/xc32/v1.30-tc9/bin/../lib/gcc/pic32mx/4.5.2/../../../../pic32mx/lib\libpic32.a(vector31.o)
 .bss           0x00000000        0x0 c:/program files/microchip/xc32/v1.30-tc9/bin/../lib/gcc/pic32mx/4.5.2/../../../../pic32mx/lib\libpic32.a(vector31.o)
 .reginfo       0x00000000       0x18 c:/program files/microchip/xc32/v1.30-tc9/bin/../lib/gcc/pic32mx/4.5.2/../../../../pic32mx/lib\libpic32.a(vector31.o)
 .text          0x00000000        0x0 c:/program files/microchip/xc32/v1.30-tc9/bin/../lib/gcc/pic32mx/4.5.2/../../../../pic32mx/lib\libpic32.a(vector32.o)
 .data          0x00000000        0x0 c:/program files/microchip/xc32/v1.30-tc9/bin/../lib/gcc/pic32mx/4.5.2/../../../../pic32mx/lib\libpic32.a(vector32.o)
 .bss           0x00000000        0x0 c:/program files/microchip/xc32/v1.30-tc9/bin/../lib/gcc/pic32mx/4.5.2/../../../../pic32mx/lib\libpic32.a(vector32.o)
 .reginfo       0x00000000       0x18 c:/program files/microchip/xc32/v1.30-tc9/bin/../lib/gcc/pic32mx/4.5.2/../../../../pic32mx/lib\libpic32.a(vector32.o)
 .text          0x00000000        0x0 c:/program files/microchip/xc32/v1.30-tc9/bin/../lib/gcc/pic32mx/4.5.2/../../../../pic32mx/lib\libpic32.a(vector33.o)
 .data          0x00000000        0x0 c:/program files/microchip/xc32/v1.30-tc9/bin/../lib/gcc/pic32mx/4.5.2/../../../../pic32mx/lib\libpic32.a(vector33.o)
 .bss           0x00000000        0x0 c:/program files/microchip/xc32/v1.30-tc9/bin/../lib/gcc/pic32mx/4.5.2/../../../../pic32mx/lib\libpic32.a(vector33.o)
 .reginfo       0x00000000       0x18 c:/program files/microchip/xc32/v1.30-tc9/bin/../lib/gcc/pic32mx/4.5.2/../../../../pic32mx/lib\libpic32.a(vector33.o)
 .text          0x00000000        0x0 c:/program files/microchip/xc32/v1.30-tc9/bin/../lib/gcc/pic32mx/4.5.2/../../../../pic32mx/lib\libpic32.a(vector34.o)
 .data          0x00000000        0x0 c:/program files/microchip/xc32/v1.30-tc9/bin/../lib/gcc/pic32mx/4.5.2/../../../../pic32mx/lib\libpic32.a(vector34.o)
 .bss           0x00000000        0x0 c:/program files/microchip/xc32/v1.30-tc9/bin/../lib/gcc/pic32mx/4.5.2/../../../../pic32mx/lib\libpic32.a(vector34.o)
 .reginfo       0x00000000       0x18 c:/program files/microchip/xc32/v1.30-tc9/bin/../lib/gcc/pic32mx/4.5.2/../../../../pic32mx/lib\libpic32.a(vector34.o)
 .text          0x00000000        0x0 c:/program files/microchip/xc32/v1.30-tc9/bin/../lib/gcc/pic32mx/4.5.2/../../../../pic32mx/lib\libpic32.a(vector35.o)
 .data          0x00000000        0x0 c:/program files/microchip/xc32/v1.30-tc9/bin/../lib/gcc/pic32mx/4.5.2/../../../../pic32mx/lib\libpic32.a(vector35.o)
 .bss           0x00000000        0x0 c:/program files/microchip/xc32/v1.30-tc9/bin/../lib/gcc/pic32mx/4.5.2/../../../../pic32mx/lib\libpic32.a(vector35.o)
 .reginfo       0x00000000       0x18 c:/program files/microchip/xc32/v1.30-tc9/bin/../lib/gcc/pic32mx/4.5.2/../../../../pic32mx/lib\libpic32.a(vector35.o)
 .text          0x00000000        0x0 c:/program files/microchip/xc32/v1.30-tc9/bin/../lib/gcc/pic32mx/4.5.2/../../../../pic32mx/lib\libpic32.a(vector36.o)
 .data          0x00000000        0x0 c:/program files/microchip/xc32/v1.30-tc9/bin/../lib/gcc/pic32mx/4.5.2/../../../../pic32mx/lib\libpic32.a(vector36.o)
 .bss           0x00000000        0x0 c:/program files/microchip/xc32/v1.30-tc9/bin/../lib/gcc/pic32mx/4.5.2/../../../../pic32mx/lib\libpic32.a(vector36.o)
 .reginfo       0x00000000       0x18 c:/program files/microchip/xc32/v1.30-tc9/bin/../lib/gcc/pic32mx/4.5.2/../../../../pic32mx/lib\libpic32.a(vector36.o)
 .text          0x00000000        0x0 c:/program files/microchip/xc32/v1.30-tc9/bin/../lib/gcc/pic32mx/4.5.2/../../../../pic32mx/lib\libpic32.a(vector37.o)
 .data          0x00000000        0x0 c:/program files/microchip/xc32/v1.30-tc9/bin/../lib/gcc/pic32mx/4.5.2/../../../../pic32mx/lib\libpic32.a(vector37.o)
 .bss           0x00000000        0x0 c:/program files/microchip/xc32/v1.30-tc9/bin/../lib/gcc/pic32mx/4.5.2/../../../../pic32mx/lib\libpic32.a(vector37.o)
 .reginfo       0x00000000       0x18 c:/program files/microchip/xc32/v1.30-tc9/bin/../lib/gcc/pic32mx/4.5.2/../../../../pic32mx/lib\libpic32.a(vector37.o)
 .text          0x00000000        0x0 c:/program files/microchip/xc32/v1.30-tc9/bin/../lib/gcc/pic32mx/4.5.2/../../../../pic32mx/lib\libpic32.a(vector38.o)
 .data          0x00000000        0x0 c:/program files/microchip/xc32/v1.30-tc9/bin/../lib/gcc/pic32mx/4.5.2/../../../../pic32mx/lib\libpic32.a(vector38.o)
 .bss           0x00000000        0x0 c:/program files/microchip/xc32/v1.30-tc9/bin/../lib/gcc/pic32mx/4.5.2/../../../../pic32mx/lib\libpic32.a(vector38.o)
 .reginfo       0x00000000       0x18 c:/program files/microchip/xc32/v1.30-tc9/bin/../lib/gcc/pic32mx/4.5.2/../../../../pic32mx/lib\libpic32.a(vector38.o)
 .text          0x00000000        0x0 c:/program files/microchip/xc32/v1.30-tc9/bin/../lib/gcc/pic32mx/4.5.2/../../../../pic32mx/lib\libpic32.a(vector39.o)
 .data          0x00000000        0x0 c:/program files/microchip/xc32/v1.30-tc9/bin/../lib/gcc/pic32mx/4.5.2/../../../../pic32mx/lib\libpic32.a(vector39.o)
 .bss           0x00000000        0x0 c:/program files/microchip/xc32/v1.30-tc9/bin/../lib/gcc/pic32mx/4.5.2/../../../../pic32mx/lib\libpic32.a(vector39.o)
 .reginfo       0x00000000       0x18 c:/program files/microchip/xc32/v1.30-tc9/bin/../lib/gcc/pic32mx/4.5.2/../../../../pic32mx/lib\libpic32.a(vector39.o)
 .text          0x00000000        0x0 c:/program files/microchip/xc32/v1.30-tc9/bin/../lib/gcc/pic32mx/4.5.2/../../../../pic32mx/lib\libpic32.a(vector40.o)
 .data          0x00000000        0x0 c:/program files/microchip/xc32/v1.30-tc9/bin/../lib/gcc/pic32mx/4.5.2/../../../../pic32mx/lib\libpic32.a(vector40.o)
 .bss           0x00000000        0x0 c:/program files/microchip/xc32/v1.30-tc9/bin/../lib/gcc/pic32mx/4.5.2/../../../../pic32mx/lib\libpic32.a(vector40.o)
 .reginfo       0x00000000       0x18 c:/program files/microchip/xc32/v1.30-tc9/bin/../lib/gcc/pic32mx/4.5.2/../../../../pic32mx/lib\libpic32.a(vector40.o)
 .text          0x00000000        0x0 c:/program files/microchip/xc32/v1.30-tc9/bin/../lib/gcc/pic32mx/4.5.2/../../../../pic32mx/lib\libpic32.a(vector41.o)
 .data          0x00000000        0x0 c:/program files/microchip/xc32/v1.30-tc9/bin/../lib/gcc/pic32mx/4.5.2/../../../../pic32mx/lib\libpic32.a(vector41.o)
 .bss           0x00000000        0x0 c:/program files/microchip/xc32/v1.30-tc9/bin/../lib/gcc/pic32mx/4.5.2/../../../../pic32mx/lib\libpic32.a(vector41.o)
 .reginfo       0x00000000       0x18 c:/program files/microchip/xc32/v1.30-tc9/bin/../lib/gcc/pic32mx/4.5.2/../../../../pic32mx/lib\libpic32.a(vector41.o)
 .text          0x00000000        0x0 c:/program files/microchip/xc32/v1.30-tc9/bin/../lib/gcc/pic32mx/4.5.2/../../../../pic32mx/lib\libpic32.a(vector42.o)
 .data          0x00000000        0x0 c:/program files/microchip/xc32/v1.30-tc9/bin/../lib/gcc/pic32mx/4.5.2/../../../../pic32mx/lib\libpic32.a(vector42.o)
 .bss           0x00000000        0x0 c:/program files/microchip/xc32/v1.30-tc9/bin/../lib/gcc/pic32mx/4.5.2/../../../../pic32mx/lib\libpic32.a(vector42.o)
 .reginfo       0x00000000       0x18 c:/program files/microchip/xc32/v1.30-tc9/bin/../lib/gcc/pic32mx/4.5.2/../../../../pic32mx/lib\libpic32.a(vector42.o)
 .text          0x00000000        0x0 c:/program files/microchip/xc32/v1.30-tc9/bin/../lib/gcc/pic32mx/4.5.2/../../../../pic32mx/lib\libpic32.a(vector43.o)
 .data          0x00000000        0x0 c:/program files/microchip/xc32/v1.30-tc9/bin/../lib/gcc/pic32mx/4.5.2/../../../../pic32mx/lib\libpic32.a(vector43.o)
 .bss           0x00000000        0x0 c:/program files/microchip/xc32/v1.30-tc9/bin/../lib/gcc/pic32mx/4.5.2/../../../../pic32mx/lib\libpic32.a(vector43.o)
 .reginfo       0x00000000       0x18 c:/program files/microchip/xc32/v1.30-tc9/bin/../lib/gcc/pic32mx/4.5.2/../../../../pic32mx/lib\libpic32.a(vector43.o)
 .text          0x00000000        0x0 c:/program files/microchip/xc32/v1.30-tc9/bin/../lib/gcc/pic32mx/4.5.2/../../../../pic32mx/lib\libpic32.a(vector44.o)
 .data          0x00000000        0x0 c:/program files/microchip/xc32/v1.30-tc9/bin/../lib/gcc/pic32mx/4.5.2/../../../../pic32mx/lib\libpic32.a(vector44.o)
 .bss           0x00000000        0x0 c:/program files/microchip/xc32/v1.30-tc9/bin/../lib/gcc/pic32mx/4.5.2/../../../../pic32mx/lib\libpic32.a(vector44.o)
 .reginfo       0x00000000       0x18 c:/program files/microchip/xc32/v1.30-tc9/bin/../lib/gcc/pic32mx/4.5.2/../../../../pic32mx/lib\libpic32.a(vector44.o)
 .text          0x00000000        0x0 c:/program files/microchip/xc32/v1.30-tc9/bin/../lib/gcc/pic32mx/4.5.2/../../../../pic32mx/lib\libpic32.a(vector45.o)
 .data          0x00000000        0x0 c:/program files/microchip/xc32/v1.30-tc9/bin/../lib/gcc/pic32mx/4.5.2/../../../../pic32mx/lib\libpic32.a(vector45.o)
 .bss           0x00000000        0x0 c:/program files/microchip/xc32/v1.30-tc9/bin/../lib/gcc/pic32mx/4.5.2/../../../../pic32mx/lib\libpic32.a(vector45.o)
 .reginfo       0x00000000       0x18 c:/program files/microchip/xc32/v1.30-tc9/bin/../lib/gcc/pic32mx/4.5.2/../../../../pic32mx/lib\libpic32.a(vector45.o)
 .text          0x00000000        0x0 c:/program files/microchip/xc32/v1.30-tc9/bin/../lib/gcc/pic32mx/4.5.2/../../../../pic32mx/lib\libpic32.a(vector46.o)
 .data          0x00000000        0x0 c:/program files/microchip/xc32/v1.30-tc9/bin/../lib/gcc/pic32mx/4.5.2/../../../../pic32mx/lib\libpic32.a(vector46.o)
 .bss           0x00000000        0x0 c:/program files/microchip/xc32/v1.30-tc9/bin/../lib/gcc/pic32mx/4.5.2/../../../../pic32mx/lib\libpic32.a(vector46.o)
 .reginfo       0x00000000       0x18 c:/program files/microchip/xc32/v1.30-tc9/bin/../lib/gcc/pic32mx/4.5.2/../../../../pic32mx/lib\libpic32.a(vector46.o)
 .text          0x00000000        0x0 c:/program files/microchip/xc32/v1.30-tc9/bin/../lib/gcc/pic32mx/4.5.2/../../../../pic32mx/lib\libpic32.a(vector47.o)
 .data          0x00000000        0x0 c:/program files/microchip/xc32/v1.30-tc9/bin/../lib/gcc/pic32mx/4.5.2/../../../../pic32mx/lib\libpic32.a(vector47.o)
 .bss           0x00000000        0x0 c:/program files/microchip/xc32/v1.30-tc9/bin/../lib/gcc/pic32mx/4.5.2/../../../../pic32mx/lib\libpic32.a(vector47.o)
 .reginfo       0x00000000       0x18 c:/program files/microchip/xc32/v1.30-tc9/bin/../lib/gcc/pic32mx/4.5.2/../../../../pic32mx/lib\libpic32.a(vector47.o)
 .text          0x00000000        0x0 c:/program files/microchip/xc32/v1.30-tc9/bin/../lib/gcc/pic32mx/4.5.2/../../../../pic32mx/lib\libpic32.a(vector48.o)
 .data          0x00000000        0x0 c:/program files/microchip/xc32/v1.30-tc9/bin/../lib/gcc/pic32mx/4.5.2/../../../../pic32mx/lib\libpic32.a(vector48.o)
 .bss           0x00000000        0x0 c:/program files/microchip/xc32/v1.30-tc9/bin/../lib/gcc/pic32mx/4.5.2/../../../../pic32mx/lib\libpic32.a(vector48.o)
 .reginfo       0x00000000       0x18 c:/program files/microchip/xc32/v1.30-tc9/bin/../lib/gcc/pic32mx/4.5.2/../../../../pic32mx/lib\libpic32.a(vector48.o)
 .text          0x00000000        0x0 c:/program files/microchip/xc32/v1.30-tc9/bin/../lib/gcc/pic32mx/4.5.2/../../../../pic32mx/lib\libpic32.a(vector49.o)
 .data          0x00000000        0x0 c:/program files/microchip/xc32/v1.30-tc9/bin/../lib/gcc/pic32mx/4.5.2/../../../../pic32mx/lib\libpic32.a(vector49.o)
 .bss           0x00000000        0x0 c:/program files/microchip/xc32/v1.30-tc9/bin/../lib/gcc/pic32mx/4.5.2/../../../../pic32mx/lib\libpic32.a(vector49.o)
 .reginfo       0x00000000       0x18 c:/program files/microchip/xc32/v1.30-tc9/bin/../lib/gcc/pic32mx/4.5.2/../../../../pic32mx/lib\libpic32.a(vector49.o)
 .text          0x00000000        0x0 c:/program files/microchip/xc32/v1.30-tc9/bin/../lib/gcc/pic32mx/4.5.2/../../../../pic32mx/lib\libpic32.a(vector50.o)
 .data          0x00000000        0x0 c:/program files/microchip/xc32/v1.30-tc9/bin/../lib/gcc/pic32mx/4.5.2/../../../../pic32mx/lib\libpic32.a(vector50.o)
 .bss           0x00000000        0x0 c:/program files/microchip/xc32/v1.30-tc9/bin/../lib/gcc/pic32mx/4.5.2/../../../../pic32mx/lib\libpic32.a(vector50.o)
 .reginfo       0x00000000       0x18 c:/program files/microchip/xc32/v1.30-tc9/bin/../lib/gcc/pic32mx/4.5.2/../../../../pic32mx/lib\libpic32.a(vector50.o)
 .text          0x00000000        0x0 c:/program files/microchip/xc32/v1.30-tc9/bin/../lib/gcc/pic32mx/4.5.2/../../../../pic32mx/lib\libpic32.a(vector51.o)
 .data          0x00000000        0x0 c:/program files/microchip/xc32/v1.30-tc9/bin/../lib/gcc/pic32mx/4.5.2/../../../../pic32mx/lib\libpic32.a(vector51.o)
 .bss           0x00000000        0x0 c:/program files/microchip/xc32/v1.30-tc9/bin/../lib/gcc/pic32mx/4.5.2/../../../../pic32mx/lib\libpic32.a(vector51.o)
 .reginfo       0x00000000       0x18 c:/program files/microchip/xc32/v1.30-tc9/bin/../lib/gcc/pic32mx/4.5.2/../../../../pic32mx/lib\libpic32.a(vector51.o)
 .text          0x00000000        0x0 c:/program files/microchip/xc32/v1.30-tc9/bin/../lib/gcc/pic32mx/4.5.2/../../../../pic32mx/lib\libpic32.a(vector52.o)
 .data          0x00000000        0x0 c:/program files/microchip/xc32/v1.30-tc9/bin/../lib/gcc/pic32mx/4.5.2/../../../../pic32mx/lib\libpic32.a(vector52.o)
 .bss           0x00000000        0x0 c:/program files/microchip/xc32/v1.30-tc9/bin/../lib/gcc/pic32mx/4.5.2/../../../../pic32mx/lib\libpic32.a(vector52.o)
 .reginfo       0x00000000       0x18 c:/program files/microchip/xc32/v1.30-tc9/bin/../lib/gcc/pic32mx/4.5.2/../../../../pic32mx/lib\libpic32.a(vector52.o)
 .text          0x00000000        0x0 c:/program files/microchip/xc32/v1.30-tc9/bin/../lib/gcc/pic32mx/4.5.2/../../../../pic32mx/lib\libpic32.a(vector53.o)
 .data          0x00000000        0x0 c:/program files/microchip/xc32/v1.30-tc9/bin/../lib/gcc/pic32mx/4.5.2/../../../../pic32mx/lib\libpic32.a(vector53.o)
 .bss           0x00000000        0x0 c:/program files/microchip/xc32/v1.30-tc9/bin/../lib/gcc/pic32mx/4.5.2/../../../../pic32mx/lib\libpic32.a(vector53.o)
 .reginfo       0x00000000       0x18 c:/program files/microchip/xc32/v1.30-tc9/bin/../lib/gcc/pic32mx/4.5.2/../../../../pic32mx/lib\libpic32.a(vector53.o)
 .text          0x00000000        0x0 c:/program files/microchip/xc32/v1.30-tc9/bin/../lib/gcc/pic32mx/4.5.2/../../../../pic32mx/lib\libpic32.a(vector54.o)
 .data          0x00000000        0x0 c:/program files/microchip/xc32/v1.30-tc9/bin/../lib/gcc/pic32mx/4.5.2/../../../../pic32mx/lib\libpic32.a(vector54.o)
 .bss           0x00000000        0x0 c:/program files/microchip/xc32/v1.30-tc9/bin/../lib/gcc/pic32mx/4.5.2/../../../../pic32mx/lib\libpic32.a(vector54.o)
 .reginfo       0x00000000       0x18 c:/program files/microchip/xc32/v1.30-tc9/bin/../lib/gcc/pic32mx/4.5.2/../../../../pic32mx/lib\libpic32.a(vector54.o)
 .text          0x00000000        0x0 c:/program files/microchip/xc32/v1.30-tc9/bin/../lib/gcc/pic32mx/4.5.2/../../../../pic32mx/lib\libpic32.a(vector55.o)
 .data          0x00000000        0x0 c:/program files/microchip/xc32/v1.30-tc9/bin/../lib/gcc/pic32mx/4.5.2/../../../../pic32mx/lib\libpic32.a(vector55.o)
 .bss           0x00000000        0x0 c:/program files/microchip/xc32/v1.30-tc9/bin/../lib/gcc/pic32mx/4.5.2/../../../../pic32mx/lib\libpic32.a(vector55.o)
 .reginfo       0x00000000       0x18 c:/program files/microchip/xc32/v1.30-tc9/bin/../lib/gcc/pic32mx/4.5.2/../../../../pic32mx/lib\libpic32.a(vector55.o)
 .text          0x00000000        0x0 c:/program files/microchip/xc32/v1.30-tc9/bin/../lib/gcc/pic32mx/4.5.2/../../../../pic32mx/lib\libpic32.a(vector56.o)
 .data          0x00000000        0x0 c:/program files/microchip/xc32/v1.30-tc9/bin/../lib/gcc/pic32mx/4.5.2/../../../../pic32mx/lib\libpic32.a(vector56.o)
 .bss           0x00000000        0x0 c:/program files/microchip/xc32/v1.30-tc9/bin/../lib/gcc/pic32mx/4.5.2/../../../../pic32mx/lib\libpic32.a(vector56.o)
 .reginfo       0x00000000       0x18 c:/program files/microchip/xc32/v1.30-tc9/bin/../lib/gcc/pic32mx/4.5.2/../../../../pic32mx/lib\libpic32.a(vector56.o)
 .text          0x00000000        0x0 c:/program files/microchip/xc32/v1.30-tc9/bin/../lib/gcc/pic32mx/4.5.2/../../../../pic32mx/lib\libpic32.a(vector57.o)
 .data          0x00000000        0x0 c:/program files/microchip/xc32/v1.30-tc9/bin/../lib/gcc/pic32mx/4.5.2/../../../../pic32mx/lib\libpic32.a(vector57.o)
 .bss           0x00000000        0x0 c:/program files/microchip/xc32/v1.30-tc9/bin/../lib/gcc/pic32mx/4.5.2/../../../../pic32mx/lib\libpic32.a(vector57.o)
 .reginfo       0x00000000       0x18 c:/program files/microchip/xc32/v1.30-tc9/bin/../lib/gcc/pic32mx/4.5.2/../../../../pic32mx/lib\libpic32.a(vector57.o)
 .text          0x00000000        0x0 c:/program files/microchip/xc32/v1.30-tc9/bin/../lib/gcc/pic32mx/4.5.2/../../../../pic32mx/lib\libpic32.a(vector58.o)
 .data          0x00000000        0x0 c:/program files/microchip/xc32/v1.30-tc9/bin/../lib/gcc/pic32mx/4.5.2/../../../../pic32mx/lib\libpic32.a(vector58.o)
 .bss           0x00000000        0x0 c:/program files/microchip/xc32/v1.30-tc9/bin/../lib/gcc/pic32mx/4.5.2/../../../../pic32mx/lib\libpic32.a(vector58.o)
 .reginfo       0x00000000       0x18 c:/program files/microchip/xc32/v1.30-tc9/bin/../lib/gcc/pic32mx/4.5.2/../../../../pic32mx/lib\libpic32.a(vector58.o)
 .text          0x00000000        0x0 c:/program files/microchip/xc32/v1.30-tc9/bin/../lib/gcc/pic32mx/4.5.2/../../../../pic32mx/lib\libpic32.a(vector59.o)
 .data          0x00000000        0x0 c:/program files/microchip/xc32/v1.30-tc9/bin/../lib/gcc/pic32mx/4.5.2/../../../../pic32mx/lib\libpic32.a(vector59.o)
 .bss           0x00000000        0x0 c:/program files/microchip/xc32/v1.30-tc9/bin/../lib/gcc/pic32mx/4.5.2/../../../../pic32mx/lib\libpic32.a(vector59.o)
 .reginfo       0x00000000       0x18 c:/program files/microchip/xc32/v1.30-tc9/bin/../lib/gcc/pic32mx/4.5.2/../../../../pic32mx/lib\libpic32.a(vector59.o)
 .text          0x00000000        0x0 c:/program files/microchip/xc32/v1.30-tc9/bin/../lib/gcc/pic32mx/4.5.2/../../../../pic32mx/lib\libpic32.a(vector60.o)
 .data          0x00000000        0x0 c:/program files/microchip/xc32/v1.30-tc9/bin/../lib/gcc/pic32mx/4.5.2/../../../../pic32mx/lib\libpic32.a(vector60.o)
 .bss           0x00000000        0x0 c:/program files/microchip/xc32/v1.30-tc9/bin/../lib/gcc/pic32mx/4.5.2/../../../../pic32mx/lib\libpic32.a(vector60.o)
 .reginfo       0x00000000       0x18 c:/program files/microchip/xc32/v1.30-tc9/bin/../lib/gcc/pic32mx/4.5.2/../../../../pic32mx/lib\libpic32.a(vector60.o)
 .text          0x00000000        0x0 c:/program files/microchip/xc32/v1.30-tc9/bin/../lib/gcc/pic32mx/4.5.2/../../../../pic32mx/lib\libpic32.a(vector61.o)
 .data          0x00000000        0x0 c:/program files/microchip/xc32/v1.30-tc9/bin/../lib/gcc/pic32mx/4.5.2/../../../../pic32mx/lib\libpic32.a(vector61.o)
 .bss           0x00000000        0x0 c:/program files/microchip/xc32/v1.30-tc9/bin/../lib/gcc/pic32mx/4.5.2/../../../../pic32mx/lib\libpic32.a(vector61.o)
 .reginfo       0x00000000       0x18 c:/program files/microchip/xc32/v1.30-tc9/bin/../lib/gcc/pic32mx/4.5.2/../../../../pic32mx/lib\libpic32.a(vector61.o)
 .text          0x00000000        0x0 c:/program files/microchip/xc32/v1.30-tc9/bin/../lib/gcc/pic32mx/4.5.2/../../../../pic32mx/lib\libpic32.a(vector62.o)
 .data          0x00000000        0x0 c:/program files/microchip/xc32/v1.30-tc9/bin/../lib/gcc/pic32mx/4.5.2/../../../../pic32mx/lib\libpic32.a(vector62.o)
 .bss           0x00000000        0x0 c:/program files/microchip/xc32/v1.30-tc9/bin/../lib/gcc/pic32mx/4.5.2/../../../../pic32mx/lib\libpic32.a(vector62.o)
 .reginfo       0x00000000       0x18 c:/program files/microchip/xc32/v1.30-tc9/bin/../lib/gcc/pic32mx/4.5.2/../../../../pic32mx/lib\libpic32.a(vector62.o)
 .text          0x00000000        0x0 c:/program files/microchip/xc32/v1.30-tc9/bin/../lib/gcc/pic32mx/4.5.2/../../../../pic32mx/lib\libpic32.a(vector63.o)
 .data          0x00000000        0x0 c:/program files/microchip/xc32/v1.30-tc9/bin/../lib/gcc/pic32mx/4.5.2/../../../../pic32mx/lib\libpic32.a(vector63.o)
 .bss           0x00000000        0x0 c:/program files/microchip/xc32/v1.30-tc9/bin/../lib/gcc/pic32mx/4.5.2/../../../../pic32mx/lib\libpic32.a(vector63.o)
 .reginfo       0x00000000       0x18 c:/program files/microchip/xc32/v1.30-tc9/bin/../lib/gcc/pic32mx/4.5.2/../../../../pic32mx/lib\libpic32.a(vector63.o)
 .text          0x00000000        0x0 c:/program files/microchip/xc32/v1.30-tc9/bin/../lib/gcc/pic32mx/4.5.2/../../../../pic32mx/lib\libpic32.a(defaultinterrupt.o)
 .data          0x00000000        0x0 c:/program files/microchip/xc32/v1.30-tc9/bin/../lib/gcc/pic32mx/4.5.2/../../../../pic32mx/lib\libpic32.a(defaultinterrupt.o)
 .bss           0x00000000        0x0 c:/program files/microchip/xc32/v1.30-tc9/bin/../lib/gcc/pic32mx/4.5.2/../../../../pic32mx/lib\libpic32.a(defaultinterrupt.o)
 .reginfo       0x00000000       0x18 c:/program files/microchip/xc32/v1.30-tc9/bin/../lib/gcc/pic32mx/4.5.2/../../../../pic32mx/lib\libpic32.a(defaultinterrupt.o)
 .data          0x00000000        0x0 c:/program files/microchip/xc32/v1.30-tc9/bin/../lib/gcc/pic32mx/4.5.2/../../../../pic32mx/lib\libm.a(fp32.o)
 .bss           0x00000000        0x0 c:/program files/microchip/xc32/v1.30-tc9/bin/../lib/gcc/pic32mx/4.5.2/../../../../pic32mx/lib\libm.a(fp32.o)
 .reginfo       0x00000000       0x18 c:/program files/microchip/xc32/v1.30-tc9/bin/../lib/gcc/pic32mx/4.5.2/../../../../pic32mx/lib\libm.a(fp32.o)
 .text          0x00000000        0x0 c:/program files/microchip/xc32/v1.30-tc9/bin/../lib/gcc/pic32mx/4.5.2/../../../../pic32mx/lib\libc.a(fassert.o)
 .data          0x00000000        0x0 c:/program files/microchip/xc32/v1.30-tc9/bin/../lib/gcc/pic32mx/4.5.2/../../../../pic32mx/lib\libc.a(fassert.o)
 .bss           0x00000000        0x0 c:/program files/microchip/xc32/v1.30-tc9/bin/../lib/gcc/pic32mx/4.5.2/../../../../pic32mx/lib\libc.a(fassert.o)
 .reginfo       0x00000000       0x18 c:/program files/microchip/xc32/v1.30-tc9/bin/../lib/gcc/pic32mx/4.5.2/../../../../pic32mx/lib\libc.a(fassert.o)
 .text          0x00000000        0x0 c:/program files/microchip/xc32/v1.30-tc9/bin/../lib/gcc/pic32mx/4.5.2/../../../../pic32mx/lib\libc.a(atoi.o)
 .data          0x00000000        0x0 c:/program files/microchip/xc32/v1.30-tc9/bin/../lib/gcc/pic32mx/4.5.2/../../../../pic32mx/lib\libc.a(atoi.o)
 .bss           0x00000000        0x0 c:/program files/microchip/xc32/v1.30-tc9/bin/../lib/gcc/pic32mx/4.5.2/../../../../pic32mx/lib\libc.a(atoi.o)
 .reginfo       0x00000000       0x18 c:/program files/microchip/xc32/v1.30-tc9/bin/../lib/gcc/pic32mx/4.5.2/../../../../pic32mx/lib\libc.a(atoi.o)
 .text          0x00000000        0x0 c:/program files/microchip/xc32/v1.30-tc9/bin/../lib/gcc/pic32mx/4.5.2/../../../../pic32mx/lib\libc.a(atol.o)
 .data          0x00000000        0x0 c:/program files/microchip/xc32/v1.30-tc9/bin/../lib/gcc/pic32mx/4.5.2/../../../../pic32mx/lib\libc.a(atol.o)
 .bss           0x00000000        0x0 c:/program files/microchip/xc32/v1.30-tc9/bin/../lib/gcc/pic32mx/4.5.2/../../../../pic32mx/lib\libc.a(atol.o)
 .reginfo       0x00000000       0x18 c:/program files/microchip/xc32/v1.30-tc9/bin/../lib/gcc/pic32mx/4.5.2/../../../../pic32mx/lib\libc.a(atol.o)
 .text          0x00000000        0x0 c:/program files/microchip/xc32/v1.30-tc9/bin/../lib/gcc/pic32mx/4.5.2/../../../../pic32mx/lib\libc.a(calloc.o)
 .data          0x00000000        0x0 c:/program files/microchip/xc32/v1.30-tc9/bin/../lib/gcc/pic32mx/4.5.2/../../../../pic32mx/lib\libc.a(calloc.o)
 .bss           0x00000000        0x0 c:/program files/microchip/xc32/v1.30-tc9/bin/../lib/gcc/pic32mx/4.5.2/../../../../pic32mx/lib\libc.a(calloc.o)
 .reginfo       0x00000000       0x18 c:/program files/microchip/xc32/v1.30-tc9/bin/../lib/gcc/pic32mx/4.5.2/../../../../pic32mx/lib\libc.a(calloc.o)
 .text          0x00000000        0x0 c:/program files/microchip/xc32/v1.30-tc9/bin/../lib/gcc/pic32mx/4.5.2/../../../../pic32mx/lib\libc.a(ctype.o)
 .data          0x00000000        0x0 c:/program files/microchip/xc32/v1.30-tc9/bin/../lib/gcc/pic32mx/4.5.2/../../../../pic32mx/lib\libc.a(ctype.o)
 .bss           0x00000000        0x0 c:/program files/microchip/xc32/v1.30-tc9/bin/../lib/gcc/pic32mx/4.5.2/../../../../pic32mx/lib\libc.a(ctype.o)
 .reginfo       0x00000000       0x18 c:/program files/microchip/xc32/v1.30-tc9/bin/../lib/gcc/pic32mx/4.5.2/../../../../pic32mx/lib\libc.a(ctype.o)
 .text          0x00000000        0x0 c:/program files/microchip/xc32/v1.30-tc9/bin/../lib/gcc/pic32mx/4.5.2/../../../../pic32mx/lib\libc.a(malloc.o)
 .data          0x00000000        0x0 c:/program files/microchip/xc32/v1.30-tc9/bin/../lib/gcc/pic32mx/4.5.2/../../../../pic32mx/lib\libc.a(malloc.o)
 .reginfo       0x00000000       0x18 c:/program files/microchip/xc32/v1.30-tc9/bin/../lib/gcc/pic32mx/4.5.2/../../../../pic32mx/lib\libc.a(malloc.o)
 .text.realloc  0x00000000      0x194 c:/program files/microchip/xc32/v1.30-tc9/bin/../lib/gcc/pic32mx/4.5.2/../../../../pic32mx/lib\libc.a(malloc.o)
 .text          0x00000000        0x0 c:/program files/microchip/xc32/v1.30-tc9/bin/../lib/gcc/pic32mx/4.5.2/../../../../pic32mx/lib\libc.a(rand.o)
 .data          0x00000000        0x0 c:/program files/microchip/xc32/v1.30-tc9/bin/../lib/gcc/pic32mx/4.5.2/../../../../pic32mx/lib\libc.a(rand.o)
 .reginfo       0x00000000       0x18 c:/program files/microchip/xc32/v1.30-tc9/bin/../lib/gcc/pic32mx/4.5.2/../../../../pic32mx/lib\libc.a(rand.o)
 .text.srand    0x00000000       0x1c c:/program files/microchip/xc32/v1.30-tc9/bin/../lib/gcc/pic32mx/4.5.2/../../../../pic32mx/lib\libc.a(rand.o)
 .text          0x00000000        0x0 c:/program files/microchip/xc32/v1.30-tc9/bin/../lib/gcc/pic32mx/4.5.2/../../../../pic32mx/lib\libc.a(signal.o)
 .data          0x00000000        0x0 c:/program files/microchip/xc32/v1.30-tc9/bin/../lib/gcc/pic32mx/4.5.2/../../../../pic32mx/lib\libc.a(signal.o)
 .reginfo       0x00000000       0x18 c:/program files/microchip/xc32/v1.30-tc9/bin/../lib/gcc/pic32mx/4.5.2/../../../../pic32mx/lib\libc.a(signal.o)
 .text.signal   0x00000000       0x30 c:/program files/microchip/xc32/v1.30-tc9/bin/../lib/gcc/pic32mx/4.5.2/../../../../pic32mx/lib\libc.a(signal.o)
 .text          0x00000000        0x0 c:/program files/microchip/xc32/v1.30-tc9/bin/../lib/gcc/pic32mx/4.5.2/../../../../pic32mx/lib\libc.a(strchr.o)
 .data          0x00000000        0x0 c:/program files/microchip/xc32/v1.30-tc9/bin/../lib/gcc/pic32mx/4.5.2/../../../../pic32mx/lib\libc.a(strchr.o)
 .bss           0x00000000        0x0 c:/program files/microchip/xc32/v1.30-tc9/bin/../lib/gcc/pic32mx/4.5.2/../../../../pic32mx/lib\libc.a(strchr.o)
 .reginfo       0x00000000       0x18 c:/program files/microchip/xc32/v1.30-tc9/bin/../lib/gcc/pic32mx/4.5.2/../../../../pic32mx/lib\libc.a(strchr.o)
 .text          0x00000000        0x0 c:/program files/microchip/xc32/v1.30-tc9/bin/../lib/gcc/pic32mx/4.5.2/../../../../pic32mx/lib\libc.a(strncat.o)
 .data          0x00000000        0x0 c:/program files/microchip/xc32/v1.30-tc9/bin/../lib/gcc/pic32mx/4.5.2/../../../../pic32mx/lib\libc.a(strncat.o)
 .bss           0x00000000        0x0 c:/program files/microchip/xc32/v1.30-tc9/bin/../lib/gcc/pic32mx/4.5.2/../../../../pic32mx/lib\libc.a(strncat.o)
 .reginfo       0x00000000       0x18 c:/program files/microchip/xc32/v1.30-tc9/bin/../lib/gcc/pic32mx/4.5.2/../../../../pic32mx/lib\libc.a(strncat.o)
 .text          0x00000000        0x0 c:/program files/microchip/xc32/v1.30-tc9/bin/../lib/gcc/pic32mx/4.5.2/../../../../pic32mx/lib\libc.a(strncmp.o)
 .data          0x00000000        0x0 c:/program files/microchip/xc32/v1.30-tc9/bin/../lib/gcc/pic32mx/4.5.2/../../../../pic32mx/lib\libc.a(strncmp.o)
 .bss           0x00000000        0x0 c:/program files/microchip/xc32/v1.30-tc9/bin/../lib/gcc/pic32mx/4.5.2/../../../../pic32mx/lib\libc.a(strncmp.o)
 .reginfo       0x00000000       0x18 c:/program files/microchip/xc32/v1.30-tc9/bin/../lib/gcc/pic32mx/4.5.2/../../../../pic32mx/lib\libc.a(strncmp.o)
 .text          0x00000000        0x0 c:/program files/microchip/xc32/v1.30-tc9/bin/../lib/gcc/pic32mx/4.5.2/../../../../pic32mx/lib\libc.a(strncpy.o)
 .data          0x00000000        0x0 c:/program files/microchip/xc32/v1.30-tc9/bin/../lib/gcc/pic32mx/4.5.2/../../../../pic32mx/lib\libc.a(strncpy.o)
 .bss           0x00000000        0x0 c:/program files/microchip/xc32/v1.30-tc9/bin/../lib/gcc/pic32mx/4.5.2/../../../../pic32mx/lib\libc.a(strncpy.o)
 .reginfo       0x00000000       0x18 c:/program files/microchip/xc32/v1.30-tc9/bin/../lib/gcc/pic32mx/4.5.2/../../../../pic32mx/lib\libc.a(strncpy.o)
 .text          0x00000000        0x0 c:/program files/microchip/xc32/v1.30-tc9/bin/../lib/gcc/pic32mx/4.5.2/../../../../pic32mx/lib\libc.a(strstr.o)
 .data          0x00000000        0x0 c:/program files/microchip/xc32/v1.30-tc9/bin/../lib/gcc/pic32mx/4.5.2/../../../../pic32mx/lib\libc.a(strstr.o)
 .bss           0x00000000        0x0 c:/program files/microchip/xc32/v1.30-tc9/bin/../lib/gcc/pic32mx/4.5.2/../../../../pic32mx/lib\libc.a(strstr.o)
 .reginfo       0x00000000       0x18 c:/program files/microchip/xc32/v1.30-tc9/bin/../lib/gcc/pic32mx/4.5.2/../../../../pic32mx/lib\libc.a(strstr.o)
 .text          0x00000000        0x0 c:/program files/microchip/xc32/v1.30-tc9/bin/../lib/gcc/pic32mx/4.5.2/../../../../pic32mx/lib\libc.a(strtok.o)
 .data          0x00000000        0x0 c:/program files/microchip/xc32/v1.30-tc9/bin/../lib/gcc/pic32mx/4.5.2/../../../../pic32mx/lib\libc.a(strtok.o)
 .reginfo       0x00000000       0x18 c:/program files/microchip/xc32/v1.30-tc9/bin/../lib/gcc/pic32mx/4.5.2/../../../../pic32mx/lib\libc.a(strtok.o)
 .text          0x00000000        0x0 c:/program files/microchip/xc32/v1.30-tc9/bin/../lib/gcc/pic32mx/4.5.2/../../../../pic32mx/lib\libc.a(exit.o)
 .data          0x00000000        0x0 c:/program files/microchip/xc32/v1.30-tc9/bin/../lib/gcc/pic32mx/4.5.2/../../../../pic32mx/lib\libc.a(exit.o)
 .bss           0x00000000        0x0 c:/program files/microchip/xc32/v1.30-tc9/bin/../lib/gcc/pic32mx/4.5.2/../../../../pic32mx/lib\libc.a(exit.o)
 .reginfo       0x00000000       0x18 c:/program files/microchip/xc32/v1.30-tc9/bin/../lib/gcc/pic32mx/4.5.2/../../../../pic32mx/lib\libc.a(exit.o)
 .text          0x00000000        0x0 c:/program files/microchip/xc32/v1.30-tc9/bin/../lib/gcc/pic32mx/4.5.2/../../../../pic32mx/lib\libc.a(fprintf_cdnopsuxX.eo)
 .data          0x00000000        0x0 c:/program files/microchip/xc32/v1.30-tc9/bin/../lib/gcc/pic32mx/4.5.2/../../../../pic32mx/lib\libc.a(fprintf_cdnopsuxX.eo)
 .bss           0x00000000        0x0 c:/program files/microchip/xc32/v1.30-tc9/bin/../lib/gcc/pic32mx/4.5.2/../../../../pic32mx/lib\libc.a(fprintf_cdnopsuxX.eo)
 .reginfo       0x00000000       0x18 c:/program files/microchip/xc32/v1.30-tc9/bin/../lib/gcc/pic32mx/4.5.2/../../../../pic32mx/lib\libc.a(fprintf_cdnopsuxX.eo)
 .text          0x00000000        0x0 c:/program files/microchip/xc32/v1.30-tc9/bin/../lib/gcc/pic32mx/4.5.2/../../../../pic32mx/lib\libc.a(snprintf_cdnopsuxX.eo)
 .data          0x00000000        0x0 c:/program files/microchip/xc32/v1.30-tc9/bin/../lib/gcc/pic32mx/4.5.2/../../../../pic32mx/lib\libc.a(snprintf_cdnopsuxX.eo)
 .bss           0x00000000        0x0 c:/program files/microchip/xc32/v1.30-tc9/bin/../lib/gcc/pic32mx/4.5.2/../../../../pic32mx/lib\libc.a(snprintf_cdnopsuxX.eo)
 .reginfo       0x00000000       0x18 c:/program files/microchip/xc32/v1.30-tc9/bin/../lib/gcc/pic32mx/4.5.2/../../../../pic32mx/lib\libc.a(snprintf_cdnopsuxX.eo)
 .text          0x00000000        0x0 c:/program files/microchip/xc32/v1.30-tc9/bin/../lib/gcc/pic32mx/4.5.2/../../../../pic32mx/lib\libc.a(sprintf_cdnopsuxX.eo)
 .data          0x00000000        0x0 c:/program files/microchip/xc32/v1.30-tc9/bin/../lib/gcc/pic32mx/4.5.2/../../../../pic32mx/lib\libc.a(sprintf_cdnopsuxX.eo)
 .bss           0x00000000        0x0 c:/program files/microchip/xc32/v1.30-tc9/bin/../lib/gcc/pic32mx/4.5.2/../../../../pic32mx/lib\libc.a(sprintf_cdnopsuxX.eo)
 .reginfo       0x00000000       0x18 c:/program files/microchip/xc32/v1.30-tc9/bin/../lib/gcc/pic32mx/4.5.2/../../../../pic32mx/lib\libc.a(sprintf_cdnopsuxX.eo)
 .text          0x00000000        0x0 c:/program files/microchip/xc32/v1.30-tc9/bin/../lib/gcc/pic32mx/4.5.2/../../../../pic32mx/lib\libc.a(vsnprintf_cdnopsuxX.eo)
 .data          0x00000000        0x0 c:/program files/microchip/xc32/v1.30-tc9/bin/../lib/gcc/pic32mx/4.5.2/../../../../pic32mx/lib\libc.a(vsnprintf_cdnopsuxX.eo)
 .bss           0x00000000        0x0 c:/program files/microchip/xc32/v1.30-tc9/bin/../lib/gcc/pic32mx/4.5.2/../../../../pic32mx/lib\libc.a(vsnprintf_cdnopsuxX.eo)
 .reginfo       0x00000000       0x18 c:/program files/microchip/xc32/v1.30-tc9/bin/../lib/gcc/pic32mx/4.5.2/../../../../pic32mx/lib\libc.a(vsnprintf_cdnopsuxX.eo)
 .text          0x00000000        0x0 c:/program files/microchip/xc32/v1.30-tc9/bin/../lib/gcc/pic32mx/4.5.2/../../../../pic32mx/lib\libc.a(vsnprintf.o)
 .data          0x00000000        0x0 c:/program files/microchip/xc32/v1.30-tc9/bin/../lib/gcc/pic32mx/4.5.2/../../../../pic32mx/lib\libc.a(vsnprintf.o)
 .bss           0x00000000        0x0 c:/program files/microchip/xc32/v1.30-tc9/bin/../lib/gcc/pic32mx/4.5.2/../../../../pic32mx/lib\libc.a(vsnprintf.o)
 .reginfo       0x00000000       0x18 c:/program files/microchip/xc32/v1.30-tc9/bin/../lib/gcc/pic32mx/4.5.2/../../../../pic32mx/lib\libc.a(vsnprintf.o)
 .text          0x00000000        0x0 c:/program files/microchip/xc32/v1.30-tc9/bin/../lib/gcc/pic32mx/4.5.2/../../../../pic32mx/lib\libc.a(_iob.o)
 .reginfo       0x00000000       0x18 c:/program files/microchip/xc32/v1.30-tc9/bin/../lib/gcc/pic32mx/4.5.2/../../../../pic32mx/lib\libc.a(_iob.o)
 .sdata         0x00000000        0x4 c:/program files/microchip/xc32/v1.30-tc9/bin/../lib/gcc/pic32mx/4.5.2/../../../../pic32mx/lib\libc.a(_iob.o)
 .text          0x00000000        0x0 c:/program files/microchip/xc32/v1.30-tc9/bin/../lib/gcc/pic32mx/4.5.2/../../../../pic32mx/lib\libc.a(stdclean_simple.o)
 .data          0x00000000        0x0 c:/program files/microchip/xc32/v1.30-tc9/bin/../lib/gcc/pic32mx/4.5.2/../../../../pic32mx/lib\libc.a(stdclean_simple.o)
 .bss           0x00000000        0x0 c:/program files/microchip/xc32/v1.30-tc9/bin/../lib/gcc/pic32mx/4.5.2/../../../../pic32mx/lib\libc.a(stdclean_simple.o)
 .reginfo       0x00000000       0x18 c:/program files/microchip/xc32/v1.30-tc9/bin/../lib/gcc/pic32mx/4.5.2/../../../../pic32mx/lib\libc.a(stdclean_simple.o)
 .sbss          0x00000000        0x4 c:/program files/microchip/xc32/v1.30-tc9/bin/../lib/gcc/pic32mx/4.5.2/../../../../pic32mx/lib\libc.a(stdclean_simple.o)
 .text          0x00000000        0x0 c:/program files/microchip/xc32/v1.30-tc9/bin/../lib/gcc/pic32mx/4.5.2/../../../../pic32mx/lib\libc.a(strcspn.o)
 .data          0x00000000        0x0 c:/program files/microchip/xc32/v1.30-tc9/bin/../lib/gcc/pic32mx/4.5.2/../../../../pic32mx/lib\libc.a(strcspn.o)
 .bss           0x00000000        0x0 c:/program files/microchip/xc32/v1.30-tc9/bin/../lib/gcc/pic32mx/4.5.2/../../../../pic32mx/lib\libc.a(strcspn.o)
 .reginfo       0x00000000       0x18 c:/program files/microchip/xc32/v1.30-tc9/bin/../lib/gcc/pic32mx/4.5.2/../../../../pic32mx/lib\libc.a(strcspn.o)
 .text          0x00000000        0x0 c:/program files/microchip/xc32/v1.30-tc9/bin/../lib/gcc/pic32mx/4.5.2/../../../../pic32mx/lib\libc.a(strspn.o)
 .data          0x00000000        0x0 c:/program files/microchip/xc32/v1.30-tc9/bin/../lib/gcc/pic32mx/4.5.2/../../../../pic32mx/lib\libc.a(strspn.o)
 .bss           0x00000000        0x0 c:/program files/microchip/xc32/v1.30-tc9/bin/../lib/gcc/pic32mx/4.5.2/../../../../pic32mx/lib\libc.a(strspn.o)
 .reginfo       0x00000000       0x18 c:/program files/microchip/xc32/v1.30-tc9/bin/../lib/gcc/pic32mx/4.5.2/../../../../pic32mx/lib\libc.a(strspn.o)
 .text          0x00000000        0x0 c:/program files/microchip/xc32/v1.30-tc9/bin/../lib/gcc/pic32mx/4.5.2/../../../../pic32mx/lib\libc.a(doprnt_cdnopsuxX.eo)
 .data          0x00000000        0x0 c:/program files/microchip/xc32/v1.30-tc9/bin/../lib/gcc/pic32mx/4.5.2/../../../../pic32mx/lib\libc.a(doprnt_cdnopsuxX.eo)
 .bss           0x00000000        0x0 c:/program files/microchip/xc32/v1.30-tc9/bin/../lib/gcc/pic32mx/4.5.2/../../../../pic32mx/lib\libc.a(doprnt_cdnopsuxX.eo)
 .reginfo       0x00000000       0x18 c:/program files/microchip/xc32/v1.30-tc9/bin/../lib/gcc/pic32mx/4.5.2/../../../../pic32mx/lib\libc.a(doprnt_cdnopsuxX.eo)
 .text          0x00000000        0x0 c:/program files/microchip/xc32/v1.30-tc9/bin/../lib/gcc/pic32mx/4.5.2/../../../../pic32mx/lib\libc.a(doprnt.o)
 .data          0x00000000        0x0 c:/program files/microchip/xc32/v1.30-tc9/bin/../lib/gcc/pic32mx/4.5.2/../../../../pic32mx/lib\libc.a(doprnt.o)
 .bss           0x00000000        0x0 c:/program files/microchip/xc32/v1.30-tc9/bin/../lib/gcc/pic32mx/4.5.2/../../../../pic32mx/lib\libc.a(doprnt.o)
 .reginfo       0x00000000       0x18 c:/program files/microchip/xc32/v1.30-tc9/bin/../lib/gcc/pic32mx/4.5.2/../../../../pic32mx/lib\libc.a(doprnt.o)
 .text          0x00000000        0x0 c:/program files/microchip/xc32/v1.30-tc9/bin/../lib/gcc/pic32mx/4.5.2/../../../../pic32mx/lib\libc.a(_fputc_simple.o)
 .data          0x00000000        0x0 c:/program files/microchip/xc32/v1.30-tc9/bin/../lib/gcc/pic32mx/4.5.2/../../../../pic32mx/lib\libc.a(_fputc_simple.o)
 .bss           0x00000000        0x0 c:/program files/microchip/xc32/v1.30-tc9/bin/../lib/gcc/pic32mx/4.5.2/../../../../pic32mx/lib\libc.a(_fputc_simple.o)
 .reginfo       0x00000000       0x18 c:/program files/microchip/xc32/v1.30-tc9/bin/../lib/gcc/pic32mx/4.5.2/../../../../pic32mx/lib\libc.a(_fputc_simple.o)
 .text          0x00000000        0x0 c:/program files/microchip/xc32/v1.30-tc9/bin/../lib/gcc/pic32mx/4.5.2/../../../../pic32mx/lib\libc.a(powersf.o)
 .data          0x00000000        0x0 c:/program files/microchip/xc32/v1.30-tc9/bin/../lib/gcc/pic32mx/4.5.2/../../../../pic32mx/lib\libc.a(powersf.o)
 .bss           0x00000000        0x0 c:/program files/microchip/xc32/v1.30-tc9/bin/../lib/gcc/pic32mx/4.5.2/../../../../pic32mx/lib\libc.a(powersf.o)
 .reginfo       0x00000000       0x18 c:/program files/microchip/xc32/v1.30-tc9/bin/../lib/gcc/pic32mx/4.5.2/../../../../pic32mx/lib\libc.a(powersf.o)
 .text          0x00000000        0x0 c:/program files/microchip/xc32/v1.30-tc9/bin/../lib/gcc/pic32mx/4.5.2/../../../../pic32mx/lib\libc.a(_flsbuf_simple.o)
 .data          0x00000000        0x0 c:/program files/microchip/xc32/v1.30-tc9/bin/../lib/gcc/pic32mx/4.5.2/../../../../pic32mx/lib\libc.a(_flsbuf_simple.o)
 .bss           0x00000000        0x0 c:/program files/microchip/xc32/v1.30-tc9/bin/../lib/gcc/pic32mx/4.5.2/../../../../pic32mx/lib\libc.a(_flsbuf_simple.o)
 .reginfo       0x00000000       0x18 c:/program files/microchip/xc32/v1.30-tc9/bin/../lib/gcc/pic32mx/4.5.2/../../../../pic32mx/lib\libc.a(_flsbuf_simple.o)
 .text          0x00000000        0x0 c:/program files/microchip/xc32/v1.30-tc9/bin/../lib/gcc/pic32mx/4.5.2/../../../../pic32mx/lib\libpic32.a(sbrk.o)
 .data          0x00000000        0x0 c:/program files/microchip/xc32/v1.30-tc9/bin/../lib/gcc/pic32mx/4.5.2/../../../../pic32mx/lib\libpic32.a(sbrk.o)
 .reginfo       0x00000000       0x18 c:/program files/microchip/xc32/v1.30-tc9/bin/../lib/gcc/pic32mx/4.5.2/../../../../pic32mx/lib\libpic32.a(sbrk.o)
 .text.getpagesize
                0x00000000        0x8 c:/program files/microchip/xc32/v1.30-tc9/bin/../lib/gcc/pic32mx/4.5.2/../../../../pic32mx/lib\libpic32.a(sbrk.o)
 .text          0x00000000        0x0 c:/program files/microchip/xc32/v1.30-tc9/bin/../lib/gcc/pic32mx/4.5.2/../../../../pic32mx/lib\libpic32.a(write.o)
 .data          0x00000000        0x0 c:/program files/microchip/xc32/v1.30-tc9/bin/../lib/gcc/pic32mx/4.5.2/../../../../pic32mx/lib\libpic32.a(write.o)
 .bss           0x00000000        0x0 c:/program files/microchip/xc32/v1.30-tc9/bin/../lib/gcc/pic32mx/4.5.2/../../../../pic32mx/lib\libpic32.a(write.o)
 .reginfo       0x00000000       0x18 c:/program files/microchip/xc32/v1.30-tc9/bin/../lib/gcc/pic32mx/4.5.2/../../../../pic32mx/lib\libpic32.a(write.o)
 .text          0x00000000        0x0 c:/program files/microchip/xc32/v1.30-tc9/bin/../lib/gcc/pic32mx/4.5.2/../../../../pic32mx/lib\libpic32.a(errno.o)
 .data          0x00000000        0x0 c:/program files/microchip/xc32/v1.30-tc9/bin/../lib/gcc/pic32mx/4.5.2/../../../../pic32mx/lib\libpic32.a(errno.o)
 .bss           0x00000000        0x0 c:/program files/microchip/xc32/v1.30-tc9/bin/../lib/gcc/pic32mx/4.5.2/../../../../pic32mx/lib\libpic32.a(errno.o)
 .reginfo       0x00000000       0x18 c:/program files/microchip/xc32/v1.30-tc9/bin/../lib/gcc/pic32mx/4.5.2/../../../../pic32mx/lib\libpic32.a(errno.o)
 .text          0x00000000        0x0 c:/program files/microchip/xc32/v1.30-tc9/bin/../lib/gcc/pic32mx/4.5.2/../../../../pic32mx/lib\libpic32.a(_mon_putc.o)
 .data          0x00000000        0x0 c:/program files/microchip/xc32/v1.30-tc9/bin/../lib/gcc/pic32mx/4.5.2/../../../../pic32mx/lib\libpic32.a(_mon_putc.o)
 .bss           0x00000000        0x0 c:/program files/microchip/xc32/v1.30-tc9/bin/../lib/gcc/pic32mx/4.5.2/../../../../pic32mx/lib\libpic32.a(_mon_putc.o)
 .reginfo       0x00000000       0x18 c:/program files/microchip/xc32/v1.30-tc9/bin/../lib/gcc/pic32mx/4.5.2/../../../../pic32mx/lib\libpic32.a(_mon_putc.o)
 .text          0x00000000        0x0 c:/program files/microchip/xc32/v1.30-tc9/bin/../lib/gcc/pic32mx/4.5.2/../../../../pic32mx/lib\libpic32.a(xc32_uart.o)
 .data          0x00000000        0x0 c:/program files/microchip/xc32/v1.30-tc9/bin/../lib/gcc/pic32mx/4.5.2/../../../../pic32mx/lib\libpic32.a(xc32_uart.o)
 .bss           0x00000000        0x0 c:/program files/microchip/xc32/v1.30-tc9/bin/../lib/gcc/pic32mx/4.5.2/../../../../pic32mx/lib\libpic32.a(xc32_uart.o)
 .reginfo       0x00000000       0x18 c:/program files/microchip/xc32/v1.30-tc9/bin/../lib/gcc/pic32mx/4.5.2/../../../../pic32mx/lib\libpic32.a(xc32_uart.o)
 .data          0x00000000        0x0 c:/program files/microchip/xc32/v1.30-tc9/bin/../lib/gcc/pic32mx/4.5.2/../../../../pic32mx/lib\libm.a(fpmod32.o)
 .bss           0x00000000        0x0 c:/program files/microchip/xc32/v1.30-tc9/bin/../lib/gcc/pic32mx/4.5.2/../../../../pic32mx/lib\libm.a(fpmod32.o)
 .reginfo       0x00000000       0x18 c:/program files/microchip/xc32/v1.30-tc9/bin/../lib/gcc/pic32mx/4.5.2/../../../../pic32mx/lib\libm.a(fpmod32.o)
 .text          0x00000000        0x0 c:/program files/microchip/xc32/v1.30-tc9/bin/../lib/gcc/pic32mx/4.5.2/../../../../pic32mx/lib\libe.a(_floatdisf.o)
 .data          0x00000000        0x0 c:/program files/microchip/xc32/v1.30-tc9/bin/../lib/gcc/pic32mx/4.5.2/../../../../pic32mx/lib\libe.a(_floatdisf.o)
 .bss           0x00000000        0x0 c:/program files/microchip/xc32/v1.30-tc9/bin/../lib/gcc/pic32mx/4.5.2/../../../../pic32mx/lib\libe.a(_floatdisf.o)
 .reginfo       0x00000000       0x18 c:/program files/microchip/xc32/v1.30-tc9/bin/../lib/gcc/pic32mx/4.5.2/../../../../pic32mx/lib\libe.a(_floatdisf.o)
 .data          0x00000000        0x0 c:/program files/microchip/xc32/v1.30-tc9/bin/../lib/gcc/pic32mx/4.5.2\libgcc.a(_floatundisf.o)
 .bss           0x00000000        0x0 c:/program files/microchip/xc32/v1.30-tc9/bin/../lib/gcc/pic32mx/4.5.2\libgcc.a(_floatundisf.o)
 .reginfo       0x00000000       0x18 c:/program files/microchip/xc32/v1.30-tc9/bin/../lib/gcc/pic32mx/4.5.2\libgcc.a(_floatundisf.o)
 .data          0x00000000        0x0 c:/program files/microchip/xc32/v1.30-tc9/bin/../lib/gcc/pic32mx/4.5.2\libgcc.a(_umoddi3.o)
 .bss           0x00000000        0x0 c:/program files/microchip/xc32/v1.30-tc9/bin/../lib/gcc/pic32mx/4.5.2\libgcc.a(_umoddi3.o)
 .reginfo       0x00000000       0x18 c:/program files/microchip/xc32/v1.30-tc9/bin/../lib/gcc/pic32mx/4.5.2\libgcc.a(_umoddi3.o)

Memory Configuration

Name             Origin             Length             Attributes
kseg0_program_mem 0x9d000000         0x00080000         xr
kseg0_boot_mem   0x9fc00490         0x00000970
exception_mem    0x9fc01000         0x00001000
kseg1_boot_mem   0xbfc00000         0x00000490
debug_exec_mem   0xbfc02000         0x00000ff0
config3          0xbfc02ff0         0x00000004
config2          0xbfc02ff4         0x00000004
config1          0xbfc02ff8         0x00000004
config0          0xbfc02ffc         0x00000004
kseg1_data_mem   0xa0000000         0x00020000         w !x
sfrs             0xbf800000         0x00100000
configsfrs       0xbfc02ff0         0x00000010
*default*        0x00000000         0xffffffff

Linker script and memory map

LOAD c:/program files/microchip/xc32/v1.30-tc9/bin/../lib/gcc/pic32mx/4.5.2/../../../../pic32mx/lib/./proc/32MX795F512L/crt0_mips32r2.o
LOAD build/pic32mx_eth_sk_int_dyn/production/_ext/1951764757/system_init.o
LOAD build/pic32mx_eth_sk_int_dyn/production/_ext/1951764757/system_init_private.o
LOAD build/pic32mx_eth_sk_int_dyn/production/_ext/1951764757/system_int.o
LOAD build/pic32mx_eth_sk_int_dyn/production/_ext/1951764757/system_tasks.o
LOAD build/pic32mx_eth_sk_int_dyn/production/_ext/1360937237/app.o
LOAD build/pic32mx_eth_sk_int_dyn/production/_ext/1951764757/bsp_sys_init.o
LOAD build/pic32mx_eth_sk_int_dyn/production/_ext/377798159/config_performance.o
LOAD build/pic32mx_eth_sk_int_dyn/production/_ext/1697634946/drv_ethmac.o
LOAD build/pic32mx_eth_sk_int_dyn/production/_ext/1697634946/drv_ethmac_lib.o
LOAD build/pic32mx_eth_sk_int_dyn/production/_ext/521481140/drv_ethphy.o
LOAD build/pic32mx_eth_sk_int_dyn/production/_ext/521481140/drv_extphy_dp83848.o
LOAD build/pic32mx_eth_sk_int_dyn/production/_ext/184581597/drv_nvm.o
LOAD build/pic32mx_eth_sk_int_dyn/production/_ext/184581597/drv_nvm_media.o
LOAD build/pic32mx_eth_sk_int_dyn/production/_ext/2138650627/db_appio.o
LOAD build/pic32mx_eth_sk_int_dyn/production/_ext/2138650627/usart.o
LOAD build/pic32mx_eth_sk_int_dyn/production/_ext/1104573755/plib_eth_legacy.o
LOAD build/pic32mx_eth_sk_int_dyn/production/_ext/198928529/plib_int_pic32.o
LOAD build/pic32mx_eth_sk_int_dyn/production/_ext/52938249/sys_clk_pic32.o
LOAD build/pic32mx_eth_sk_int_dyn/production/_ext/52938249/sys_clk.o
LOAD build/pic32mx_eth_sk_int_dyn/production/_ext/1750042194/sys_fs.o
LOAD build/pic32mx_eth_sk_int_dyn/production/_ext/1750042194/sys_fs_media_manager.o
LOAD build/pic32mx_eth_sk_int_dyn/production/_ext/614935175/mpfs.o
LOAD build/pic32mx_eth_sk_int_dyn/production/_ext/1964723635/ff.o
LOAD build/pic32mx_eth_sk_int_dyn/production/_ext/732200470/diskio.o
LOAD build/pic32mx_eth_sk_int_dyn/production/_ext/1042686532/sys_int_pic32.o
LOAD build/pic32mx_eth_sk_int_dyn/production/_ext/826631961/sys_ports.o
LOAD build/pic32mx_eth_sk_int_dyn/production/_ext/693918571/sys_queue.o
LOAD build/pic32mx_eth_sk_int_dyn/production/_ext/1886247299/big_int.o
LOAD build/pic32mx_eth_sk_int_dyn/production/_ext/1886247299/big_int_helper_c32.o
LOAD build/pic32mx_eth_sk_int_dyn/production/_ext/1886247299/hashes.o
LOAD build/pic32mx_eth_sk_int_dyn/production/_ext/1886247299/helpers.o
LOAD build/pic32mx_eth_sk_int_dyn/production/_ext/1886247299/lfsr.o
LOAD build/pic32mx_eth_sk_int_dyn/production/_ext/1886247299/sys_fs_wrapper.o
LOAD build/pic32mx_eth_sk_int_dyn/production/_ext/1360937237/assert_to_ide.o
LOAD build/pic32mx_eth_sk_int_dyn/production/_ext/1360937237/mpfs_img2.o
LOAD build/pic32mx_eth_sk_int_dyn/production/_ext/1360937237/custom_snmp_app.o
LOAD build/pic32mx_eth_sk_int_dyn/production/_ext/1360937237/custom_http_app.o
LOAD build/pic32mx_eth_sk_int_dyn/production/_ext/1164207549/arcfour.o
LOAD build/pic32mx_eth_sk_int_dyn/production/_ext/1164207549/arp.o
LOAD build/pic32mx_eth_sk_int_dyn/production/_ext/1164207549/berkeley_api.o
LOAD build/pic32mx_eth_sk_int_dyn/production/_ext/1164207549/dhcp.o
LOAD build/pic32mx_eth_sk_int_dyn/production/_ext/1164207549/dhcps.o
LOAD build/pic32mx_eth_sk_int_dyn/production/_ext/1164207549/dns.o
LOAD build/pic32mx_eth_sk_int_dyn/production/_ext/1164207549/dnss.o
LOAD build/pic32mx_eth_sk_int_dyn/production/_ext/1164207549/ftp.o
LOAD build/pic32mx_eth_sk_int_dyn/production/_ext/1164207549/hash_fnv.o
LOAD build/pic32mx_eth_sk_int_dyn/production/_ext/1164207549/http.o
LOAD build/pic32mx_eth_sk_int_dyn/production/_ext/1164207549/icmp.o
LOAD build/pic32mx_eth_sk_int_dyn/production/_ext/1164207549/icmpv6.o
LOAD build/pic32mx_eth_sk_int_dyn/production/_ext/1164207549/iperf.o
LOAD build/pic32mx_eth_sk_int_dyn/production/_ext/1164207549/ipv4.o
LOAD build/pic32mx_eth_sk_int_dyn/production/_ext/1164207549/ipv6.o
LOAD build/pic32mx_eth_sk_int_dyn/production/_ext/1164207549/nbns.o
LOAD build/pic32mx_eth_sk_int_dyn/production/_ext/1164207549/ndp.o
LOAD build/pic32mx_eth_sk_int_dyn/production/_ext/1164207549/oahash.o
LOAD build/pic32mx_eth_sk_int_dyn/production/_ext/1164207549/rsa.o
LOAD build/pic32mx_eth_sk_int_dyn/production/_ext/1164207549/smtp.o
LOAD build/pic32mx_eth_sk_int_dyn/production/_ext/1164207549/snmp.o
LOAD build/pic32mx_eth_sk_int_dyn/production/_ext/1164207549/snmpv3.o
LOAD build/pic32mx_eth_sk_int_dyn/production/_ext/1164207549/snmpv3_usm.o
LOAD build/pic32mx_eth_sk_int_dyn/production/_ext/1164207549/sntp.o
LOAD build/pic32mx_eth_sk_int_dyn/production/_ext/1164207549/ssl.o
LOAD build/pic32mx_eth_sk_int_dyn/production/_ext/1164207549/tcp.o
LOAD build/pic32mx_eth_sk_int_dyn/production/_ext/1164207549/tcpip_announce.o
LOAD build/pic32mx_eth_sk_int_dyn/production/_ext/1164207549/tcpip_commands.o
LOAD build/pic32mx_eth_sk_int_dyn/production/_ext/1164207549/tcpip_heap_alloc.o
LOAD build/pic32mx_eth_sk_int_dyn/production/_ext/1164207549/tcpip_helper_c32.o
LOAD build/pic32mx_eth_sk_int_dyn/production/_ext/1164207549/tcpip_helpers.o
LOAD build/pic32mx_eth_sk_int_dyn/production/_ext/1164207549/tcpip_mac_object.o
LOAD build/pic32mx_eth_sk_int_dyn/production/_ext/1164207549/tcpip_manager.o
LOAD build/pic32mx_eth_sk_int_dyn/production/_ext/1164207549/tcpip_notify.o
LOAD build/pic32mx_eth_sk_int_dyn/production/_ext/1164207549/tcpip_packet.o
LOAD build/pic32mx_eth_sk_int_dyn/production/_ext/1164207549/tcpip_reboot.o
LOAD build/pic32mx_eth_sk_int_dyn/production/_ext/1164207549/telnet.o
LOAD build/pic32mx_eth_sk_int_dyn/production/_ext/1164207549/udp.o
LOAD build/pic32mx_eth_sk_int_dyn/production/_ext/1164207549/zero_conf_helper.o
LOAD build/pic32mx_eth_sk_int_dyn/production/_ext/1164207549/zero_conf_link_local.o
LOAD build/pic32mx_eth_sk_int_dyn/production/_ext/1164207549/zero_conf_multicast_dns.o
LOAD build/pic32mx_eth_sk_int_dyn/production/_ext/1418760511/pic32mz_ports.o
LOAD build/pic32mx_eth_sk_int_dyn/production/_ext/1418760511/system_command.o
LOAD build/pic32mx_eth_sk_int_dyn/production/_ext/1418760511/system_debug.o
LOAD build/pic32mx_eth_sk_int_dyn/production/_ext/1418760511/system_random.o
LOAD build/pic32mx_eth_sk_int_dyn/production/_ext/1418760511/system_userio.o
LOAD build/pic32mx_eth_sk_int_dyn/production/_ext/1360937237/main.o
LOAD ..\..\..\..\..\framework\tcpip\src\crypto\aes_pic32mx.a
                0x00000001                __MPLAB_BUILD = 0x1
                0x0000afa0                _min_heap_size = 0xafa0
                0x00000800                _min_stack_size = 0x800
LOAD c:/program files/microchip/xc32/v1.30-tc9/bin/../lib/gcc/pic32mx/4.5.2/../../../../pic32mx/lib/./proc/32MX795F512L\default_isr_vectors.o
                0x00000400                PROVIDE (_min_stack_size, 0x400)
LOAD c:/program files/microchip/xc32/v1.30-tc9/bin/../lib/gcc/pic32mx/4.5.2/../../../../pic32mx/lib/./proc/32MX795F512L\processor.o
START GROUP
LOAD c:/program files/microchip/xc32/v1.30-tc9/bin/../lib/gcc/pic32mx/4.5.2/../../../../pic32mx/lib\libmchp_peripheral.a
END GROUP
START GROUP
LOAD c:/program files/microchip/xc32/v1.30-tc9/bin/../lib/gcc/pic32mx/4.5.2/../../../../pic32mx/lib\libmchp_peripheral_32MX795F512L.a
END GROUP
                0x00000001                PROVIDE (_vector_spacing, 0x1)
                0x9fc01000                _ebase_address = 0x9fc01000
                0xbfc00000                _RESET_ADDR = 0xbfc00000
                0xbfc00380                _BEV_EXCPT_ADDR = 0xbfc00380
                0xbfc00480                _DBG_EXCPT_ADDR = 0xbfc00480
                0xbfc02000                _DBG_CODE_ADDR = 0xbfc02000
                0x00000ff0                _DBG_CODE_SIZE = 0xff0
                0x9fc01180                _GEN_EXCPT_ADDR = (_ebase_address + 0x180)

.config_BFC02FF0
                0xbfc02ff0        0x4
 *(.config_BFC02FF0)
 .config_BFC02FF0
                0xbfc02ff0        0x4 build/pic32mx_eth_sk_int_dyn/production/_ext/1951764757/system_init.o

.config_BFC02FF4
                0xbfc02ff4        0x4
 *(.config_BFC02FF4)
 .config_BFC02FF4
                0xbfc02ff4        0x4 build/pic32mx_eth_sk_int_dyn/production/_ext/1951764757/system_init.o

.config_BFC02FF8
                0xbfc02ff8        0x4
 *(.config_BFC02FF8)
 .config_BFC02FF8
                0xbfc02ff8        0x4 build/pic32mx_eth_sk_int_dyn/production/_ext/1951764757/system_init.o

.config_BFC02FFC
                0xbfc02ffc        0x4
 *(.config_BFC02FFC)
 .config_BFC02FFC
                0xbfc02ffc        0x4 build/pic32mx_eth_sk_int_dyn/production/_ext/1951764757/system_init.o
                0xbfc02000                PROVIDE (_DBG_CODE_ADDR, 0xbfc02000)
                0x00000ff0                PROVIDE (_DBG_CODE_SIZE, 0xff0)

.reset          0xbfc00000      0x1c4
 *(.reset)
 .reset         0xbfc00000        0x0 c:/program files/microchip/xc32/v1.30-tc9/bin/../lib/gcc/pic32mx/4.5.2/../../../../pic32mx/lib/./proc/32MX795F512L/crt0_mips32r2.o
                0xbfc00000                _reset
 *(.reset.startup)
 .reset.startup
                0xbfc00000      0x1c4 c:/program files/microchip/xc32/v1.30-tc9/bin/../lib/gcc/pic32mx/4.5.2/../../../../pic32mx/lib/./proc/32MX795F512L/crt0_mips32r2.o

.bev_excpt      0xbfc00380       0x10
 *(.bev_handler)
 .bev_handler   0xbfc00380       0x10 c:/program files/microchip/xc32/v1.30-tc9/bin/../lib/gcc/pic32mx/4.5.2/../../../../pic32mx/lib/./proc/32MX795F512L/crt0_mips32r2.o

.dbg_excpt      0xbfc00480        0x0
                0xbfc00480                . = (. + DEFINED (_DEBUGGER)?0x8:0x0)

.dbg_code       0xbfc02000        0x0
                0xbfc02000                . = (. + DEFINED (_DEBUGGER)?_DBG_CODE_SIZE:0x0)

.app_excpt      0x9fc01180       0x10
 *(.gen_handler)
 .gen_handler   0x9fc01180       0x10 c:/program files/microchip/xc32/v1.30-tc9/bin/../lib/gcc/pic32mx/4.5.2/../../../../pic32mx/lib/./proc/32MX795F512L/crt0_mips32r2.o

.vector_0       0x9fc01200        0xc
 *(.vector_0)
 .vector_0      0x9fc01200        0xc build/pic32mx_eth_sk_int_dyn/production/_ext/1951764757/system_init_private.o
                0x9fc01200                __vector_dispatch_0
                0x00000001                ASSERT (((_vector_spacing == 0x0) || (SIZEOF (.vector_0) <= (_vector_spacing << 0x5))), function at exception vector 0 too large)

.vector_1       0x9fc01220        0x8
 *(.vector_1)
 .vector_1      0x9fc01220        0x8 c:/program files/microchip/xc32/v1.30-tc9/bin/../lib/gcc/pic32mx/4.5.2/../../../../pic32mx/lib\libpic32.a(vector1.o)
                0x9fc01220                __vector_dispatch_1
                0x00000001                ASSERT (((_vector_spacing == 0x0) || (SIZEOF (.vector_1) <= (_vector_spacing << 0x5))), function at exception vector 1 too large)

.vector_2       0x9fc01240        0x8
 *(.vector_2)
 .vector_2      0x9fc01240        0x8 c:/program files/microchip/xc32/v1.30-tc9/bin/../lib/gcc/pic32mx/4.5.2/../../../../pic32mx/lib\libpic32.a(vector2.o)
                0x9fc01240                __vector_dispatch_2
                0x00000001                ASSERT (((_vector_spacing == 0x0) || (SIZEOF (.vector_2) <= (_vector_spacing << 0x5))), function at exception vector 2 too large)

.vector_3       0x9fc01260        0x8
 *(.vector_3)
 .vector_3      0x9fc01260        0x8 c:/program files/microchip/xc32/v1.30-tc9/bin/../lib/gcc/pic32mx/4.5.2/../../../../pic32mx/lib\libpic32.a(vector3.o)
                0x9fc01260                __vector_dispatch_3
                0x00000001                ASSERT (((_vector_spacing == 0x0) || (SIZEOF (.vector_3) <= (_vector_spacing << 0x5))), function at exception vector 3 too large)

.vector_4       0x9fc01280        0x8
 *(.vector_4)
 .vector_4      0x9fc01280        0x8 c:/program files/microchip/xc32/v1.30-tc9/bin/../lib/gcc/pic32mx/4.5.2/../../../../pic32mx/lib\libpic32.a(vector4.o)
                0x9fc01280                __vector_dispatch_4
                0x00000001                ASSERT (((_vector_spacing == 0x0) || (SIZEOF (.vector_4) <= (_vector_spacing << 0x5))), function at exception vector 4 too large)

.vector_5       0x9fc012a0        0x8
 *(.vector_5)
 .vector_5      0x9fc012a0        0x8 c:/program files/microchip/xc32/v1.30-tc9/bin/../lib/gcc/pic32mx/4.5.2/../../../../pic32mx/lib\libpic32.a(vector5.o)
                0x9fc012a0                __vector_dispatch_5
                0x00000001                ASSERT (((_vector_spacing == 0x0) || (SIZEOF (.vector_5) <= (_vector_spacing << 0x5))), function at exception vector 5 too large)

.vector_6       0x9fc012c0        0x8
 *(.vector_6)
 .vector_6      0x9fc012c0        0x8 c:/program files/microchip/xc32/v1.30-tc9/bin/../lib/gcc/pic32mx/4.5.2/../../../../pic32mx/lib\libpic32.a(vector6.o)
                0x9fc012c0                __vector_dispatch_6
                0x00000001                ASSERT (((_vector_spacing == 0x0) || (SIZEOF (.vector_6) <= (_vector_spacing << 0x5))), function at exception vector 6 too large)

.vector_7       0x9fc012e0        0x8
 *(.vector_7)
 .vector_7      0x9fc012e0        0x8 c:/program files/microchip/xc32/v1.30-tc9/bin/../lib/gcc/pic32mx/4.5.2/../../../../pic32mx/lib\libpic32.a(vector7.o)
                0x9fc012e0                __vector_dispatch_7
                0x00000001                ASSERT (((_vector_spacing == 0x0) || (SIZEOF (.vector_7) <= (_vector_spacing << 0x5))), function at exception vector 7 too large)

.vector_8       0x9fc01300        0x8
 *(.vector_8)
 .vector_8      0x9fc01300        0x8 c:/program files/microchip/xc32/v1.30-tc9/bin/../lib/gcc/pic32mx/4.5.2/../../../../pic32mx/lib\libpic32.a(vector8.o)
                0x9fc01300                __vector_dispatch_8
                0x00000001                ASSERT (((_vector_spacing == 0x0) || (SIZEOF (.vector_8) <= (_vector_spacing << 0x5))), function at exception vector 8 too large)

.vector_9       0x9fc01320        0x8
 *(.vector_9)
 .vector_9      0x9fc01320        0x8 c:/program files/microchip/xc32/v1.30-tc9/bin/../lib/gcc/pic32mx/4.5.2/../../../../pic32mx/lib\libpic32.a(vector9.o)
                0x9fc01320                __vector_dispatch_9
                0x00000001                ASSERT (((_vector_spacing == 0x0) || (SIZEOF (.vector_9) <= (_vector_spacing << 0x5))), function at exception vector 9 too large)

.vector_10      0x9fc01340        0x8
 *(.vector_10)
 .vector_10     0x9fc01340        0x8 c:/program files/microchip/xc32/v1.30-tc9/bin/../lib/gcc/pic32mx/4.5.2/../../../../pic32mx/lib\libpic32.a(vector10.o)
                0x9fc01340                __vector_dispatch_10
                0x00000001                ASSERT (((_vector_spacing == 0x0) || (SIZEOF (.vector_10) <= (_vector_spacing << 0x5))), function at exception vector 10 too large)

.vector_11      0x9fc01360        0x8
 *(.vector_11)
 .vector_11     0x9fc01360        0x8 c:/program files/microchip/xc32/v1.30-tc9/bin/../lib/gcc/pic32mx/4.5.2/../../../../pic32mx/lib\libpic32.a(vector11.o)
                0x9fc01360                __vector_dispatch_11
                0x00000001                ASSERT (((_vector_spacing == 0x0) || (SIZEOF (.vector_11) <= (_vector_spacing << 0x5))), function at exception vector 11 too large)

.vector_12      0x9fc01380        0x8
 *(.vector_12)
 .vector_12     0x9fc01380        0x8 c:/program files/microchip/xc32/v1.30-tc9/bin/../lib/gcc/pic32mx/4.5.2/../../../../pic32mx/lib\libpic32.a(vector12.o)
                0x9fc01380                __vector_dispatch_12
                0x00000001                ASSERT (((_vector_spacing == 0x0) || (SIZEOF (.vector_12) <= (_vector_spacing << 0x5))), function at exception vector 12 too large)

.vector_13      0x9fc013a0        0x8
 *(.vector_13)
 .vector_13     0x9fc013a0        0x8 c:/program files/microchip/xc32/v1.30-tc9/bin/../lib/gcc/pic32mx/4.5.2/../../../../pic32mx/lib\libpic32.a(vector13.o)
                0x9fc013a0                __vector_dispatch_13
                0x00000001                ASSERT (((_vector_spacing == 0x0) || (SIZEOF (.vector_13) <= (_vector_spacing << 0x5))), function at exception vector 13 too large)

.vector_14      0x9fc013c0        0x8
 *(.vector_14)
 .vector_14     0x9fc013c0        0x8 c:/program files/microchip/xc32/v1.30-tc9/bin/../lib/gcc/pic32mx/4.5.2/../../../../pic32mx/lib\libpic32.a(vector14.o)
                0x9fc013c0                __vector_dispatch_14
                0x00000001                ASSERT (((_vector_spacing == 0x0) || (SIZEOF (.vector_14) <= (_vector_spacing << 0x5))), function at exception vector 14 too large)

.vector_15      0x9fc013e0        0x8
 *(.vector_15)
 .vector_15     0x9fc013e0        0x8 c:/program files/microchip/xc32/v1.30-tc9/bin/../lib/gcc/pic32mx/4.5.2/../../../../pic32mx/lib\libpic32.a(vector15.o)
                0x9fc013e0                __vector_dispatch_15
                0x00000001                ASSERT (((_vector_spacing == 0x0) || (SIZEOF (.vector_15) <= (_vector_spacing << 0x5))), function at exception vector 15 too large)

.vector_16      0x9fc01400        0x8
 *(.vector_16)
 .vector_16     0x9fc01400        0x8 c:/program files/microchip/xc32/v1.30-tc9/bin/../lib/gcc/pic32mx/4.5.2/../../../../pic32mx/lib\libpic32.a(vector16.o)
                0x9fc01400                __vector_dispatch_16
                0x00000001                ASSERT (((_vector_spacing == 0x0) || (SIZEOF (.vector_16) <= (_vector_spacing << 0x5))), function at exception vector 16 too large)

.vector_17      0x9fc01420        0x8
 *(.vector_17)
 .vector_17     0x9fc01420        0x8 c:/program files/microchip/xc32/v1.30-tc9/bin/../lib/gcc/pic32mx/4.5.2/../../../../pic32mx/lib\libpic32.a(vector17.o)
                0x9fc01420                __vector_dispatch_17
                0x00000001                ASSERT (((_vector_spacing == 0x0) || (SIZEOF (.vector_17) <= (_vector_spacing << 0x5))), function at exception vector 17 too large)

.vector_18      0x9fc01440        0x8
 *(.vector_18)
 .vector_18     0x9fc01440        0x8 c:/program files/microchip/xc32/v1.30-tc9/bin/../lib/gcc/pic32mx/4.5.2/../../../../pic32mx/lib\libpic32.a(vector18.o)
                0x9fc01440                __vector_dispatch_18
                0x00000001                ASSERT (((_vector_spacing == 0x0) || (SIZEOF (.vector_18) <= (_vector_spacing << 0x5))), function at exception vector 18 too large)

.vector_19      0x9fc01460        0x8
 *(.vector_19)
 .vector_19     0x9fc01460        0x8 c:/program files/microchip/xc32/v1.30-tc9/bin/../lib/gcc/pic32mx/4.5.2/../../../../pic32mx/lib\libpic32.a(vector19.o)
                0x9fc01460                __vector_dispatch_19
                0x00000001                ASSERT (((_vector_spacing == 0x0) || (SIZEOF (.vector_19) <= (_vector_spacing << 0x5))), function at exception vector 19 too large)

.vector_20      0x9fc01480        0x8
 *(.vector_20)
 .vector_20     0x9fc01480        0x8 c:/program files/microchip/xc32/v1.30-tc9/bin/../lib/gcc/pic32mx/4.5.2/../../../../pic32mx/lib\libpic32.a(vector20.o)
                0x9fc01480                __vector_dispatch_20
                0x00000001                ASSERT (((_vector_spacing == 0x0) || (SIZEOF (.vector_20) <= (_vector_spacing << 0x5))), function at exception vector 20 too large)

.vector_21      0x9fc014a0        0x8
 *(.vector_21)
 .vector_21     0x9fc014a0        0x8 c:/program files/microchip/xc32/v1.30-tc9/bin/../lib/gcc/pic32mx/4.5.2/../../../../pic32mx/lib\libpic32.a(vector21.o)
                0x9fc014a0                __vector_dispatch_21
                0x00000001                ASSERT (((_vector_spacing == 0x0) || (SIZEOF (.vector_21) <= (_vector_spacing << 0x5))), function at exception vector 21 too large)

.vector_22      0x9fc014c0        0x8
 *(.vector_22)
 .vector_22     0x9fc014c0        0x8 c:/program files/microchip/xc32/v1.30-tc9/bin/../lib/gcc/pic32mx/4.5.2/../../../../pic32mx/lib\libpic32.a(vector22.o)
                0x9fc014c0                __vector_dispatch_22
                0x00000001                ASSERT (((_vector_spacing == 0x0) || (SIZEOF (.vector_22) <= (_vector_spacing << 0x5))), function at exception vector 22 too large)

.vector_23      0x9fc014e0        0x8
 *(.vector_23)
 .vector_23     0x9fc014e0        0x8 c:/program files/microchip/xc32/v1.30-tc9/bin/../lib/gcc/pic32mx/4.5.2/../../../../pic32mx/lib\libpic32.a(vector23.o)
                0x9fc014e0                __vector_dispatch_23
                0x00000001                ASSERT (((_vector_spacing == 0x0) || (SIZEOF (.vector_23) <= (_vector_spacing << 0x5))), function at exception vector 23 too large)

.vector_24      0x9fc01500        0x8
 *(.vector_24)
 .vector_24     0x9fc01500        0x8 c:/program files/microchip/xc32/v1.30-tc9/bin/../lib/gcc/pic32mx/4.5.2/../../../../pic32mx/lib\libpic32.a(vector24.o)
                0x9fc01500                __vector_dispatch_24
                0x00000001                ASSERT (((_vector_spacing == 0x0) || (SIZEOF (.vector_24) <= (_vector_spacing << 0x5))), function at exception vector 24 too large)

.vector_25      0x9fc01520        0x8
 *(.vector_25)
 .vector_25     0x9fc01520        0x8 c:/program files/microchip/xc32/v1.30-tc9/bin/../lib/gcc/pic32mx/4.5.2/../../../../pic32mx/lib\libpic32.a(vector25.o)
                0x9fc01520                __vector_dispatch_25
                0x00000001                ASSERT (((_vector_spacing == 0x0) || (SIZEOF (.vector_25) <= (_vector_spacing << 0x5))), function at exception vector 25 too large)

.vector_26      0x9fc01540        0x8
 *(.vector_26)
 .vector_26     0x9fc01540        0x8 c:/program files/microchip/xc32/v1.30-tc9/bin/../lib/gcc/pic32mx/4.5.2/../../../../pic32mx/lib\libpic32.a(vector26.o)
                0x9fc01540                __vector_dispatch_26
                0x00000001                ASSERT (((_vector_spacing == 0x0) || (SIZEOF (.vector_26) <= (_vector_spacing << 0x5))), function at exception vector 26 too large)

.vector_27      0x9fc01560        0x8
 *(.vector_27)
 .vector_27     0x9fc01560        0x8 c:/program files/microchip/xc32/v1.30-tc9/bin/../lib/gcc/pic32mx/4.5.2/../../../../pic32mx/lib\libpic32.a(vector27.o)
                0x9fc01560                __vector_dispatch_27
                0x00000001                ASSERT (((_vector_spacing == 0x0) || (SIZEOF (.vector_27) <= (_vector_spacing << 0x5))), function at exception vector 27 too large)

.vector_28      0x9fc01580        0x8
 *(.vector_28)
 .vector_28     0x9fc01580        0x8 c:/program files/microchip/xc32/v1.30-tc9/bin/../lib/gcc/pic32mx/4.5.2/../../../../pic32mx/lib\libpic32.a(vector28.o)
                0x9fc01580                __vector_dispatch_28
                0x00000001                ASSERT (((_vector_spacing == 0x0) || (SIZEOF (.vector_28) <= (_vector_spacing << 0x5))), function at exception vector 28 too large)

.vector_29      0x9fc015a0        0x8
 *(.vector_29)
 .vector_29     0x9fc015a0        0x8 c:/program files/microchip/xc32/v1.30-tc9/bin/../lib/gcc/pic32mx/4.5.2/../../../../pic32mx/lib\libpic32.a(vector29.o)
                0x9fc015a0                __vector_dispatch_29
                0x00000001                ASSERT (((_vector_spacing == 0x0) || (SIZEOF (.vector_29) <= (_vector_spacing << 0x5))), function at exception vector 29 too large)

.vector_30      0x9fc015c0        0x8
 *(.vector_30)
 .vector_30     0x9fc015c0        0x8 c:/program files/microchip/xc32/v1.30-tc9/bin/../lib/gcc/pic32mx/4.5.2/../../../../pic32mx/lib\libpic32.a(vector30.o)
                0x9fc015c0                __vector_dispatch_30
                0x00000001                ASSERT (((_vector_spacing == 0x0) || (SIZEOF (.vector_30) <= (_vector_spacing << 0x5))), function at exception vector 30 too large)

.vector_31      0x9fc015e0        0x8
 *(.vector_31)
 .vector_31     0x9fc015e0        0x8 c:/program files/microchip/xc32/v1.30-tc9/bin/../lib/gcc/pic32mx/4.5.2/../../../../pic32mx/lib\libpic32.a(vector31.o)
                0x9fc015e0                __vector_dispatch_31
                0x00000001                ASSERT (((_vector_spacing == 0x0) || (SIZEOF (.vector_31) <= (_vector_spacing << 0x5))), function at exception vector 31 too large)

.vector_32      0x9fc01600        0x8
 *(.vector_32)
 .vector_32     0x9fc01600        0x8 c:/program files/microchip/xc32/v1.30-tc9/bin/../lib/gcc/pic32mx/4.5.2/../../../../pic32mx/lib\libpic32.a(vector32.o)
                0x9fc01600                __vector_dispatch_32
                0x00000001                ASSERT (((_vector_spacing == 0x0) || (SIZEOF (.vector_32) <= (_vector_spacing << 0x5))), function at exception vector 32 too large)

.vector_33      0x9fc01620        0x8
 *(.vector_33)
 .vector_33     0x9fc01620        0x8 c:/program files/microchip/xc32/v1.30-tc9/bin/../lib/gcc/pic32mx/4.5.2/../../../../pic32mx/lib\libpic32.a(vector33.o)
                0x9fc01620                __vector_dispatch_33
                0x00000001                ASSERT (((_vector_spacing == 0x0) || (SIZEOF (.vector_33) <= (_vector_spacing << 0x5))), function at exception vector 33 too large)

.vector_34      0x9fc01640        0x8
 *(.vector_34)
 .vector_34     0x9fc01640        0x8 c:/program files/microchip/xc32/v1.30-tc9/bin/../lib/gcc/pic32mx/4.5.2/../../../../pic32mx/lib\libpic32.a(vector34.o)
                0x9fc01640                __vector_dispatch_34
                0x00000001                ASSERT (((_vector_spacing == 0x0) || (SIZEOF (.vector_34) <= (_vector_spacing << 0x5))), function at exception vector 34 too large)

.vector_35      0x9fc01660        0x8
 *(.vector_35)
 .vector_35     0x9fc01660        0x8 c:/program files/microchip/xc32/v1.30-tc9/bin/../lib/gcc/pic32mx/4.5.2/../../../../pic32mx/lib\libpic32.a(vector35.o)
                0x9fc01660                __vector_dispatch_35
                0x00000001                ASSERT (((_vector_spacing == 0x0) || (SIZEOF (.vector_35) <= (_vector_spacing << 0x5))), function at exception vector 35 too large)

.vector_36      0x9fc01680        0x8
 *(.vector_36)
 .vector_36     0x9fc01680        0x8 c:/program files/microchip/xc32/v1.30-tc9/bin/../lib/gcc/pic32mx/4.5.2/../../../../pic32mx/lib\libpic32.a(vector36.o)
                0x9fc01680                __vector_dispatch_36
                0x00000001                ASSERT (((_vector_spacing == 0x0) || (SIZEOF (.vector_36) <= (_vector_spacing << 0x5))), function at exception vector 36 too large)

.vector_37      0x9fc016a0        0x8
 *(.vector_37)
 .vector_37     0x9fc016a0        0x8 c:/program files/microchip/xc32/v1.30-tc9/bin/../lib/gcc/pic32mx/4.5.2/../../../../pic32mx/lib\libpic32.a(vector37.o)
                0x9fc016a0                __vector_dispatch_37
                0x00000001                ASSERT (((_vector_spacing == 0x0) || (SIZEOF (.vector_37) <= (_vector_spacing << 0x5))), function at exception vector 37 too large)

.vector_38      0x9fc016c0        0x8
 *(.vector_38)
 .vector_38     0x9fc016c0        0x8 c:/program files/microchip/xc32/v1.30-tc9/bin/../lib/gcc/pic32mx/4.5.2/../../../../pic32mx/lib\libpic32.a(vector38.o)
                0x9fc016c0                __vector_dispatch_38
                0x00000001                ASSERT (((_vector_spacing == 0x0) || (SIZEOF (.vector_38) <= (_vector_spacing << 0x5))), function at exception vector 38 too large)

.vector_39      0x9fc016e0        0x8
 *(.vector_39)
 .vector_39     0x9fc016e0        0x8 c:/program files/microchip/xc32/v1.30-tc9/bin/../lib/gcc/pic32mx/4.5.2/../../../../pic32mx/lib\libpic32.a(vector39.o)
                0x9fc016e0                __vector_dispatch_39
                0x00000001                ASSERT (((_vector_spacing == 0x0) || (SIZEOF (.vector_39) <= (_vector_spacing << 0x5))), function at exception vector 39 too large)

.vector_40      0x9fc01700        0x8
 *(.vector_40)
 .vector_40     0x9fc01700        0x8 c:/program files/microchip/xc32/v1.30-tc9/bin/../lib/gcc/pic32mx/4.5.2/../../../../pic32mx/lib\libpic32.a(vector40.o)
                0x9fc01700                __vector_dispatch_40
                0x00000001                ASSERT (((_vector_spacing == 0x0) || (SIZEOF (.vector_40) <= (_vector_spacing << 0x5))), function at exception vector 40 too large)

.vector_41      0x9fc01720        0x8
 *(.vector_41)
 .vector_41     0x9fc01720        0x8 c:/program files/microchip/xc32/v1.30-tc9/bin/../lib/gcc/pic32mx/4.5.2/../../../../pic32mx/lib\libpic32.a(vector41.o)
                0x9fc01720                __vector_dispatch_41
                0x00000001                ASSERT (((_vector_spacing == 0x0) || (SIZEOF (.vector_41) <= (_vector_spacing << 0x5))), function at exception vector 41 too large)

.vector_42      0x9fc01740        0x8
 *(.vector_42)
 .vector_42     0x9fc01740        0x8 c:/program files/microchip/xc32/v1.30-tc9/bin/../lib/gcc/pic32mx/4.5.2/../../../../pic32mx/lib\libpic32.a(vector42.o)
                0x9fc01740                __vector_dispatch_42
                0x00000001                ASSERT (((_vector_spacing == 0x0) || (SIZEOF (.vector_42) <= (_vector_spacing << 0x5))), function at exception vector 42 too large)

.vector_43      0x9fc01760        0x8
 *(.vector_43)
 .vector_43     0x9fc01760        0x8 c:/program files/microchip/xc32/v1.30-tc9/bin/../lib/gcc/pic32mx/4.5.2/../../../../pic32mx/lib\libpic32.a(vector43.o)
                0x9fc01760                __vector_dispatch_43
                0x00000001                ASSERT (((_vector_spacing == 0x0) || (SIZEOF (.vector_43) <= (_vector_spacing << 0x5))), function at exception vector 43 too large)

.vector_44      0x9fc01780        0x8
 *(.vector_44)
 .vector_44     0x9fc01780        0x8 c:/program files/microchip/xc32/v1.30-tc9/bin/../lib/gcc/pic32mx/4.5.2/../../../../pic32mx/lib\libpic32.a(vector44.o)
                0x9fc01780                __vector_dispatch_44
                0x00000001                ASSERT (((_vector_spacing == 0x0) || (SIZEOF (.vector_44) <= (_vector_spacing << 0x5))), function at exception vector 44 too large)

.vector_45      0x9fc017a0        0x8
 *(.vector_45)
 .vector_45     0x9fc017a0        0x8 c:/program files/microchip/xc32/v1.30-tc9/bin/../lib/gcc/pic32mx/4.5.2/../../../../pic32mx/lib\libpic32.a(vector45.o)
                0x9fc017a0                __vector_dispatch_45
                0x00000001                ASSERT (((_vector_spacing == 0x0) || (SIZEOF (.vector_45) <= (_vector_spacing << 0x5))), function at exception vector 45 too large)

.vector_46      0x9fc017c0        0x8
 *(.vector_46)
 .vector_46     0x9fc017c0        0x8 c:/program files/microchip/xc32/v1.30-tc9/bin/../lib/gcc/pic32mx/4.5.2/../../../../pic32mx/lib\libpic32.a(vector46.o)
                0x9fc017c0                __vector_dispatch_46
                0x00000001                ASSERT (((_vector_spacing == 0x0) || (SIZEOF (.vector_46) <= (_vector_spacing << 0x5))), function at exception vector 46 too large)

.vector_47      0x9fc017e0        0x8
 *(.vector_47)
 .vector_47     0x9fc017e0        0x8 c:/program files/microchip/xc32/v1.30-tc9/bin/../lib/gcc/pic32mx/4.5.2/../../../../pic32mx/lib\libpic32.a(vector47.o)
                0x9fc017e0                __vector_dispatch_47
                0x00000001                ASSERT (((_vector_spacing == 0x0) || (SIZEOF (.vector_47) <= (_vector_spacing << 0x5))), function at exception vector 47 too large)

.vector_48      0x9fc01800        0x8
 *(.vector_48)
 .vector_48     0x9fc01800        0x8 c:/program files/microchip/xc32/v1.30-tc9/bin/../lib/gcc/pic32mx/4.5.2/../../../../pic32mx/lib\libpic32.a(vector48.o)
                0x9fc01800                __vector_dispatch_48
                0x00000001                ASSERT (((_vector_spacing == 0x0) || (SIZEOF (.vector_48) <= (_vector_spacing << 0x5))), function at exception vector 48 too large)

.vector_49      0x9fc01820        0x8
 *(.vector_49)
 .vector_49     0x9fc01820        0x8 c:/program files/microchip/xc32/v1.30-tc9/bin/../lib/gcc/pic32mx/4.5.2/../../../../pic32mx/lib\libpic32.a(vector49.o)
                0x9fc01820                __vector_dispatch_49
                0x00000001                ASSERT (((_vector_spacing == 0x0) || (SIZEOF (.vector_49) <= (_vector_spacing << 0x5))), function at exception vector 49 too large)

.vector_50      0x9fc01840        0x8
 *(.vector_50)
 .vector_50     0x9fc01840        0x8 c:/program files/microchip/xc32/v1.30-tc9/bin/../lib/gcc/pic32mx/4.5.2/../../../../pic32mx/lib\libpic32.a(vector50.o)
                0x9fc01840                __vector_dispatch_50
                0x00000001                ASSERT (((_vector_spacing == 0x0) || (SIZEOF (.vector_50) <= (_vector_spacing << 0x5))), function at exception vector 50 too large)

.vector_51      0x9fc01860        0x8
 *(.vector_51)
 .vector_51     0x9fc01860        0x8 c:/program files/microchip/xc32/v1.30-tc9/bin/../lib/gcc/pic32mx/4.5.2/../../../../pic32mx/lib\libpic32.a(vector51.o)
                0x9fc01860                __vector_dispatch_51
                0x00000001                ASSERT (((_vector_spacing == 0x0) || (SIZEOF (.vector_51) <= (_vector_spacing << 0x5))), function at exception vector 51 too large)

.vector_52      0x9fc01880        0x8
 *(.vector_52)
 .vector_52     0x9fc01880        0x8 c:/program files/microchip/xc32/v1.30-tc9/bin/../lib/gcc/pic32mx/4.5.2/../../../../pic32mx/lib\libpic32.a(vector52.o)
                0x9fc01880                __vector_dispatch_52
                0x00000001                ASSERT (((_vector_spacing == 0x0) || (SIZEOF (.vector_52) <= (_vector_spacing << 0x5))), function at exception vector 52 too large)

.vector_53      0x9fc018a0        0x8
 *(.vector_53)
 .vector_53     0x9fc018a0        0x8 c:/program files/microchip/xc32/v1.30-tc9/bin/../lib/gcc/pic32mx/4.5.2/../../../../pic32mx/lib\libpic32.a(vector53.o)
                0x9fc018a0                __vector_dispatch_53
                0x00000001                ASSERT (((_vector_spacing == 0x0) || (SIZEOF (.vector_53) <= (_vector_spacing << 0x5))), function at exception vector 53 too large)

.vector_54      0x9fc018c0        0x8
 *(.vector_54)
 .vector_54     0x9fc018c0        0x8 c:/program files/microchip/xc32/v1.30-tc9/bin/../lib/gcc/pic32mx/4.5.2/../../../../pic32mx/lib\libpic32.a(vector54.o)
                0x9fc018c0                __vector_dispatch_54
                0x00000001                ASSERT (((_vector_spacing == 0x0) || (SIZEOF (.vector_54) <= (_vector_spacing << 0x5))), function at exception vector 54 too large)

.vector_55      0x9fc018e0        0x8
 *(.vector_55)
 .vector_55     0x9fc018e0        0x8 c:/program files/microchip/xc32/v1.30-tc9/bin/../lib/gcc/pic32mx/4.5.2/../../../../pic32mx/lib\libpic32.a(vector55.o)
                0x9fc018e0                __vector_dispatch_55
                0x00000001                ASSERT (((_vector_spacing == 0x0) || (SIZEOF (.vector_55) <= (_vector_spacing << 0x5))), function at exception vector 55 too large)

.vector_56      0x9fc01900        0x8
 *(.vector_56)
 .vector_56     0x9fc01900        0x8 c:/program files/microchip/xc32/v1.30-tc9/bin/../lib/gcc/pic32mx/4.5.2/../../../../pic32mx/lib\libpic32.a(vector56.o)
                0x9fc01900                __vector_dispatch_56
                0x00000001                ASSERT (((_vector_spacing == 0x0) || (SIZEOF (.vector_56) <= (_vector_spacing << 0x5))), function at exception vector 56 too large)

.vector_57      0x9fc01920        0x8
 *(.vector_57)
 .vector_57     0x9fc01920        0x8 c:/program files/microchip/xc32/v1.30-tc9/bin/../lib/gcc/pic32mx/4.5.2/../../../../pic32mx/lib\libpic32.a(vector57.o)
                0x9fc01920                __vector_dispatch_57
                0x00000001                ASSERT (((_vector_spacing == 0x0) || (SIZEOF (.vector_57) <= (_vector_spacing << 0x5))), function at exception vector 57 too large)

.vector_58      0x9fc01940        0x8
 *(.vector_58)
 .vector_58     0x9fc01940        0x8 c:/program files/microchip/xc32/v1.30-tc9/bin/../lib/gcc/pic32mx/4.5.2/../../../../pic32mx/lib\libpic32.a(vector58.o)
                0x9fc01940                __vector_dispatch_58
                0x00000001                ASSERT (((_vector_spacing == 0x0) || (SIZEOF (.vector_58) <= (_vector_spacing << 0x5))), function at exception vector 58 too large)

.vector_59      0x9fc01960        0x8
 *(.vector_59)
 .vector_59     0x9fc01960        0x8 c:/program files/microchip/xc32/v1.30-tc9/bin/../lib/gcc/pic32mx/4.5.2/../../../../pic32mx/lib\libpic32.a(vector59.o)
                0x9fc01960                __vector_dispatch_59
                0x00000001                ASSERT (((_vector_spacing == 0x0) || (SIZEOF (.vector_59) <= (_vector_spacing << 0x5))), function at exception vector 59 too large)

.vector_60      0x9fc01980        0x8
 *(.vector_60)
 .vector_60     0x9fc01980        0x8 c:/program files/microchip/xc32/v1.30-tc9/bin/../lib/gcc/pic32mx/4.5.2/../../../../pic32mx/lib\libpic32.a(vector60.o)
                0x9fc01980                __vector_dispatch_60
                0x00000001                ASSERT (((_vector_spacing == 0x0) || (SIZEOF (.vector_60) <= (_vector_spacing << 0x5))), function at exception vector 60 too large)

.vector_61      0x9fc019a0        0x8
 *(.vector_61)
 .vector_61     0x9fc019a0        0x8 c:/program files/microchip/xc32/v1.30-tc9/bin/../lib/gcc/pic32mx/4.5.2/../../../../pic32mx/lib\libpic32.a(vector61.o)
                0x9fc019a0                __vector_dispatch_61
                0x00000001                ASSERT (((_vector_spacing == 0x0) || (SIZEOF (.vector_61) <= (_vector_spacing << 0x5))), function at exception vector 61 too large)

.vector_62      0x9fc019c0        0x8
 *(.vector_62)
 .vector_62     0x9fc019c0        0x8 c:/program files/microchip/xc32/v1.30-tc9/bin/../lib/gcc/pic32mx/4.5.2/../../../../pic32mx/lib\libpic32.a(vector62.o)
                0x9fc019c0                __vector_dispatch_62
                0x00000001                ASSERT (((_vector_spacing == 0x0) || (SIZEOF (.vector_62) <= (_vector_spacing << 0x5))), function at exception vector 62 too large)

.vector_63      0x9fc019e0        0x8
 *(.vector_63)
 .vector_63     0x9fc019e0        0x8 c:/program files/microchip/xc32/v1.30-tc9/bin/../lib/gcc/pic32mx/4.5.2/../../../../pic32mx/lib\libpic32.a(vector63.o)
                0x9fc019e0                __vector_dispatch_63
                0x00000001                ASSERT (((_vector_spacing == 0x0) || (SIZEOF (.vector_63) <= (_vector_spacing << 0x5))), function at exception vector 63 too large)

.startup
 *(.startup)

.text           0x9d000000        0x0
 *(.stub .gnu.linkonce.t.*)
 *(.text.*personality*)
 *(.mips16.fn.*)
 *(.mips16.call.*)
 *(.gnu.warning)
                0x9d000000                . = ALIGN (0x4)

.init           0x9d000000        0x0
 *crti.o(.init)
 *crtbegin.o(.init)
 *(EXCLUDE_FILE(*crtn.o *crtend?.o *crtend.o) .init)
 *crtend.o(.init)
 *crtn.o(.init)
                0x9d000000                . = ALIGN (0x4)

.fini           0x9d000000        0x0
 *(.fini)
                0x9d000000                . = ALIGN (0x4)

.preinit_array  0x9d000000        0x0
                0x9d000000                PROVIDE (__preinit_array_start, .)
 *(.preinit_array)
                0x9d000000                PROVIDE (__preinit_array_end, .)
                0x9d000000                . = ALIGN (0x4)

.init_array     0x9d000000        0x0
                0x9d000000                PROVIDE (__init_array_start, .)
 *(SORT(.init_array.*))
 *(.init_array)
                0x9d000000                PROVIDE (__init_array_end, .)
                0x9d000000                . = ALIGN (0x4)

.fini_array     0x9d000000        0x0
                0x9d000000                PROVIDE (__fini_array_start, .)
 *(SORT(.fini_array.*))
 *(.fini_array)
                0x9d000000                PROVIDE (__fini_array_end, .)
                0x9d000000                . = ALIGN (0x4)

.ctors          0x9d000000        0x0
 *crtbegin.o(.ctors)
 *crtbegin?.o(.ctors)
 *(EXCLUDE_FILE(*crtend?.o *crtend.o) .ctors)
 *(SORT(.ctors.*))
 *(.ctors)
                0x9d000000                . = ALIGN (0x4)

.dtors          0x9d000000        0x0
 *crtbegin.o(.dtors)
 *crtbegin?.o(.dtors)
 *(EXCLUDE_FILE(*crtend?.o *crtend.o) .dtors)
 *(SORT(.dtors.*))
 *(.dtors)
                0x9d000000                . = ALIGN (0x4)

.rodata         0x9d000000        0x0
 *(.gnu.linkonce.r.*)
 *(.rodata1)
                0x9d000000                . = ALIGN (0x4)

.sdata2         0x9fc00490        0x0
 *(.sdata2 .sdata2.* .gnu.linkonce.s2.*)
                0x9fc00490                . = ALIGN (0x4)

.sbss2          0x9fc00490        0x0
 *(.sbss2 .sbss2.* .gnu.linkonce.sb2.*)
                0x9fc00490                . = ALIGN (0x4)

.eh_frame_hdr
 *(.eh_frame_hdr)
                0x9fc00490                . = ALIGN (0x4)

.eh_frame
 *(.eh_frame)
                0x9fc00490                . = ALIGN (0x4)

.gcc_except_table
 *(.gcc_except_table .gcc_except_table.*)
                0x9fc00490                . = ALIGN (0x4)

.dbg_data       0xa0000000        0x0
                0xa0000000                . = (. + DEFINED (_DEBUGGER)?0x200:0x0)

.jcr            0xa0000000        0x0
 *(.jcr)
                0xa0000000                . = ALIGN (0x4)

.eh_frame       0xa0000000       0x30
 *(.eh_frame)
 .eh_frame      0xa0000000       0x20 c:/program files/microchip/xc32/v1.30-tc9/bin/../lib/gcc/pic32mx/4.5.2\libgcc.a(_udivdi3.o)
 .eh_frame      0xa0000020       0x10 c:/program files/microchip/xc32/v1.30-tc9/bin/../lib/gcc/pic32mx/4.5.2\libgcc.a(_umoddi3.o)
                0xa0000030                . = ALIGN (0x4)

.gcc_except_table
 *(.gcc_except_table .gcc_except_table.*)
                0xa0000030                . = ALIGN (0x4)

.persist        0xa0000030        0x0
                0xa0000030                _persist_begin = .
 *(.persist .persist.*)
 *(.pbss .pbss.*)
                0xa0000030                . = ALIGN (0x4)
                0xa0000030                _persist_end = .

.data           0xa0000030        0x0
 *(.gnu.linkonce.d.*)
 *(.data1)
                0xa0000030                . = ALIGN (0x4)
                0xa0000030                . = .
                0xa0008020                _gp = (ALIGN (0x10) + 0x7ff0)

.got            0xa0000030        0x0
 *(.got.plt)
 *(.got)
                0xa0000030                . = ALIGN (0x4)

.sdata          0xa0000030       0x50
                0xa0000030                _sdata_begin = .
 *(.sdata .sdata.* .gnu.linkonce.s.*)
 .sdata         0xa0000030        0x4 build/pic32mx_eth_sk_int_dyn/production/_ext/1951764757/system_init_private.o
 .sdata         0xa0000034        0x8 build/pic32mx_eth_sk_int_dyn/production/_ext/1360937237/app.o
 .sdata         0xa000003c       0x1c build/pic32mx_eth_sk_int_dyn/production/_ext/52938249/sys_clk_pic32.o
                0xa000003c                sysPllMultiplierLookup
                0xa0000044                sysPllDivisorLookup
                0xa000004c                peripheralDivisorLookup
                0xa0000050                FRCDivisorLookup
 .sdata         0xa0000058        0x4 build/pic32mx_eth_sk_int_dyn/production/_ext/1886247299/lfsr.o
 .sdata         0xa000005c        0x8 build/pic32mx_eth_sk_int_dyn/production/_ext/1360937237/custom_snmp_app.o
 .sdata         0xa0000064        0x8 build/pic32mx_eth_sk_int_dyn/production/_ext/1164207549/arp.o
 .sdata         0xa000006c        0x2 build/pic32mx_eth_sk_int_dyn/production/_ext/1164207549/dns.o
 .sdata         0xa000006e        0x2 build/pic32mx_eth_sk_int_dyn/production/_ext/1164207549/smtp.o
 .sdata         0xa0000070        0x8 build/pic32mx_eth_sk_int_dyn/production/_ext/1164207549/sntp.o
 .sdata         0xa0000078        0x4 build/pic32mx_eth_sk_int_dyn/production/_ext/1164207549/tcpip_heap_alloc.o
 .sdata         0xa000007c        0x4 c:/program files/microchip/xc32/v1.30-tc9/bin/../lib/gcc/pic32mx/4.5.2/../../../../pic32mx/lib\libpic32.a(xc32_uart.o)
                0xa000007c                __XC_UART
                0xa0000080                . = ALIGN (0x4)
                0xa0000080                _sdata_end = .

.lit8
 *(.lit8)

.lit4
 *(.lit4)
                0xa0000080                . = ALIGN (0x4)
                0xa0000080                _data_end = .
                0xa0000080                _bss_begin = .

.sbss           0xa0000080      0x2f0
                0xa0000080                _sbss_begin = .
 *(.dynsbss)
 *(.sbss .sbss.* .gnu.linkonce.sb.*)
 .sbss          0xa0000080       0x14 build/pic32mx_eth_sk_int_dyn/production/_ext/1951764757/system_init_private.o
                0xa0000080                _SystemTickCount
                0xa0000084                _SystemTickResolution
 .sbss          0xa0000094        0x8 build/pic32mx_eth_sk_int_dyn/production/_ext/1360937237/app.o
                0xa0000094                LEDstate
 .sbss          0xa000009c       0x5c build/pic32mx_eth_sk_int_dyn/production/_ext/1360937237/custom_snmp_app.o
 .sbss          0xa00000f8        0xc build/pic32mx_eth_sk_int_dyn/production/_ext/1360937237/custom_http_app.o
 .sbss          0xa0000104       0x1c build/pic32mx_eth_sk_int_dyn/production/_ext/1164207549/dhcp.o
 .sbss          0xa0000120       0x30 build/pic32mx_eth_sk_int_dyn/production/_ext/1164207549/dns.o
 .sbss          0xa0000150        0xc build/pic32mx_eth_sk_int_dyn/production/_ext/1164207549/ftp.o
 .sbss          0xa000015c       0x18 build/pic32mx_eth_sk_int_dyn/production/_ext/1164207549/http.o
 .sbss          0xa0000174        0x8 build/pic32mx_eth_sk_int_dyn/production/_ext/1164207549/icmp.o
 .sbss          0xa000017c        0x4 build/pic32mx_eth_sk_int_dyn/production/_ext/1164207549/iperf.o
 .sbss          0xa0000180       0x10 build/pic32mx_eth_sk_int_dyn/production/_ext/1164207549/ipv4.o
 .sbss          0xa0000190        0xc build/pic32mx_eth_sk_int_dyn/production/_ext/1164207549/nbns.o
 .sbss          0xa000019c       0x34 build/pic32mx_eth_sk_int_dyn/production/_ext/1164207549/smtp.o
 .sbss          0xa00001d0       0x5c build/pic32mx_eth_sk_int_dyn/production/_ext/1164207549/snmp.o
 .sbss          0xa000022c       0x14 build/pic32mx_eth_sk_int_dyn/production/_ext/1164207549/snmpv3.o
 .sbss          0xa0000240       0x30 build/pic32mx_eth_sk_int_dyn/production/_ext/1164207549/sntp.o
 .sbss          0xa0000270       0x1c build/pic32mx_eth_sk_int_dyn/production/_ext/1164207549/tcp.o
 .sbss          0xa000028c       0x20 build/pic32mx_eth_sk_int_dyn/production/_ext/1164207549/tcpip_announce.o
 .sbss          0xa00002ac       0x14 build/pic32mx_eth_sk_int_dyn/production/_ext/1164207549/tcpip_commands.o
 .sbss          0xa00002c0       0x24 build/pic32mx_eth_sk_int_dyn/production/_ext/1164207549/tcpip_manager.o
 .sbss          0xa00002e4        0x8 build/pic32mx_eth_sk_int_dyn/production/_ext/1164207549/tcpip_packet.o
 .sbss          0xa00002ec        0x4 build/pic32mx_eth_sk_int_dyn/production/_ext/1164207549/telnet.o
 .sbss          0xa00002f0       0x18 build/pic32mx_eth_sk_int_dyn/production/_ext/1164207549/udp.o
 .sbss          0xa0000308       0x10 build/pic32mx_eth_sk_int_dyn/production/_ext/1418760511/system_command.o
 .sbss          0xa0000318        0x8 build/pic32mx_eth_sk_int_dyn/production/_ext/1418760511/system_debug.o
 .sbss          0xa0000320        0x1 build/pic32mx_eth_sk_int_dyn/production/_ext/1418760511/system_random.o
 *fill*         0xa0000321        0x3 
 .sbss          0xa0000324       0x10 c:/program files/microchip/xc32/v1.30-tc9/bin/../lib/gcc/pic32mx/4.5.2/../../../../pic32mx/lib\libc.a(malloc.o)
                0xa0000324                __allocp
                0xa0000328                __alloct
                0xa000032c                __allocx
 .sbss          0xa0000334        0x1 c:/program files/microchip/xc32/v1.30-tc9/bin/../lib/gcc/pic32mx/4.5.2/../../../../pic32mx/lib\libc.a(_iob.o)
                0xa0000334                _outdone
 *fill*         0xa0000335        0x3 
 .sbss          0xa0000338        0x8 c:/program files/microchip/xc32/v1.30-tc9/bin/../lib/gcc/pic32mx/4.5.2/../../../../pic32mx/lib\libpic32.a(sbrk.o)
                0xa0000338                _minbrk
                0xa000033c                _maxbrk
 .sbss          0xa0000340        0x4 c:/program files/microchip/xc32/v1.30-tc9/bin/../lib/gcc/pic32mx/4.5.2/../../../../pic32mx/lib\libpic32.a(errno.o)
                0xa0000340                errno
 *(.scommon)
 .scommon       0xa0000344       0x10 build/pic32mx_eth_sk_int_dyn/production/_ext/1360937237/app.o
                0xa0000344                appData
                0xa000034c                netH
                0xa0000350                nNets
 .scommon       0xa0000354        0x4 build/pic32mx_eth_sk_int_dyn/production/_ext/1697634946/drv_ethmac.o
                0xa0000354                modeSeljunk
 .scommon       0xa0000358        0x0 build/pic32mx_eth_sk_int_dyn/production/_ext/1697634946/drv_ethmac_lib.o
 .scommon       0xa0000358        0x4 build/pic32mx_eth_sk_int_dyn/production/_ext/521481140/drv_ethphy.o
                0xa0000358                _PhyAdd
 .scommon       0xa000035c        0x0 build/pic32mx_eth_sk_int_dyn/production/_ext/521481140/drv_extphy_dp83848.o
 .scommon       0xa000035c        0x0 build/pic32mx_eth_sk_int_dyn/production/_ext/1104573755/plib_eth_legacy.o
 .scommon       0xa000035c        0x4 build/pic32mx_eth_sk_int_dyn/production/_ext/198928529/plib_int_pic32.o
                0xa000035c                _INT_PLIB_global_int_state
 .scommon       0xa0000360        0xc build/pic32mx_eth_sk_int_dyn/production/_ext/1750042194/sys_fs.o
                0xa0000360                gSYSFSObj
                0xa0000368                errorValue
 .scommon       0xa000036c        0x4 build/pic32mx_eth_sk_int_dyn/production/_ext/693918571/sys_queue.o
                0xa000036c                test
 .scommon       0xa0000370        0x0 build/pic32mx_eth_sk_int_dyn/production/_ext/1164207549/tcpip_manager.o
                0xa0000370                _sbss_end = .
                0xa0000370                . = ALIGN (0x4)

.bss            0xa0000370     0x6de4
 *(.dynbss)
 *(COMMON)
 COMMON         0xa0000370       0x10 build/pic32mx_eth_sk_int_dyn/production/_ext/1360937237/app.o
                0xa0000370                appDrvObjects
 COMMON         0xa0000380       0x34 build/pic32mx_eth_sk_int_dyn/production/_ext/521481140/drv_ethphy.o
                0xa0000380                gDrvETHPHYClientObj
                0xa0000390                gDrvETHPHYObj
 COMMON         0xa00003b4      0x10c build/pic32mx_eth_sk_int_dyn/production/_ext/184581597/drv_nvm.o
                0xa00003b4                gDrvNVMObj
                0xa00003d0                gDrvNVMBufferObject
                0xa00004ac                gDrvNVMClientObj
 COMMON         0xa00004c0     0x401c build/pic32mx_eth_sk_int_dyn/production/_ext/184581597/drv_nvm_media.o
                0xa00004c0                gDrvNVMMediaObject
 COMMON         0xa00044dc       0x34 build/pic32mx_eth_sk_int_dyn/production/_ext/52938249/sys_clk.o
                0xa00044dc                clkObject
 COMMON         0xa0004510     0x1e14 build/pic32mx_eth_sk_int_dyn/production/_ext/1750042194/sys_fs.o
                0xa0004510                gSYSFSFileObj
                0xa0005f3c                gSYSFSMountPoint
 COMMON         0xa0006324      0xdac build/pic32mx_eth_sk_int_dyn/production/_ext/1750042194/sys_fs_media_manager.o
                0xa0006324                gSYSFSMediaObject
                0xa0006a2c                gSYSFSVolumeObject
                0xa000706c                VolToPart
 COMMON         0xa00070d0       0x10 build/pic32mx_eth_sk_int_dyn/production/_ext/614935175/mpfs.o
                0xa00070d0                mpfsObject
 COMMON         0xa00070e0       0x40 build/pic32mx_eth_sk_int_dyn/production/_ext/1886247299/hashes.o
                0xa00070e0                lastBlock
 COMMON         0xa0007120       0x34 build/pic32mx_eth_sk_int_dyn/production/_ext/1164207549/iperf.o
                0xa0007120                g_bfr
                0xa0007154                . = ALIGN ((. != 0x0)?0x4:0x1)
                0xa0007154                . = ALIGN (0x4)
                0xa0007154                _end = .
                0xa0007154                _bss_end = .
                0x00020000                _bmxdudba_address = 0x20000
                0x00020000                _bmxdupba_address = 0x20000

/DISCARD/
 *(.pdr)
 *(.rel.dyn)
 *(.note.GNU-stack)
 *(.note.GNU-stack)
 *(.gnu_debuglink)
 *(.gnu.lto_*)
 *(.discard)

.gptab.sdata
 *(.gptab.data)
 *(.gptab.sdata)

.gptab.sbss
 *(.gptab.bss)
 *(.gptab.sbss)

.mdebug.abi32   0xa0007154        0x0
 *(.mdebug.abi32)
 .mdebug.abi32  0xa0007154        0x0 build/pic32mx_eth_sk_int_dyn/production/_ext/1951764757/system_init.o
 .mdebug.abi32  0xa0007154        0x0 build/pic32mx_eth_sk_int_dyn/production/_ext/1951764757/system_init_private.o
 .mdebug.abi32  0xa0007154        0x0 build/pic32mx_eth_sk_int_dyn/production/_ext/1951764757/system_int.o
 .mdebug.abi32  0xa0007154        0x0 build/pic32mx_eth_sk_int_dyn/production/_ext/1951764757/system_tasks.o
 .mdebug.abi32  0xa0007154        0x0 build/pic32mx_eth_sk_int_dyn/production/_ext/1360937237/app.o
 .mdebug.abi32  0xa0007154        0x0 build/pic32mx_eth_sk_int_dyn/production/_ext/1951764757/bsp_sys_init.o
 .mdebug.abi32  0xa0007154        0x0 build/pic32mx_eth_sk_int_dyn/production/_ext/377798159/config_performance.o
 .mdebug.abi32  0xa0007154        0x0 build/pic32mx_eth_sk_int_dyn/production/_ext/1697634946/drv_ethmac.o
 .mdebug.abi32  0xa0007154        0x0 build/pic32mx_eth_sk_int_dyn/production/_ext/1697634946/drv_ethmac_lib.o
 .mdebug.abi32  0xa0007154        0x0 build/pic32mx_eth_sk_int_dyn/production/_ext/521481140/drv_ethphy.o
 .mdebug.abi32  0xa0007154        0x0 build/pic32mx_eth_sk_int_dyn/production/_ext/521481140/drv_extphy_dp83848.o
 .mdebug.abi32  0xa0007154        0x0 build/pic32mx_eth_sk_int_dyn/production/_ext/184581597/drv_nvm.o
 .mdebug.abi32  0xa0007154        0x0 build/pic32mx_eth_sk_int_dyn/production/_ext/184581597/drv_nvm_media.o
 .mdebug.abi32  0xa0007154        0x0 build/pic32mx_eth_sk_int_dyn/production/_ext/2138650627/db_appio.o
 .mdebug.abi32  0xa0007154        0x0 build/pic32mx_eth_sk_int_dyn/production/_ext/2138650627/usart.o
 .mdebug.abi32  0xa0007154        0x0 build/pic32mx_eth_sk_int_dyn/production/_ext/1104573755/plib_eth_legacy.o
 .mdebug.abi32  0xa0007154        0x0 build/pic32mx_eth_sk_int_dyn/production/_ext/198928529/plib_int_pic32.o
 .mdebug.abi32  0xa0007154        0x0 build/pic32mx_eth_sk_int_dyn/production/_ext/52938249/sys_clk_pic32.o
 .mdebug.abi32  0xa0007154        0x0 build/pic32mx_eth_sk_int_dyn/production/_ext/52938249/sys_clk.o
 .mdebug.abi32  0xa0007154        0x0 build/pic32mx_eth_sk_int_dyn/production/_ext/1750042194/sys_fs.o
 .mdebug.abi32  0xa0007154        0x0 build/pic32mx_eth_sk_int_dyn/production/_ext/1750042194/sys_fs_media_manager.o
 .mdebug.abi32  0xa0007154        0x0 build/pic32mx_eth_sk_int_dyn/production/_ext/614935175/mpfs.o
 .mdebug.abi32  0xa0007154        0x0 build/pic32mx_eth_sk_int_dyn/production/_ext/1964723635/ff.o
 .mdebug.abi32  0xa0007154        0x0 build/pic32mx_eth_sk_int_dyn/production/_ext/732200470/diskio.o
 .mdebug.abi32  0xa0007154        0x0 build/pic32mx_eth_sk_int_dyn/production/_ext/1042686532/sys_int_pic32.o
 .mdebug.abi32  0xa0007154        0x0 build/pic32mx_eth_sk_int_dyn/production/_ext/826631961/sys_ports.o
 .mdebug.abi32  0xa0007154        0x0 build/pic32mx_eth_sk_int_dyn/production/_ext/693918571/sys_queue.o
 .mdebug.abi32  0xa0007154        0x0 build/pic32mx_eth_sk_int_dyn/production/_ext/1886247299/big_int.o
 .mdebug.abi32  0xa0007154        0x0 build/pic32mx_eth_sk_int_dyn/production/_ext/1886247299/hashes.o
 .mdebug.abi32  0xa0007154        0x0 build/pic32mx_eth_sk_int_dyn/production/_ext/1886247299/helpers.o
 .mdebug.abi32  0xa0007154        0x0 build/pic32mx_eth_sk_int_dyn/production/_ext/1886247299/lfsr.o
 .mdebug.abi32  0xa0007154        0x0 build/pic32mx_eth_sk_int_dyn/production/_ext/1886247299/sys_fs_wrapper.o
 .mdebug.abi32  0xa0007154        0x0 build/pic32mx_eth_sk_int_dyn/production/_ext/1360937237/assert_to_ide.o
 .mdebug.abi32  0xa0007154        0x0 build/pic32mx_eth_sk_int_dyn/production/_ext/1360937237/mpfs_img2.o
 .mdebug.abi32  0xa0007154        0x0 build/pic32mx_eth_sk_int_dyn/production/_ext/1360937237/custom_snmp_app.o
 .mdebug.abi32  0xa0007154        0x0 build/pic32mx_eth_sk_int_dyn/production/_ext/1360937237/custom_http_app.o
 .mdebug.abi32  0xa0007154        0x0 build/pic32mx_eth_sk_int_dyn/production/_ext/1164207549/arcfour.o
 .mdebug.abi32  0xa0007154        0x0 build/pic32mx_eth_sk_int_dyn/production/_ext/1164207549/arp.o
 .mdebug.abi32  0xa0007154        0x0 build/pic32mx_eth_sk_int_dyn/production/_ext/1164207549/berkeley_api.o
 .mdebug.abi32  0xa0007154        0x0 build/pic32mx_eth_sk_int_dyn/production/_ext/1164207549/dhcp.o
 .mdebug.abi32  0xa0007154        0x0 build/pic32mx_eth_sk_int_dyn/production/_ext/1164207549/dhcps.o
 .mdebug.abi32  0xa0007154        0x0 build/pic32mx_eth_sk_int_dyn/production/_ext/1164207549/dns.o
 .mdebug.abi32  0xa0007154        0x0 build/pic32mx_eth_sk_int_dyn/production/_ext/1164207549/dnss.o
 .mdebug.abi32  0xa0007154        0x0 build/pic32mx_eth_sk_int_dyn/production/_ext/1164207549/ftp.o
 .mdebug.abi32  0xa0007154        0x0 build/pic32mx_eth_sk_int_dyn/production/_ext/1164207549/hash_fnv.o
 .mdebug.abi32  0xa0007154        0x0 build/pic32mx_eth_sk_int_dyn/production/_ext/1164207549/http.o
 .mdebug.abi32  0xa0007154        0x0 build/pic32mx_eth_sk_int_dyn/production/_ext/1164207549/icmp.o
 .mdebug.abi32  0xa0007154        0x0 build/pic32mx_eth_sk_int_dyn/production/_ext/1164207549/icmpv6.o
 .mdebug.abi32  0xa0007154        0x0 build/pic32mx_eth_sk_int_dyn/production/_ext/1164207549/iperf.o
 .mdebug.abi32  0xa0007154        0x0 build/pic32mx_eth_sk_int_dyn/production/_ext/1164207549/ipv4.o
 .mdebug.abi32  0xa0007154        0x0 build/pic32mx_eth_sk_int_dyn/production/_ext/1164207549/ipv6.o
 .mdebug.abi32  0xa0007154        0x0 build/pic32mx_eth_sk_int_dyn/production/_ext/1164207549/nbns.o
 .mdebug.abi32  0xa0007154        0x0 build/pic32mx_eth_sk_int_dyn/production/_ext/1164207549/ndp.o
 .mdebug.abi32  0xa0007154        0x0 build/pic32mx_eth_sk_int_dyn/production/_ext/1164207549/oahash.o
 .mdebug.abi32  0xa0007154        0x0 build/pic32mx_eth_sk_int_dyn/production/_ext/1164207549/rsa.o
 .mdebug.abi32  0xa0007154        0x0 build/pic32mx_eth_sk_int_dyn/production/_ext/1164207549/smtp.o
 .mdebug.abi32  0xa0007154        0x0 build/pic32mx_eth_sk_int_dyn/production/_ext/1164207549/snmp.o
 .mdebug.abi32  0xa0007154        0x0 build/pic32mx_eth_sk_int_dyn/production/_ext/1164207549/snmpv3.o
 .mdebug.abi32  0xa0007154        0x0 build/pic32mx_eth_sk_int_dyn/production/_ext/1164207549/snmpv3_usm.o
 .mdebug.abi32  0xa0007154        0x0 build/pic32mx_eth_sk_int_dyn/production/_ext/1164207549/sntp.o
 .mdebug.abi32  0xa0007154        0x0 build/pic32mx_eth_sk_int_dyn/production/_ext/1164207549/ssl.o
 .mdebug.abi32  0xa0007154        0x0 build/pic32mx_eth_sk_int_dyn/production/_ext/1164207549/tcp.o
 .mdebug.abi32  0xa0007154        0x0 build/pic32mx_eth_sk_int_dyn/production/_ext/1164207549/tcpip_announce.o
 .mdebug.abi32  0xa0007154        0x0 build/pic32mx_eth_sk_int_dyn/production/_ext/1164207549/tcpip_commands.o
 .mdebug.abi32  0xa0007154        0x0 build/pic32mx_eth_sk_int_dyn/production/_ext/1164207549/tcpip_heap_alloc.o
 .mdebug.abi32  0xa0007154        0x0 build/pic32mx_eth_sk_int_dyn/production/_ext/1164207549/tcpip_helpers.o
 .mdebug.abi32  0xa0007154        0x0 build/pic32mx_eth_sk_int_dyn/production/_ext/1164207549/tcpip_mac_object.o
 .mdebug.abi32  0xa0007154        0x0 build/pic32mx_eth_sk_int_dyn/production/_ext/1164207549/tcpip_manager.o
 .mdebug.abi32  0xa0007154        0x0 build/pic32mx_eth_sk_int_dyn/production/_ext/1164207549/tcpip_notify.o
 .mdebug.abi32  0xa0007154        0x0 build/pic32mx_eth_sk_int_dyn/production/_ext/1164207549/tcpip_packet.o
 .mdebug.abi32  0xa0007154        0x0 build/pic32mx_eth_sk_int_dyn/production/_ext/1164207549/tcpip_reboot.o
 .mdebug.abi32  0xa0007154        0x0 build/pic32mx_eth_sk_int_dyn/production/_ext/1164207549/telnet.o
 .mdebug.abi32  0xa0007154        0x0 build/pic32mx_eth_sk_int_dyn/production/_ext/1164207549/udp.o
 .mdebug.abi32  0xa0007154        0x0 build/pic32mx_eth_sk_int_dyn/production/_ext/1164207549/zero_conf_helper.o
 .mdebug.abi32  0xa0007154        0x0 build/pic32mx_eth_sk_int_dyn/production/_ext/1164207549/zero_conf_link_local.o
 .mdebug.abi32  0xa0007154        0x0 build/pic32mx_eth_sk_int_dyn/production/_ext/1164207549/zero_conf_multicast_dns.o
 .mdebug.abi32  0xa0007154        0x0 build/pic32mx_eth_sk_int_dyn/production/_ext/1418760511/pic32mz_ports.o
 .mdebug.abi32  0xa0007154        0x0 build/pic32mx_eth_sk_int_dyn/production/_ext/1418760511/system_command.o
 .mdebug.abi32  0xa0007154        0x0 build/pic32mx_eth_sk_int_dyn/production/_ext/1418760511/system_debug.o
 .mdebug.abi32  0xa0007154        0x0 build/pic32mx_eth_sk_int_dyn/production/_ext/1418760511/system_random.o
 .mdebug.abi32  0xa0007154        0x0 build/pic32mx_eth_sk_int_dyn/production/_ext/1418760511/system_userio.o
 .mdebug.abi32  0xa0007154        0x0 build/pic32mx_eth_sk_int_dyn/production/_ext/1360937237/main.o
 .mdebug.abi32  0xa0007154        0x0 ..\..\..\..\..\framework\tcpip\src\crypto\aes_pic32mx.a(AES_CFB.o)
 .mdebug.abi32  0xa0007154        0x0 ..\..\..\..\..\framework\tcpip\src\crypto\aes_pic32mx.a(AES_ECB_PIC32.o)
 .mdebug.abi32  0xa0007154        0x0 c:/program files/microchip/xc32/v1.30-tc9/bin/../lib/gcc/pic32mx/4.5.2/../../../../pic32mx/lib\libmchp_peripheral_32MX795F512L.a(port_set_pins_digital_in_lib.o)
 .mdebug.abi32  0xa0007154        0x0 c:/program files/microchip/xc32/v1.30-tc9/bin/../lib/gcc/pic32mx/4.5.2/../../../../pic32mx/lib\libmchp_peripheral_32MX795F512L.a(port_set_pins_digital_out_lib.o)
 .mdebug.abi32  0xa0007154        0x0 c:/program files/microchip/xc32/v1.30-tc9/bin/../lib/gcc/pic32mx/4.5.2/../../../../pic32mx/lib\libmchp_peripheral_32MX795F512L.a(_ports_tbl_libp.o)
 .mdebug.abi32  0xa0007154        0x0 c:/program files/microchip/xc32/v1.30-tc9/bin/../lib/gcc/pic32mx/4.5.2\libgcc.a(_udivdi3.o)
 .mdebug.abi32  0xa0007154        0x0 c:/program files/microchip/xc32/v1.30-tc9/bin/../lib/gcc/pic32mx/4.5.2\libgcc.a(floatunsisf.o)
 .mdebug.abi32  0xa0007154        0x0 c:/program files/microchip/xc32/v1.30-tc9/bin/../lib/gcc/pic32mx/4.5.2/../../../../pic32mx/lib\libpic32.a(default-bootstrap-exception-handler.o)
 .mdebug.abi32  0xa0007154        0x0 c:/program files/microchip/xc32/v1.30-tc9/bin/../lib/gcc/pic32mx/4.5.2/../../../../pic32mx/lib\libpic32.a(default-on-reset.o)
 .mdebug.abi32  0xa0007154        0x0 c:/program files/microchip/xc32/v1.30-tc9/bin/../lib/gcc/pic32mx/4.5.2/../../../../pic32mx/lib\libpic32.a(default-on-bootstrap.o)
 .mdebug.abi32  0xa0007154        0x0 c:/program files/microchip/xc32/v1.30-tc9/bin/../lib/gcc/pic32mx/4.5.2/../../../../pic32mx/lib\libpic32.a(defaultinterrupt.o)
 .mdebug.abi32  0xa0007154        0x0 c:/program files/microchip/xc32/v1.30-tc9/bin/../lib/gcc/pic32mx/4.5.2/../../../../pic32mx/lib\libc.a(fassert.o)
 .mdebug.abi32  0xa0007154        0x0 c:/program files/microchip/xc32/v1.30-tc9/bin/../lib/gcc/pic32mx/4.5.2/../../../../pic32mx/lib\libc.a(atoi.o)
 .mdebug.abi32  0xa0007154        0x0 c:/program files/microchip/xc32/v1.30-tc9/bin/../lib/gcc/pic32mx/4.5.2/../../../../pic32mx/lib\libc.a(atol.o)
 .mdebug.abi32  0xa0007154        0x0 c:/program files/microchip/xc32/v1.30-tc9/bin/../lib/gcc/pic32mx/4.5.2/../../../../pic32mx/lib\libc.a(calloc.o)
 .mdebug.abi32  0xa0007154        0x0 c:/program files/microchip/xc32/v1.30-tc9/bin/../lib/gcc/pic32mx/4.5.2/../../../../pic32mx/lib\libc.a(ctype.o)
 .mdebug.abi32  0xa0007154        0x0 c:/program files/microchip/xc32/v1.30-tc9/bin/../lib/gcc/pic32mx/4.5.2/../../../../pic32mx/lib\libc.a(malloc.o)
 .mdebug.abi32  0xa0007154        0x0 c:/program files/microchip/xc32/v1.30-tc9/bin/../lib/gcc/pic32mx/4.5.2/../../../../pic32mx/lib\libc.a(rand.o)
 .mdebug.abi32  0xa0007154        0x0 c:/program files/microchip/xc32/v1.30-tc9/bin/../lib/gcc/pic32mx/4.5.2/../../../../pic32mx/lib\libc.a(signal.o)
 .mdebug.abi32  0xa0007154        0x0 c:/program files/microchip/xc32/v1.30-tc9/bin/../lib/gcc/pic32mx/4.5.2/../../../../pic32mx/lib\libc.a(strchr.o)
 .mdebug.abi32  0xa0007154        0x0 c:/program files/microchip/xc32/v1.30-tc9/bin/../lib/gcc/pic32mx/4.5.2/../../../../pic32mx/lib\libc.a(strncat.o)
 .mdebug.abi32  0xa0007154        0x0 c:/program files/microchip/xc32/v1.30-tc9/bin/../lib/gcc/pic32mx/4.5.2/../../../../pic32mx/lib\libc.a(strncmp.o)
 .mdebug.abi32  0xa0007154        0x0 c:/program files/microchip/xc32/v1.30-tc9/bin/../lib/gcc/pic32mx/4.5.2/../../../../pic32mx/lib\libc.a(strncpy.o)
 .mdebug.abi32  0xa0007154        0x0 c:/program files/microchip/xc32/v1.30-tc9/bin/../lib/gcc/pic32mx/4.5.2/../../../../pic32mx/lib\libc.a(strstr.o)
 .mdebug.abi32  0xa0007154        0x0 c:/program files/microchip/xc32/v1.30-tc9/bin/../lib/gcc/pic32mx/4.5.2/../../../../pic32mx/lib\libc.a(strtok.o)
 .mdebug.abi32  0xa0007154        0x0 c:/program files/microchip/xc32/v1.30-tc9/bin/../lib/gcc/pic32mx/4.5.2/../../../../pic32mx/lib\libc.a(exit.o)
 .mdebug.abi32  0xa0007154        0x0 c:/program files/microchip/xc32/v1.30-tc9/bin/../lib/gcc/pic32mx/4.5.2/../../../../pic32mx/lib\libc.a(fprintf_cdnopsuxX.eo)
 .mdebug.abi32  0xa0007154        0x0 c:/program files/microchip/xc32/v1.30-tc9/bin/../lib/gcc/pic32mx/4.5.2/../../../../pic32mx/lib\libc.a(snprintf_cdnopsuxX.eo)
 .mdebug.abi32  0xa0007154        0x0 c:/program files/microchip/xc32/v1.30-tc9/bin/../lib/gcc/pic32mx/4.5.2/../../../../pic32mx/lib\libc.a(sprintf_cdnopsuxX.eo)
 .mdebug.abi32  0xa0007154        0x0 c:/program files/microchip/xc32/v1.30-tc9/bin/../lib/gcc/pic32mx/4.5.2/../../../../pic32mx/lib\libc.a(vsnprintf_cdnopsuxX.eo)
 .mdebug.abi32  0xa0007154        0x0 c:/program files/microchip/xc32/v1.30-tc9/bin/../lib/gcc/pic32mx/4.5.2/../../../../pic32mx/lib\libc.a(vsnprintf.o)
 .mdebug.abi32  0xa0007154        0x0 c:/program files/microchip/xc32/v1.30-tc9/bin/../lib/gcc/pic32mx/4.5.2/../../../../pic32mx/lib\libc.a(_iob.o)
 .mdebug.abi32  0xa0007154        0x0 c:/program files/microchip/xc32/v1.30-tc9/bin/../lib/gcc/pic32mx/4.5.2/../../../../pic32mx/lib\libc.a(stdclean_simple.o)
 .mdebug.abi32  0xa0007154        0x0 c:/program files/microchip/xc32/v1.30-tc9/bin/../lib/gcc/pic32mx/4.5.2/../../../../pic32mx/lib\libc.a(strcspn.o)
 .mdebug.abi32  0xa0007154        0x0 c:/program files/microchip/xc32/v1.30-tc9/bin/../lib/gcc/pic32mx/4.5.2/../../../../pic32mx/lib\libc.a(strspn.o)
 .mdebug.abi32  0xa0007154        0x0 c:/program files/microchip/xc32/v1.30-tc9/bin/../lib/gcc/pic32mx/4.5.2/../../../../pic32mx/lib\libc.a(doprnt_cdnopsuxX.eo)
 .mdebug.abi32  0xa0007154        0x0 c:/program files/microchip/xc32/v1.30-tc9/bin/../lib/gcc/pic32mx/4.5.2/../../../../pic32mx/lib\libc.a(doprnt.o)
 .mdebug.abi32  0xa0007154        0x0 c:/program files/microchip/xc32/v1.30-tc9/bin/../lib/gcc/pic32mx/4.5.2/../../../../pic32mx/lib\libc.a(_fputc_simple.o)
 .mdebug.abi32  0xa0007154        0x0 c:/program files/microchip/xc32/v1.30-tc9/bin/../lib/gcc/pic32mx/4.5.2/../../../../pic32mx/lib\libc.a(powersf.o)
 .mdebug.abi32  0xa0007154        0x0 c:/program files/microchip/xc32/v1.30-tc9/bin/../lib/gcc/pic32mx/4.5.2/../../../../pic32mx/lib\libc.a(_flsbuf_simple.o)
 .mdebug.abi32  0xa0007154        0x0 c:/program files/microchip/xc32/v1.30-tc9/bin/../lib/gcc/pic32mx/4.5.2/../../../../pic32mx/lib\libpic32.a(sbrk.o)
 .mdebug.abi32  0xa0007154        0x0 c:/program files/microchip/xc32/v1.30-tc9/bin/../lib/gcc/pic32mx/4.5.2/../../../../pic32mx/lib\libpic32.a(write.o)
 .mdebug.abi32  0xa0007154        0x0 c:/program files/microchip/xc32/v1.30-tc9/bin/../lib/gcc/pic32mx/4.5.2/../../../../pic32mx/lib\libpic32.a(errno.o)
 .mdebug.abi32  0xa0007154        0x0 c:/program files/microchip/xc32/v1.30-tc9/bin/../lib/gcc/pic32mx/4.5.2/../../../../pic32mx/lib\libpic32.a(_mon_putc.o)
 .mdebug.abi32  0xa0007154        0x0 c:/program files/microchip/xc32/v1.30-tc9/bin/../lib/gcc/pic32mx/4.5.2/../../../../pic32mx/lib\libpic32.a(xc32_uart.o)
 .mdebug.abi32  0xa0007154        0x0 c:/program files/microchip/xc32/v1.30-tc9/bin/../lib/gcc/pic32mx/4.5.2/../../../../pic32mx/lib\libe.a(_floatdisf.o)
 .mdebug.abi32  0xa0007154        0x0 c:/program files/microchip/xc32/v1.30-tc9/bin/../lib/gcc/pic32mx/4.5.2\libgcc.a(_floatundisf.o)
 .mdebug.abi32  0xa0007154        0x0 c:/program files/microchip/xc32/v1.30-tc9/bin/../lib/gcc/pic32mx/4.5.2\libgcc.a(_umoddi3.o)

.mdebug.abiN32
 *(.mdebug.abiN32)

.mdebug.abi64
 *(.mdebug.abi64)

.mdebug.abiO64
 *(.mdebug.abiO64)

.mdebug.eabi32
 *(.mdebug.eabi32)

.mdebug.eabi64
 *(.mdebug.eabi64)

.gcc_compiled_long32
 *(.gcc_compiled_long32)

.gcc_compiled_long64
 *(.gcc_compiled_long64)

.stab
 *(.stab)

.stabstr
 *(.stabstr)

.stab.excl
 *(.stab.excl)

.stab.exclstr
 *(.stab.exclstr)

.stab.index
 *(.stab.index)

.stab.indexstr
 *(.stab.indexstr)

.comment        0x00000000      0x30c
 *(.comment)
 .comment       0x00000000       0x42 build/pic32mx_eth_sk_int_dyn/production/_ext/1951764757/system_init.o
                                 0x43 (size before relaxing)
 .comment       0x00000000       0x43 build/pic32mx_eth_sk_int_dyn/production/_ext/1951764757/system_init_private.o
 .comment       0x00000000       0x43 build/pic32mx_eth_sk_int_dyn/production/_ext/1951764757/system_int.o
 .comment       0x00000000       0x43 build/pic32mx_eth_sk_int_dyn/production/_ext/1951764757/system_tasks.o
 .comment       0x00000000       0x43 build/pic32mx_eth_sk_int_dyn/production/_ext/1360937237/app.o
 .comment       0x00000000       0x43 build/pic32mx_eth_sk_int_dyn/production/_ext/1951764757/bsp_sys_init.o
 .comment       0x00000000       0x43 build/pic32mx_eth_sk_int_dyn/production/_ext/377798159/config_performance.o
 .comment       0x00000000       0x43 build/pic32mx_eth_sk_int_dyn/production/_ext/1697634946/drv_ethmac.o
 .comment       0x00000000       0x43 build/pic32mx_eth_sk_int_dyn/production/_ext/1697634946/drv_ethmac_lib.o
 .comment       0x00000000       0x43 build/pic32mx_eth_sk_int_dyn/production/_ext/521481140/drv_ethphy.o
 .comment       0x00000000       0x43 build/pic32mx_eth_sk_int_dyn/production/_ext/521481140/drv_extphy_dp83848.o
 .comment       0x00000000       0x43 build/pic32mx_eth_sk_int_dyn/production/_ext/184581597/drv_nvm.o
 .comment       0x00000000       0x43 build/pic32mx_eth_sk_int_dyn/production/_ext/184581597/drv_nvm_media.o
 .comment       0x00000000       0x43 build/pic32mx_eth_sk_int_dyn/production/_ext/2138650627/db_appio.o
 .comment       0x00000000       0x43 build/pic32mx_eth_sk_int_dyn/production/_ext/2138650627/usart.o
 .comment       0x00000000       0x43 build/pic32mx_eth_sk_int_dyn/production/_ext/1104573755/plib_eth_legacy.o
 .comment       0x00000000       0x43 build/pic32mx_eth_sk_int_dyn/production/_ext/198928529/plib_int_pic32.o
 .comment       0x00000000       0x43 build/pic32mx_eth_sk_int_dyn/production/_ext/52938249/sys_clk_pic32.o
 .comment       0x00000000       0x43 build/pic32mx_eth_sk_int_dyn/production/_ext/52938249/sys_clk.o
 .comment       0x00000000       0x43 build/pic32mx_eth_sk_int_dyn/production/_ext/1750042194/sys_fs.o
 .comment       0x00000000       0x43 build/pic32mx_eth_sk_int_dyn/production/_ext/1750042194/sys_fs_media_manager.o
 .comment       0x00000000       0x43 build/pic32mx_eth_sk_int_dyn/production/_ext/614935175/mpfs.o
 .comment       0x00000000       0x43 build/pic32mx_eth_sk_int_dyn/production/_ext/1964723635/ff.o
 .comment       0x00000000       0x43 build/pic32mx_eth_sk_int_dyn/production/_ext/732200470/diskio.o
 .comment       0x00000000       0x43 build/pic32mx_eth_sk_int_dyn/production/_ext/1042686532/sys_int_pic32.o
 .comment       0x00000000       0x43 build/pic32mx_eth_sk_int_dyn/production/_ext/826631961/sys_ports.o
 .comment       0x00000000       0x43 build/pic32mx_eth_sk_int_dyn/production/_ext/693918571/sys_queue.o
 .comment       0x00000000       0x43 build/pic32mx_eth_sk_int_dyn/production/_ext/1886247299/big_int.o
 .comment       0x00000000       0x43 build/pic32mx_eth_sk_int_dyn/production/_ext/1886247299/hashes.o
 .comment       0x00000000       0x43 build/pic32mx_eth_sk_int_dyn/production/_ext/1886247299/helpers.o
 .comment       0x00000000       0x43 build/pic32mx_eth_sk_int_dyn/production/_ext/1886247299/lfsr.o
 .comment       0x00000000       0x43 build/pic32mx_eth_sk_int_dyn/production/_ext/1886247299/sys_fs_wrapper.o
 .comment       0x00000000       0x43 build/pic32mx_eth_sk_int_dyn/production/_ext/1360937237/assert_to_ide.o
 .comment       0x00000000       0x43 build/pic32mx_eth_sk_int_dyn/production/_ext/1360937237/mpfs_img2.o
 .comment       0x00000000       0x43 build/pic32mx_eth_sk_int_dyn/production/_ext/1360937237/custom_snmp_app.o
 .comment       0x00000000       0x43 build/pic32mx_eth_sk_int_dyn/production/_ext/1360937237/custom_http_app.o
 .comment       0x00000000       0x43 build/pic32mx_eth_sk_int_dyn/production/_ext/1164207549/arcfour.o
 .comment       0x00000000       0x43 build/pic32mx_eth_sk_int_dyn/production/_ext/1164207549/arp.o
 .comment       0x00000000       0x43 build/pic32mx_eth_sk_int_dyn/production/_ext/1164207549/berkeley_api.o
 .comment       0x00000000       0x43 build/pic32mx_eth_sk_int_dyn/production/_ext/1164207549/dhcp.o
 .comment       0x00000000       0x43 build/pic32mx_eth_sk_int_dyn/production/_ext/1164207549/dhcps.o
 .comment       0x00000000       0x43 build/pic32mx_eth_sk_int_dyn/production/_ext/1164207549/dns.o
 .comment       0x00000000       0x43 build/pic32mx_eth_sk_int_dyn/production/_ext/1164207549/dnss.o
 .comment       0x00000000       0x43 build/pic32mx_eth_sk_int_dyn/production/_ext/1164207549/ftp.o
 .comment       0x00000000       0x43 build/pic32mx_eth_sk_int_dyn/production/_ext/1164207549/hash_fnv.o
 .comment       0x00000000       0x43 build/pic32mx_eth_sk_int_dyn/production/_ext/1164207549/http.o
 .comment       0x00000000       0x43 build/pic32mx_eth_sk_int_dyn/production/_ext/1164207549/icmp.o
 .comment       0x00000000       0x43 build/pic32mx_eth_sk_int_dyn/production/_ext/1164207549/icmpv6.o
 .comment       0x00000000       0x43 build/pic32mx_eth_sk_int_dyn/production/_ext/1164207549/iperf.o
 .comment       0x00000000       0x43 build/pic32mx_eth_sk_int_dyn/production/_ext/1164207549/ipv4.o
 .comment       0x00000000       0x43 build/pic32mx_eth_sk_int_dyn/production/_ext/1164207549/ipv6.o
 .comment       0x00000000       0x43 build/pic32mx_eth_sk_int_dyn/production/_ext/1164207549/nbns.o
 .comment       0x00000000       0x43 build/pic32mx_eth_sk_int_dyn/production/_ext/1164207549/ndp.o
 .comment       0x00000000       0x43 build/pic32mx_eth_sk_int_dyn/production/_ext/1164207549/oahash.o
 .comment       0x00000000       0x43 build/pic32mx_eth_sk_int_dyn/production/_ext/1164207549/rsa.o
 .comment       0x00000000       0x43 build/pic32mx_eth_sk_int_dyn/production/_ext/1164207549/smtp.o
 .comment       0x00000000       0x43 build/pic32mx_eth_sk_int_dyn/production/_ext/1164207549/snmp.o
 .comment       0x00000000       0x43 build/pic32mx_eth_sk_int_dyn/production/_ext/1164207549/snmpv3.o
 .comment       0x00000000       0x43 build/pic32mx_eth_sk_int_dyn/production/_ext/1164207549/snmpv3_usm.o
 .comment       0x00000000       0x43 build/pic32mx_eth_sk_int_dyn/production/_ext/1164207549/sntp.o
 .comment       0x00000000       0x43 build/pic32mx_eth_sk_int_dyn/production/_ext/1164207549/ssl.o
 .comment       0x00000000       0x43 build/pic32mx_eth_sk_int_dyn/production/_ext/1164207549/tcp.o
 .comment       0x00000000       0x43 build/pic32mx_eth_sk_int_dyn/production/_ext/1164207549/tcpip_announce.o
 .comment       0x00000000       0x43 build/pic32mx_eth_sk_int_dyn/production/_ext/1164207549/tcpip_commands.o
 .comment       0x00000000       0x43 build/pic32mx_eth_sk_int_dyn/production/_ext/1164207549/tcpip_heap_alloc.o
 .comment       0x00000000       0x43 build/pic32mx_eth_sk_int_dyn/production/_ext/1164207549/tcpip_helpers.o
 .comment       0x00000000       0x43 build/pic32mx_eth_sk_int_dyn/production/_ext/1164207549/tcpip_mac_object.o
 .comment       0x00000000       0x43 build/pic32mx_eth_sk_int_dyn/production/_ext/1164207549/tcpip_manager.o
 .comment       0x00000000       0x43 build/pic32mx_eth_sk_int_dyn/production/_ext/1164207549/tcpip_notify.o
 .comment       0x00000000       0x43 build/pic32mx_eth_sk_int_dyn/production/_ext/1164207549/tcpip_packet.o
 .comment       0x00000000       0x43 build/pic32mx_eth_sk_int_dyn/production/_ext/1164207549/tcpip_reboot.o
 .comment       0x00000000       0x43 build/pic32mx_eth_sk_int_dyn/production/_ext/1164207549/telnet.o
 .comment       0x00000000       0x43 build/pic32mx_eth_sk_int_dyn/production/_ext/1164207549/udp.o
 .comment       0x00000000       0x43 build/pic32mx_eth_sk_int_dyn/production/_ext/1164207549/zero_conf_helper.o
 .comment       0x00000000       0x43 build/pic32mx_eth_sk_int_dyn/production/_ext/1164207549/zero_conf_link_local.o
 .comment       0x00000000       0x43 build/pic32mx_eth_sk_int_dyn/production/_ext/1164207549/zero_conf_multicast_dns.o
 .comment       0x00000000       0x43 build/pic32mx_eth_sk_int_dyn/production/_ext/1418760511/pic32mz_ports.o
 .comment       0x00000000       0x43 build/pic32mx_eth_sk_int_dyn/production/_ext/1418760511/system_command.o
 .comment       0x00000000       0x43 build/pic32mx_eth_sk_int_dyn/production/_ext/1418760511/system_debug.o
 .comment       0x00000000       0x43 build/pic32mx_eth_sk_int_dyn/production/_ext/1418760511/system_random.o
 .comment       0x00000000       0x43 build/pic32mx_eth_sk_int_dyn/production/_ext/1418760511/system_userio.o
 .comment       0x00000000       0x43 build/pic32mx_eth_sk_int_dyn/production/_ext/1360937237/main.o
 .comment       0x00000042       0x50 ..\..\..\..\..\framework\tcpip\src\crypto\aes_pic32mx.a(AES_CFB.o)
 .comment       0x00000092       0x50 ..\..\..\..\..\framework\tcpip\src\crypto\aes_pic32mx.a(AES_ECB_PIC32.o)
 .comment       0x000000e2       0x3c c:/program files/microchip/xc32/v1.30-tc9/bin/../lib/gcc/pic32mx/4.5.2/../../../../pic32mx/lib\libmchp_peripheral_32MX795F512L.a(port_set_pins_digital_in_lib.o)
                                 0x3d (size before relaxing)
 .comment       0x00000000       0x3d c:/program files/microchip/xc32/v1.30-tc9/bin/../lib/gcc/pic32mx/4.5.2/../../../../pic32mx/lib\libmchp_peripheral_32MX795F512L.a(port_set_pins_digital_out_lib.o)
 .comment       0x00000000       0x3d c:/program files/microchip/xc32/v1.30-tc9/bin/../lib/gcc/pic32mx/4.5.2/../../../../pic32mx/lib\libmchp_peripheral_32MX795F512L.a(_ports_tbl_libp.o)
 .comment       0x00000000       0x43 c:/program files/microchip/xc32/v1.30-tc9/bin/../lib/gcc/pic32mx/4.5.2\libgcc.a(_udivdi3.o)
 .comment       0x00000000       0x43 c:/program files/microchip/xc32/v1.30-tc9/bin/../lib/gcc/pic32mx/4.5.2\libgcc.a(floatunsisf.o)
 .comment       0x0000011e       0x18 c:/program files/microchip/xc32/v1.30-tc9/bin/../lib/gcc/pic32mx/4.5.2/../../../../pic32mx/lib\libpic32.a(memcmp.o)
                                 0x19 (size before relaxing)
 .comment       0x00000136       0x18 c:/program files/microchip/xc32/v1.30-tc9/bin/../lib/gcc/pic32mx/4.5.2/../../../../pic32mx/lib\libpic32.a(memset.o)
                                 0x19 (size before relaxing)
 .comment       0x0000014e       0x55 c:/program files/microchip/xc32/v1.30-tc9/bin/../lib/gcc/pic32mx/4.5.2/../../../../pic32mx/lib\libpic32.a(strcmp.o)
                                 0x56 (size before relaxing)
 .comment       0x000001a3       0x19 c:/program files/microchip/xc32/v1.30-tc9/bin/../lib/gcc/pic32mx/4.5.2/../../../../pic32mx/lib\libpic32.a(strcpy.o)
                                 0x1a (size before relaxing)
 .comment       0x000001bc       0x19 c:/program files/microchip/xc32/v1.30-tc9/bin/../lib/gcc/pic32mx/4.5.2/../../../../pic32mx/lib\libpic32.a(strlen.o)
                                 0x1a (size before relaxing)
 .comment       0x00000000       0x43 c:/program files/microchip/xc32/v1.30-tc9/bin/../lib/gcc/pic32mx/4.5.2/../../../../pic32mx/lib\libpic32.a(default-bootstrap-exception-handler.o)
 .comment       0x00000000       0x43 c:/program files/microchip/xc32/v1.30-tc9/bin/../lib/gcc/pic32mx/4.5.2/../../../../pic32mx/lib\libpic32.a(default-on-reset.o)
 .comment       0x00000000       0x43 c:/program files/microchip/xc32/v1.30-tc9/bin/../lib/gcc/pic32mx/4.5.2/../../../../pic32mx/lib\libpic32.a(default-on-bootstrap.o)
 .comment       0x00000000       0x43 c:/program files/microchip/xc32/v1.30-tc9/bin/../lib/gcc/pic32mx/4.5.2/../../../../pic32mx/lib\libpic32.a(defaultinterrupt.o)
 .comment       0x00000000       0x43 c:/program files/microchip/xc32/v1.30-tc9/bin/../lib/gcc/pic32mx/4.5.2/../../../../pic32mx/lib\libc.a(fassert.o)
 .comment       0x00000000       0x43 c:/program files/microchip/xc32/v1.30-tc9/bin/../lib/gcc/pic32mx/4.5.2/../../../../pic32mx/lib\libc.a(atoi.o)
 .comment       0x00000000       0x43 c:/program files/microchip/xc32/v1.30-tc9/bin/../lib/gcc/pic32mx/4.5.2/../../../../pic32mx/lib\libc.a(atol.o)
 .comment       0x00000000       0x43 c:/program files/microchip/xc32/v1.30-tc9/bin/../lib/gcc/pic32mx/4.5.2/../../../../pic32mx/lib\libc.a(calloc.o)
 .comment       0x000001d5       0x4e c:/program files/microchip/xc32/v1.30-tc9/bin/../lib/gcc/pic32mx/4.5.2/../../../../pic32mx/lib\libc.a(ctype.o)
                                 0x91 (size before relaxing)
 .comment       0x00000000       0x43 c:/program files/microchip/xc32/v1.30-tc9/bin/../lib/gcc/pic32mx/4.5.2/../../../../pic32mx/lib\libc.a(malloc.o)
 .comment       0x00000000       0x43 c:/program files/microchip/xc32/v1.30-tc9/bin/../lib/gcc/pic32mx/4.5.2/../../../../pic32mx/lib\libc.a(rand.o)
 .comment       0x00000000       0x43 c:/program files/microchip/xc32/v1.30-tc9/bin/../lib/gcc/pic32mx/4.5.2/../../../../pic32mx/lib\libc.a(signal.o)
 .comment       0x00000000       0x43 c:/program files/microchip/xc32/v1.30-tc9/bin/../lib/gcc/pic32mx/4.5.2/../../../../pic32mx/lib\libc.a(strchr.o)
 .comment       0x00000000       0x43 c:/program files/microchip/xc32/v1.30-tc9/bin/../lib/gcc/pic32mx/4.5.2/../../../../pic32mx/lib\libc.a(strncat.o)
 .comment       0x00000000       0x43 c:/program files/microchip/xc32/v1.30-tc9/bin/../lib/gcc/pic32mx/4.5.2/../../../../pic32mx/lib\libc.a(strncmp.o)
 .comment       0x00000000       0x43 c:/program files/microchip/xc32/v1.30-tc9/bin/../lib/gcc/pic32mx/4.5.2/../../../../pic32mx/lib\libc.a(strncpy.o)
 .comment       0x00000000       0x43 c:/program files/microchip/xc32/v1.30-tc9/bin/../lib/gcc/pic32mx/4.5.2/../../../../pic32mx/lib\libc.a(strstr.o)
 .comment       0x00000000       0x43 c:/program files/microchip/xc32/v1.30-tc9/bin/../lib/gcc/pic32mx/4.5.2/../../../../pic32mx/lib\libc.a(strtok.o)
 .comment       0x00000000       0x43 c:/program files/microchip/xc32/v1.30-tc9/bin/../lib/gcc/pic32mx/4.5.2/../../../../pic32mx/lib\libc.a(exit.o)
 .comment       0x00000000       0x43 c:/program files/microchip/xc32/v1.30-tc9/bin/../lib/gcc/pic32mx/4.5.2/../../../../pic32mx/lib\libc.a(fprintf_cdnopsuxX.eo)
 .comment       0x00000000       0x43 c:/program files/microchip/xc32/v1.30-tc9/bin/../lib/gcc/pic32mx/4.5.2/../../../../pic32mx/lib\libc.a(snprintf_cdnopsuxX.eo)
 .comment       0x00000000       0x43 c:/program files/microchip/xc32/v1.30-tc9/bin/../lib/gcc/pic32mx/4.5.2/../../../../pic32mx/lib\libc.a(sprintf_cdnopsuxX.eo)
 .comment       0x00000000       0x43 c:/program files/microchip/xc32/v1.30-tc9/bin/../lib/gcc/pic32mx/4.5.2/../../../../pic32mx/lib\libc.a(vsnprintf_cdnopsuxX.eo)
 .comment       0x00000000       0x43 c:/program files/microchip/xc32/v1.30-tc9/bin/../lib/gcc/pic32mx/4.5.2/../../../../pic32mx/lib\libc.a(vsnprintf.o)
 .comment       0x00000000       0x43 c:/program files/microchip/xc32/v1.30-tc9/bin/../lib/gcc/pic32mx/4.5.2/../../../../pic32mx/lib\libc.a(_iob.o)
 .comment       0x00000000       0x43 c:/program files/microchip/xc32/v1.30-tc9/bin/../lib/gcc/pic32mx/4.5.2/../../../../pic32mx/lib\libc.a(stdclean_simple.o)
 .comment       0x00000000       0x43 c:/program files/microchip/xc32/v1.30-tc9/bin/../lib/gcc/pic32mx/4.5.2/../../../../pic32mx/lib\libc.a(strcspn.o)
 .comment       0x00000000       0x43 c:/program files/microchip/xc32/v1.30-tc9/bin/../lib/gcc/pic32mx/4.5.2/../../../../pic32mx/lib\libc.a(strspn.o)
 .comment       0x00000000       0x43 c:/program files/microchip/xc32/v1.30-tc9/bin/../lib/gcc/pic32mx/4.5.2/../../../../pic32mx/lib\libc.a(doprnt_cdnopsuxX.eo)
 .comment       0x00000000       0x43 c:/program files/microchip/xc32/v1.30-tc9/bin/../lib/gcc/pic32mx/4.5.2/../../../../pic32mx/lib\libc.a(doprnt.o)
 .comment       0x00000000       0x43 c:/program files/microchip/xc32/v1.30-tc9/bin/../lib/gcc/pic32mx/4.5.2/../../../../pic32mx/lib\libc.a(_fputc_simple.o)
 .comment       0x00000000       0x43 c:/program files/microchip/xc32/v1.30-tc9/bin/../lib/gcc/pic32mx/4.5.2/../../../../pic32mx/lib\libc.a(powersf.o)
 .comment       0x00000000       0x43 c:/program files/microchip/xc32/v1.30-tc9/bin/../lib/gcc/pic32mx/4.5.2/../../../../pic32mx/lib\libc.a(_flsbuf_simple.o)
 .comment       0x00000223       0x4b c:/program files/microchip/xc32/v1.30-tc9/bin/../lib/gcc/pic32mx/4.5.2/../../../../pic32mx/lib\libpic32.a(sbrk.o)
                                 0x8e (size before relaxing)
 .comment       0x00000000       0x43 c:/program files/microchip/xc32/v1.30-tc9/bin/../lib/gcc/pic32mx/4.5.2/../../../../pic32mx/lib\libpic32.a(write.o)
 .comment       0x00000000       0x43 c:/program files/microchip/xc32/v1.30-tc9/bin/../lib/gcc/pic32mx/4.5.2/../../../../pic32mx/lib\libpic32.a(errno.o)
 .comment       0x00000000       0x43 c:/program files/microchip/xc32/v1.30-tc9/bin/../lib/gcc/pic32mx/4.5.2/../../../../pic32mx/lib\libpic32.a(_mon_putc.o)
 .comment       0x00000000       0x43 c:/program files/microchip/xc32/v1.30-tc9/bin/../lib/gcc/pic32mx/4.5.2/../../../../pic32mx/lib\libpic32.a(xc32_uart.o)
 .comment       0x0000026e       0x9e c:/program files/microchip/xc32/v1.30-tc9/bin/../lib/gcc/pic32mx/4.5.2/../../../../pic32mx/lib\libe.a(_floatdisf.o)
                                 0xe1 (size before relaxing)
 .comment       0x00000000       0x43 c:/program files/microchip/xc32/v1.30-tc9/bin/../lib/gcc/pic32mx/4.5.2\libgcc.a(_floatundisf.o)
 .comment       0x00000000       0x43 c:/program files/microchip/xc32/v1.30-tc9/bin/../lib/gcc/pic32mx/4.5.2\libgcc.a(_umoddi3.o)

.debug
 *(.debug)

.line
 *(.line)

.debug_srcinfo
 *(.debug_srcinfo)

.debug_sfnames
 *(.debug_sfnames)

.debug_aranges  0x00000000     0x3b98
 *(.debug_aranges)
 .debug_aranges
                0x00000000       0x38 build/pic32mx_eth_sk_int_dyn/production/_ext/1951764757/system_init.o
 .debug_aranges
                0x00000038       0xb0 build/pic32mx_eth_sk_int_dyn/production/_ext/1951764757/system_init_private.o
 .debug_aranges
                0x000000e8       0x38 build/pic32mx_eth_sk_int_dyn/production/_ext/1951764757/system_int.o
 .debug_aranges
                0x00000120       0x20 build/pic32mx_eth_sk_int_dyn/production/_ext/1951764757/system_tasks.o
 .debug_aranges
                0x00000140       0x28 build/pic32mx_eth_sk_int_dyn/production/_ext/1360937237/app.o
 .debug_aranges
                0x00000168       0x20 build/pic32mx_eth_sk_int_dyn/production/_ext/1951764757/bsp_sys_init.o
 .debug_aranges
                0x00000188       0x60 build/pic32mx_eth_sk_int_dyn/production/_ext/377798159/config_performance.o
 .debug_aranges
                0x000001e8       0xe8 build/pic32mx_eth_sk_int_dyn/production/_ext/1697634946/drv_ethmac.o
 .debug_aranges
                0x000002d0      0x3e8 build/pic32mx_eth_sk_int_dyn/production/_ext/1697634946/drv_ethmac_lib.o
 .debug_aranges
                0x000006b8      0x2b8 build/pic32mx_eth_sk_int_dyn/production/_ext/521481140/drv_ethphy.o
 .debug_aranges
                0x00000970       0x38 build/pic32mx_eth_sk_int_dyn/production/_ext/521481140/drv_extphy_dp83848.o
 .debug_aranges
                0x000009a8      0x198 build/pic32mx_eth_sk_int_dyn/production/_ext/184581597/drv_nvm.o
 .debug_aranges
                0x00000b40       0x58 build/pic32mx_eth_sk_int_dyn/production/_ext/184581597/drv_nvm_media.o
 .debug_aranges
                0x00000b98       0x50 build/pic32mx_eth_sk_int_dyn/production/_ext/2138650627/usart.o
 .debug_aranges
                0x00000be8      0x2d8 build/pic32mx_eth_sk_int_dyn/production/_ext/1104573755/plib_eth_legacy.o
 .debug_aranges
                0x00000ec0       0x28 build/pic32mx_eth_sk_int_dyn/production/_ext/198928529/plib_int_pic32.o
 .debug_aranges
                0x00000ee8      0x1f8 build/pic32mx_eth_sk_int_dyn/production/_ext/52938249/sys_clk_pic32.o
 .debug_aranges
                0x000010e0       0xf8 build/pic32mx_eth_sk_int_dyn/production/_ext/52938249/sys_clk.o
 .debug_aranges
                0x000011d8       0x90 build/pic32mx_eth_sk_int_dyn/production/_ext/1750042194/sys_fs.o
 .debug_aranges
                0x00001268       0x80 build/pic32mx_eth_sk_int_dyn/production/_ext/1750042194/sys_fs_media_manager.o
 .debug_aranges
                0x000012e8       0xe0 build/pic32mx_eth_sk_int_dyn/production/_ext/614935175/mpfs.o
 .debug_aranges
                0x000013c8      0x1c8 build/pic32mx_eth_sk_int_dyn/production/_ext/1964723635/ff.o
 .debug_aranges
                0x00001590       0x38 build/pic32mx_eth_sk_int_dyn/production/_ext/732200470/diskio.o
 .debug_aranges
                0x000015c8       0x98 build/pic32mx_eth_sk_int_dyn/production/_ext/1042686532/sys_int_pic32.o
 .debug_aranges
                0x00001660      0x330 build/pic32mx_eth_sk_int_dyn/production/_ext/826631961/sys_ports.o
 .debug_aranges
                0x00001990       0x38 build/pic32mx_eth_sk_int_dyn/production/_ext/693918571/sys_queue.o
 .debug_aranges
                0x000019c8       0x80 build/pic32mx_eth_sk_int_dyn/production/_ext/1886247299/big_int.o
 .debug_aranges
                0x00001a48       0x60 build/pic32mx_eth_sk_int_dyn/production/_ext/1886247299/hashes.o
 .debug_aranges
                0x00001aa8       0x58 build/pic32mx_eth_sk_int_dyn/production/_ext/1886247299/helpers.o
 .debug_aranges
                0x00001b00       0x28 build/pic32mx_eth_sk_int_dyn/production/_ext/1886247299/lfsr.o
 .debug_aranges
                0x00001b28       0x30 build/pic32mx_eth_sk_int_dyn/production/_ext/1886247299/sys_fs_wrapper.o
 .debug_aranges
                0x00001b58       0x78 build/pic32mx_eth_sk_int_dyn/production/_ext/1360937237/custom_snmp_app.o
 .debug_aranges
                0x00001bd0      0x178 build/pic32mx_eth_sk_int_dyn/production/_ext/1360937237/custom_http_app.o
 .debug_aranges
                0x00001d48      0x138 build/pic32mx_eth_sk_int_dyn/production/_ext/1164207549/arp.o
 .debug_aranges
                0x00001e80       0xd8 build/pic32mx_eth_sk_int_dyn/production/_ext/1164207549/dhcp.o
 .debug_aranges
                0x00001f58       0x30 build/pic32mx_eth_sk_int_dyn/production/_ext/1164207549/dhcps.o
 .debug_aranges
                0x00001f88       0x70 build/pic32mx_eth_sk_int_dyn/production/_ext/1164207549/dns.o
 .debug_aranges
                0x00001ff8       0x78 build/pic32mx_eth_sk_int_dyn/production/_ext/1164207549/ftp.o
 .debug_aranges
                0x00002070       0x28 build/pic32mx_eth_sk_int_dyn/production/_ext/1164207549/hash_fnv.o
 .debug_aranges
                0x00002098      0x148 build/pic32mx_eth_sk_int_dyn/production/_ext/1164207549/http.o
 .debug_aranges
                0x000021e0       0x58 build/pic32mx_eth_sk_int_dyn/production/_ext/1164207549/icmp.o
 .debug_aranges
                0x00002238      0x128 build/pic32mx_eth_sk_int_dyn/production/_ext/1164207549/iperf.o
 .debug_aranges
                0x00002360       0x88 build/pic32mx_eth_sk_int_dyn/production/_ext/1164207549/ipv4.o
 .debug_aranges
                0x000023e8       0x40 build/pic32mx_eth_sk_int_dyn/production/_ext/1164207549/nbns.o
 .debug_aranges
                0x00002428       0x58 build/pic32mx_eth_sk_int_dyn/production/_ext/1164207549/oahash.o
 .debug_aranges
                0x00002480       0x88 build/pic32mx_eth_sk_int_dyn/production/_ext/1164207549/smtp.o
 .debug_aranges
                0x00002508      0x190 build/pic32mx_eth_sk_int_dyn/production/_ext/1164207549/snmp.o
 .debug_aranges
                0x00002698      0x118 build/pic32mx_eth_sk_int_dyn/production/_ext/1164207549/snmpv3.o
 .debug_aranges
                0x000027b0       0xc0 build/pic32mx_eth_sk_int_dyn/production/_ext/1164207549/snmpv3_usm.o
 .debug_aranges
                0x00002870       0x68 build/pic32mx_eth_sk_int_dyn/production/_ext/1164207549/sntp.o
 .debug_aranges
                0x000028d8      0x268 build/pic32mx_eth_sk_int_dyn/production/_ext/1164207549/tcp.o
 .debug_aranges
                0x00002b40       0x50 build/pic32mx_eth_sk_int_dyn/production/_ext/1164207549/tcpip_announce.o
 .debug_aranges
                0x00002b90       0xa0 build/pic32mx_eth_sk_int_dyn/production/_ext/1164207549/tcpip_commands.o
 .debug_aranges
                0x00002c30       0x90 build/pic32mx_eth_sk_int_dyn/production/_ext/1164207549/tcpip_heap_alloc.o
 .debug_aranges
                0x00002cc0       0x20 build/pic32mx_eth_sk_int_dyn/production/_ext/1164207549/tcpip_helper_c32.o
 .debug_aranges
                0x00002ce0      0x100 build/pic32mx_eth_sk_int_dyn/production/_ext/1164207549/tcpip_helpers.o
 .debug_aranges
                0x00002de0       0x50 build/pic32mx_eth_sk_int_dyn/production/_ext/1164207549/tcpip_mac_object.o
 .debug_aranges
                0x00002e30      0x2a8 build/pic32mx_eth_sk_int_dyn/production/_ext/1164207549/tcpip_manager.o
 .debug_aranges
                0x000030d8       0x30 build/pic32mx_eth_sk_int_dyn/production/_ext/1164207549/tcpip_notify.o
 .debug_aranges
                0x00003108       0x70 build/pic32mx_eth_sk_int_dyn/production/_ext/1164207549/tcpip_packet.o
 .debug_aranges
                0x00003178       0x88 build/pic32mx_eth_sk_int_dyn/production/_ext/1164207549/telnet.o
 .debug_aranges
                0x00003200      0x1b8 build/pic32mx_eth_sk_int_dyn/production/_ext/1164207549/udp.o
 .debug_aranges
                0x000033b8       0x30 build/pic32mx_eth_sk_int_dyn/production/_ext/1164207549/zero_conf_link_local.o
 .debug_aranges
                0x000033e8       0xc0 build/pic32mx_eth_sk_int_dyn/production/_ext/1418760511/system_command.o
 .debug_aranges
                0x000034a8       0xa0 build/pic32mx_eth_sk_int_dyn/production/_ext/1418760511/system_debug.o
 .debug_aranges
                0x00003548       0x40 build/pic32mx_eth_sk_int_dyn/production/_ext/1418760511/system_random.o
 .debug_aranges
                0x00003588       0x58 build/pic32mx_eth_sk_int_dyn/production/_ext/1418760511/system_userio.o
 .debug_aranges
                0x000035e0       0x20 build/pic32mx_eth_sk_int_dyn/production/_ext/1360937237/main.o
 .debug_aranges
                0x00003600       0x20 ..\..\..\..\..\framework\tcpip\src\crypto\aes_pic32mx.a(AES_CFB.o)
 .debug_aranges
                0x00003620       0x20 ..\..\..\..\..\framework\tcpip\src\crypto\aes_pic32mx.a(AES_ECB_PIC32.o)
 .debug_aranges
                0x00003640       0x20 c:/program files/microchip/xc32/v1.30-tc9/bin/../lib/gcc/pic32mx/4.5.2/../../../../pic32mx/lib\libmchp_peripheral_32MX795F512L.a(port_set_pins_digital_in_lib.o)
 .debug_aranges
                0x00003660       0x20 c:/program files/microchip/xc32/v1.30-tc9/bin/../lib/gcc/pic32mx/4.5.2/../../../../pic32mx/lib\libmchp_peripheral_32MX795F512L.a(port_set_pins_digital_out_lib.o)
 .debug_aranges
                0x00003680       0x20 c:/program files/microchip/xc32/v1.30-tc9/bin/../lib/gcc/pic32mx/4.5.2\libgcc.a(_udivdi3.o)
 .debug_aranges
                0x000036a0       0x20 c:/program files/microchip/xc32/v1.30-tc9/bin/../lib/gcc/pic32mx/4.5.2\libgcc.a(floatunsisf.o)
 .debug_aranges
                0x000036c0       0x20 c:/program files/microchip/xc32/v1.30-tc9/bin/../lib/gcc/pic32mx/4.5.2/../../../../pic32mx/lib\libpic32.a(default-bootstrap-exception-handler.o)
 .debug_aranges
                0x000036e0       0x20 c:/program files/microchip/xc32/v1.30-tc9/bin/../lib/gcc/pic32mx/4.5.2/../../../../pic32mx/lib\libpic32.a(default-on-reset.o)
 .debug_aranges
                0x00003700       0x20 c:/program files/microchip/xc32/v1.30-tc9/bin/../lib/gcc/pic32mx/4.5.2/../../../../pic32mx/lib\libpic32.a(default-on-bootstrap.o)
 .debug_aranges
                0x00003720       0x20 c:/program files/microchip/xc32/v1.30-tc9/bin/../lib/gcc/pic32mx/4.5.2/../../../../pic32mx/lib\libpic32.a(defaultinterrupt.o)
 .debug_aranges
                0x00003740       0x20 c:/program files/microchip/xc32/v1.30-tc9/bin/../lib/gcc/pic32mx/4.5.2/../../../../pic32mx/lib\libc.a(fassert.o)
 .debug_aranges
                0x00003760       0x20 c:/program files/microchip/xc32/v1.30-tc9/bin/../lib/gcc/pic32mx/4.5.2/../../../../pic32mx/lib\libc.a(atoi.o)
 .debug_aranges
                0x00003780       0x20 c:/program files/microchip/xc32/v1.30-tc9/bin/../lib/gcc/pic32mx/4.5.2/../../../../pic32mx/lib\libc.a(atol.o)
 .debug_aranges
                0x000037a0       0x20 c:/program files/microchip/xc32/v1.30-tc9/bin/../lib/gcc/pic32mx/4.5.2/../../../../pic32mx/lib\libc.a(calloc.o)
 .debug_aranges
                0x000037c0       0x30 c:/program files/microchip/xc32/v1.30-tc9/bin/../lib/gcc/pic32mx/4.5.2/../../../../pic32mx/lib\libc.a(malloc.o)
 .debug_aranges
                0x000037f0       0x28 c:/program files/microchip/xc32/v1.30-tc9/bin/../lib/gcc/pic32mx/4.5.2/../../../../pic32mx/lib\libc.a(rand.o)
 .debug_aranges
                0x00003818       0x30 c:/program files/microchip/xc32/v1.30-tc9/bin/../lib/gcc/pic32mx/4.5.2/../../../../pic32mx/lib\libc.a(signal.o)
 .debug_aranges
                0x00003848       0x20 c:/program files/microchip/xc32/v1.30-tc9/bin/../lib/gcc/pic32mx/4.5.2/../../../../pic32mx/lib\libc.a(strchr.o)
 .debug_aranges
                0x00003868       0x20 c:/program files/microchip/xc32/v1.30-tc9/bin/../lib/gcc/pic32mx/4.5.2/../../../../pic32mx/lib\libc.a(strncat.o)
 .debug_aranges
                0x00003888       0x20 c:/program files/microchip/xc32/v1.30-tc9/bin/../lib/gcc/pic32mx/4.5.2/../../../../pic32mx/lib\libc.a(strncmp.o)
 .debug_aranges
                0x000038a8       0x20 c:/program files/microchip/xc32/v1.30-tc9/bin/../lib/gcc/pic32mx/4.5.2/../../../../pic32mx/lib\libc.a(strncpy.o)
 .debug_aranges
                0x000038c8       0x20 c:/program files/microchip/xc32/v1.30-tc9/bin/../lib/gcc/pic32mx/4.5.2/../../../../pic32mx/lib\libc.a(strstr.o)
 .debug_aranges
                0x000038e8       0x20 c:/program files/microchip/xc32/v1.30-tc9/bin/../lib/gcc/pic32mx/4.5.2/../../../../pic32mx/lib\libc.a(strtok.o)
 .debug_aranges
                0x00003908       0x20 c:/program files/microchip/xc32/v1.30-tc9/bin/../lib/gcc/pic32mx/4.5.2/../../../../pic32mx/lib\libc.a(exit.o)
 .debug_aranges
                0x00003928       0x20 c:/program files/microchip/xc32/v1.30-tc9/bin/../lib/gcc/pic32mx/4.5.2/../../../../pic32mx/lib\libc.a(fprintf_cdnopsuxX.eo)
 .debug_aranges
                0x00003948       0x20 c:/program files/microchip/xc32/v1.30-tc9/bin/../lib/gcc/pic32mx/4.5.2/../../../../pic32mx/lib\libc.a(snprintf_cdnopsuxX.eo)
 .debug_aranges
                0x00003968       0x20 c:/program files/microchip/xc32/v1.30-tc9/bin/../lib/gcc/pic32mx/4.5.2/../../../../pic32mx/lib\libc.a(sprintf_cdnopsuxX.eo)
 .debug_aranges
                0x00003988       0x20 c:/program files/microchip/xc32/v1.30-tc9/bin/../lib/gcc/pic32mx/4.5.2/../../../../pic32mx/lib\libc.a(vsnprintf_cdnopsuxX.eo)
 .debug_aranges
                0x000039a8       0x20 c:/program files/microchip/xc32/v1.30-tc9/bin/../lib/gcc/pic32mx/4.5.2/../../../../pic32mx/lib\libc.a(vsnprintf.o)
 .debug_aranges
                0x000039c8       0x20 c:/program files/microchip/xc32/v1.30-tc9/bin/../lib/gcc/pic32mx/4.5.2/../../../../pic32mx/lib\libc.a(stdclean_simple.o)
 .debug_aranges
                0x000039e8       0x20 c:/program files/microchip/xc32/v1.30-tc9/bin/../lib/gcc/pic32mx/4.5.2/../../../../pic32mx/lib\libc.a(strcspn.o)
 .debug_aranges
                0x00003a08       0x20 c:/program files/microchip/xc32/v1.30-tc9/bin/../lib/gcc/pic32mx/4.5.2/../../../../pic32mx/lib\libc.a(strspn.o)
 .debug_aranges
                0x00003a28       0x20 c:/program files/microchip/xc32/v1.30-tc9/bin/../lib/gcc/pic32mx/4.5.2/../../../../pic32mx/lib\libc.a(doprnt_cdnopsuxX.eo)
 .debug_aranges
                0x00003a48       0x30 c:/program files/microchip/xc32/v1.30-tc9/bin/../lib/gcc/pic32mx/4.5.2/../../../../pic32mx/lib\libc.a(doprnt.o)
 .debug_aranges
                0x00003a78       0x20 c:/program files/microchip/xc32/v1.30-tc9/bin/../lib/gcc/pic32mx/4.5.2/../../../../pic32mx/lib\libc.a(_fputc_simple.o)
 .debug_aranges
                0x00003a98       0x20 c:/program files/microchip/xc32/v1.30-tc9/bin/../lib/gcc/pic32mx/4.5.2/../../../../pic32mx/lib\libc.a(_flsbuf_simple.o)
 .debug_aranges
                0x00003ab8       0x40 c:/program files/microchip/xc32/v1.30-tc9/bin/../lib/gcc/pic32mx/4.5.2/../../../../pic32mx/lib\libpic32.a(sbrk.o)
 .debug_aranges
                0x00003af8       0x20 c:/program files/microchip/xc32/v1.30-tc9/bin/../lib/gcc/pic32mx/4.5.2/../../../../pic32mx/lib\libpic32.a(write.o)
 .debug_aranges
                0x00003b18       0x20 c:/program files/microchip/xc32/v1.30-tc9/bin/../lib/gcc/pic32mx/4.5.2/../../../../pic32mx/lib\libpic32.a(_mon_putc.o)
 .debug_aranges
                0x00003b38       0x20 c:/program files/microchip/xc32/v1.30-tc9/bin/../lib/gcc/pic32mx/4.5.2/../../../../pic32mx/lib\libe.a(_floatdisf.o)
 .debug_aranges
                0x00003b58       0x20 c:/program files/microchip/xc32/v1.30-tc9/bin/../lib/gcc/pic32mx/4.5.2\libgcc.a(_floatundisf.o)
 .debug_aranges
                0x00003b78       0x20 c:/program files/microchip/xc32/v1.30-tc9/bin/../lib/gcc/pic32mx/4.5.2\libgcc.a(_umoddi3.o)

.debug_pubnames
                0x00000000     0x6249
 *(.debug_pubnames)
 .debug_pubnames
                0x00000000      0x17d build/pic32mx_eth_sk_int_dyn/production/_ext/1951764757/system_init.o
 .debug_pubnames
                0x0000017d       0xf5 build/pic32mx_eth_sk_int_dyn/production/_ext/1951764757/system_init_private.o
 .debug_pubnames
                0x00000272       0x2c build/pic32mx_eth_sk_int_dyn/production/_ext/1951764757/system_int.o
 .debug_pubnames
                0x0000029e       0x20 build/pic32mx_eth_sk_int_dyn/production/_ext/1951764757/system_tasks.o
 .debug_pubnames
                0x000002be       0x71 build/pic32mx_eth_sk_int_dyn/production/_ext/1360937237/app.o
 .debug_pubnames
                0x0000032f       0x25 build/pic32mx_eth_sk_int_dyn/production/_ext/1951764757/bsp_sys_init.o
 .debug_pubnames
                0x00000354       0xd4 build/pic32mx_eth_sk_int_dyn/production/_ext/377798159/config_performance.o
 .debug_pubnames
                0x00000428      0x18b build/pic32mx_eth_sk_int_dyn/production/_ext/1697634946/drv_ethmac.o
 .debug_pubnames
                0x000005b3      0x213 build/pic32mx_eth_sk_int_dyn/production/_ext/1697634946/drv_ethmac_lib.o
 .debug_pubnames
                0x000007c6      0x39f build/pic32mx_eth_sk_int_dyn/production/_ext/521481140/drv_ethphy.o
 .debug_pubnames
                0x00000b65       0x93 build/pic32mx_eth_sk_int_dyn/production/_ext/521481140/drv_extphy_dp83848.o
 .debug_pubnames
                0x00000bf8      0x176 build/pic32mx_eth_sk_int_dyn/production/_ext/184581597/drv_nvm.o
 .debug_pubnames
                0x00000d6e      0x126 build/pic32mx_eth_sk_int_dyn/production/_ext/184581597/drv_nvm_media.o
 .debug_pubnames
                0x00000e94       0x94 build/pic32mx_eth_sk_int_dyn/production/_ext/2138650627/usart.o
 .debug_pubnames
                0x00000f28      0x1d9 build/pic32mx_eth_sk_int_dyn/production/_ext/1104573755/plib_eth_legacy.o
 .debug_pubnames
                0x00001101       0x66 build/pic32mx_eth_sk_int_dyn/production/_ext/198928529/plib_int_pic32.o
 .debug_pubnames
                0x00001167      0x25f build/pic32mx_eth_sk_int_dyn/production/_ext/52938249/sys_clk_pic32.o
 .debug_pubnames
                0x000013c6       0xbf build/pic32mx_eth_sk_int_dyn/production/_ext/52938249/sys_clk.o
 .debug_pubnames
                0x00001485      0x182 build/pic32mx_eth_sk_int_dyn/production/_ext/1750042194/sys_fs.o
 .debug_pubnames
                0x00001607      0x21a build/pic32mx_eth_sk_int_dyn/production/_ext/1750042194/sys_fs_media_manager.o
 .debug_pubnames
                0x00001821      0x1c5 build/pic32mx_eth_sk_int_dyn/production/_ext/614935175/mpfs.o
 .debug_pubnames
                0x000019e6      0x16d build/pic32mx_eth_sk_int_dyn/production/_ext/1964723635/ff.o
 .debug_pubnames
                0x00001b53       0x55 build/pic32mx_eth_sk_int_dyn/production/_ext/732200470/diskio.o
 .debug_pubnames
                0x00001ba8       0x57 build/pic32mx_eth_sk_int_dyn/production/_ext/1042686532/sys_int_pic32.o
 .debug_pubnames
                0x00001bff      0x376 build/pic32mx_eth_sk_int_dyn/production/_ext/826631961/sys_ports.o
 .debug_pubnames
                0x00001f75       0x5d build/pic32mx_eth_sk_int_dyn/production/_ext/693918571/sys_queue.o
 .debug_pubnames
                0x00001fd2       0xeb build/pic32mx_eth_sk_int_dyn/production/_ext/1886247299/big_int.o
 .debug_pubnames
                0x000020bd       0x97 build/pic32mx_eth_sk_int_dyn/production/_ext/1886247299/hashes.o
 .debug_pubnames
                0x00002154       0x81 build/pic32mx_eth_sk_int_dyn/production/_ext/1886247299/helpers.o
 .debug_pubnames
                0x000021d5       0x30 build/pic32mx_eth_sk_int_dyn/production/_ext/1886247299/lfsr.o
 .debug_pubnames
                0x00002205       0x65 build/pic32mx_eth_sk_int_dyn/production/_ext/1886247299/sys_fs_wrapper.o
 .debug_pubnames
                0x0000226a       0x44 build/pic32mx_eth_sk_int_dyn/production/_ext/1360937237/mpfs_img2.o
 .debug_pubnames
                0x000022ae       0xda build/pic32mx_eth_sk_int_dyn/production/_ext/1360937237/custom_snmp_app.o
 .debug_pubnames
                0x00002388      0x3e3 build/pic32mx_eth_sk_int_dyn/production/_ext/1360937237/custom_http_app.o
 .debug_pubnames
                0x0000276b      0x23a build/pic32mx_eth_sk_int_dyn/production/_ext/1164207549/arp.o
 .debug_pubnames
                0x000029a5      0x187 build/pic32mx_eth_sk_int_dyn/production/_ext/1164207549/dhcp.o
 .debug_pubnames
                0x00002b2c       0x5b build/pic32mx_eth_sk_int_dyn/production/_ext/1164207549/dhcps.o
 .debug_pubnames
                0x00002b87       0xca build/pic32mx_eth_sk_int_dyn/production/_ext/1164207549/dns.o
 .debug_pubnames
                0x00002c51       0x6a build/pic32mx_eth_sk_int_dyn/production/_ext/1164207549/ftp.o
 .debug_pubnames
                0x00002cbb       0x33 build/pic32mx_eth_sk_int_dyn/production/_ext/1164207549/hash_fnv.o
 .debug_pubnames
                0x00002cee      0x415 build/pic32mx_eth_sk_int_dyn/production/_ext/1164207549/http.o
 .debug_pubnames
                0x00003103       0xa1 build/pic32mx_eth_sk_int_dyn/production/_ext/1164207549/icmp.o
 .debug_pubnames
                0x000031a4       0x81 build/pic32mx_eth_sk_int_dyn/production/_ext/1164207549/iperf.o
 .debug_pubnames
                0x00003225       0xf0 build/pic32mx_eth_sk_int_dyn/production/_ext/1164207549/ipv4.o
 .debug_pubnames
                0x00003315       0x5c build/pic32mx_eth_sk_int_dyn/production/_ext/1164207549/nbns.o
 .debug_pubnames
                0x00003371       0xc9 build/pic32mx_eth_sk_int_dyn/production/_ext/1164207549/oahash.o
 .debug_pubnames
                0x0000343a      0x15a build/pic32mx_eth_sk_int_dyn/production/_ext/1164207549/smtp.o
 .debug_pubnames
                0x00003594      0x3d4 build/pic32mx_eth_sk_int_dyn/production/_ext/1164207549/snmp.o
 .debug_pubnames
                0x00003968      0x324 build/pic32mx_eth_sk_int_dyn/production/_ext/1164207549/snmpv3.o
 .debug_pubnames
                0x00003c8c      0x20c build/pic32mx_eth_sk_int_dyn/production/_ext/1164207549/snmpv3_usm.o
 .debug_pubnames
                0x00003e98       0xf7 build/pic32mx_eth_sk_int_dyn/production/_ext/1164207549/sntp.o
 .debug_pubnames
                0x00003f8f      0x3d5 build/pic32mx_eth_sk_int_dyn/production/_ext/1164207549/tcp.o
 .debug_pubnames
                0x00004364       0x93 build/pic32mx_eth_sk_int_dyn/production/_ext/1164207549/tcpip_announce.o
 .debug_pubnames
                0x000043f7       0x50 build/pic32mx_eth_sk_int_dyn/production/_ext/1164207549/tcpip_commands.o
 .debug_pubnames
                0x00004447      0x18c build/pic32mx_eth_sk_int_dyn/production/_ext/1164207549/tcpip_heap_alloc.o
 .debug_pubnames
                0x000045d3      0x408 build/pic32mx_eth_sk_int_dyn/production/_ext/1164207549/tcpip_helpers.o
 .debug_pubnames
                0x000049db       0xc2 build/pic32mx_eth_sk_int_dyn/production/_ext/1164207549/tcpip_mac_object.o
 .debug_pubnames
                0x00004a9d      0x831 build/pic32mx_eth_sk_int_dyn/production/_ext/1164207549/tcpip_manager.o
 .debug_pubnames
                0x000052ce       0x6c build/pic32mx_eth_sk_int_dyn/production/_ext/1164207549/tcpip_notify.o
 .debug_pubnames
                0x0000533a      0x13f build/pic32mx_eth_sk_int_dyn/production/_ext/1164207549/tcpip_packet.o
 .debug_pubnames
                0x00005479       0x62 build/pic32mx_eth_sk_int_dyn/production/_ext/1164207549/telnet.o
 .debug_pubnames
                0x000054db      0x341 build/pic32mx_eth_sk_int_dyn/production/_ext/1164207549/udp.o
 .debug_pubnames
                0x0000581c       0x58 build/pic32mx_eth_sk_int_dyn/production/_ext/1164207549/zero_conf_link_local.o
 .debug_pubnames
                0x00005874       0xab build/pic32mx_eth_sk_int_dyn/production/_ext/1418760511/system_command.o
 .debug_pubnames
                0x0000591f      0x168 build/pic32mx_eth_sk_int_dyn/production/_ext/1418760511/system_debug.o
 .debug_pubnames
                0x00005a87       0x83 build/pic32mx_eth_sk_int_dyn/production/_ext/1418760511/system_random.o
 .debug_pubnames
                0x00005b0a       0xc8 build/pic32mx_eth_sk_int_dyn/production/_ext/1418760511/system_userio.o
 .debug_pubnames
                0x00005bd2       0x1b build/pic32mx_eth_sk_int_dyn/production/_ext/1360937237/main.o
 .debug_pubnames
                0x00005bed       0x36 ..\..\..\..\..\framework\tcpip\src\crypto\aes_pic32mx.a(AES_CFB.o)
 .debug_pubnames
                0x00005c23       0x84 ..\..\..\..\..\framework\tcpip\src\crypto\aes_pic32mx.a(AES_ECB_PIC32.o)
 .debug_pubnames
                0x00005ca7       0x2b c:/program files/microchip/xc32/v1.30-tc9/bin/../lib/gcc/pic32mx/4.5.2/../../../../pic32mx/lib\libmchp_peripheral_32MX795F512L.a(port_set_pins_digital_in_lib.o)
 .debug_pubnames
                0x00005cd2       0x2c c:/program files/microchip/xc32/v1.30-tc9/bin/../lib/gcc/pic32mx/4.5.2/../../../../pic32mx/lib\libmchp_peripheral_32MX795F512L.a(port_set_pins_digital_out_lib.o)
 .debug_pubnames
                0x00005cfe       0x20 c:/program files/microchip/xc32/v1.30-tc9/bin/../lib/gcc/pic32mx/4.5.2\libgcc.a(_udivdi3.o)
 .debug_pubnames
                0x00005d1e       0x24 c:/program files/microchip/xc32/v1.30-tc9/bin/../lib/gcc/pic32mx/4.5.2\libgcc.a(floatunsisf.o)
 .debug_pubnames
                0x00005d42       0x33 c:/program files/microchip/xc32/v1.30-tc9/bin/../lib/gcc/pic32mx/4.5.2/../../../../pic32mx/lib\libpic32.a(default-bootstrap-exception-handler.o)
 .debug_pubnames
                0x00005d75       0x20 c:/program files/microchip/xc32/v1.30-tc9/bin/../lib/gcc/pic32mx/4.5.2/../../../../pic32mx/lib\libpic32.a(default-on-reset.o)
 .debug_pubnames
                0x00005d95       0x24 c:/program files/microchip/xc32/v1.30-tc9/bin/../lib/gcc/pic32mx/4.5.2/../../../../pic32mx/lib\libpic32.a(default-on-bootstrap.o)
 .debug_pubnames
                0x00005db9       0x28 c:/program files/microchip/xc32/v1.30-tc9/bin/../lib/gcc/pic32mx/4.5.2/../../../../pic32mx/lib\libpic32.a(defaultinterrupt.o)
 .debug_pubnames
                0x00005de1       0x1f c:/program files/microchip/xc32/v1.30-tc9/bin/../lib/gcc/pic32mx/4.5.2/../../../../pic32mx/lib\libc.a(fassert.o)
 .debug_pubnames
                0x00005e00       0x1b c:/program files/microchip/xc32/v1.30-tc9/bin/../lib/gcc/pic32mx/4.5.2/../../../../pic32mx/lib\libc.a(atoi.o)
 .debug_pubnames
                0x00005e1b       0x1b c:/program files/microchip/xc32/v1.30-tc9/bin/../lib/gcc/pic32mx/4.5.2/../../../../pic32mx/lib\libc.a(atol.o)
 .debug_pubnames
                0x00005e36       0x1d c:/program files/microchip/xc32/v1.30-tc9/bin/../lib/gcc/pic32mx/4.5.2/../../../../pic32mx/lib\libc.a(calloc.o)
 .debug_pubnames
                0x00005e53       0x32 c:/program files/microchip/xc32/v1.30-tc9/bin/../lib/gcc/pic32mx/4.5.2/../../../../pic32mx/lib\libc.a(malloc.o)
 .debug_pubnames
                0x00005e85       0x25 c:/program files/microchip/xc32/v1.30-tc9/bin/../lib/gcc/pic32mx/4.5.2/../../../../pic32mx/lib\libc.a(rand.o)
 .debug_pubnames
                0x00005eaa       0x31 c:/program files/microchip/xc32/v1.30-tc9/bin/../lib/gcc/pic32mx/4.5.2/../../../../pic32mx/lib\libc.a(signal.o)
 .debug_pubnames
                0x00005edb       0x1d c:/program files/microchip/xc32/v1.30-tc9/bin/../lib/gcc/pic32mx/4.5.2/../../../../pic32mx/lib\libc.a(strchr.o)
 .debug_pubnames
                0x00005ef8       0x1e c:/program files/microchip/xc32/v1.30-tc9/bin/../lib/gcc/pic32mx/4.5.2/../../../../pic32mx/lib\libc.a(strncat.o)
 .debug_pubnames
                0x00005f16       0x1e c:/program files/microchip/xc32/v1.30-tc9/bin/../lib/gcc/pic32mx/4.5.2/../../../../pic32mx/lib\libc.a(strncmp.o)
 .debug_pubnames
                0x00005f34       0x1e c:/program files/microchip/xc32/v1.30-tc9/bin/../lib/gcc/pic32mx/4.5.2/../../../../pic32mx/lib\libc.a(strncpy.o)
 .debug_pubnames
                0x00005f52       0x1d c:/program files/microchip/xc32/v1.30-tc9/bin/../lib/gcc/pic32mx/4.5.2/../../../../pic32mx/lib\libc.a(strstr.o)
 .debug_pubnames
                0x00005f6f       0x1d c:/program files/microchip/xc32/v1.30-tc9/bin/../lib/gcc/pic32mx/4.5.2/../../../../pic32mx/lib\libc.a(strtok.o)
 .debug_pubnames
                0x00005f8c       0x1b c:/program files/microchip/xc32/v1.30-tc9/bin/../lib/gcc/pic32mx/4.5.2/../../../../pic32mx/lib\libc.a(exit.o)
 .debug_pubnames
                0x00005fa7       0x29 c:/program files/microchip/xc32/v1.30-tc9/bin/../lib/gcc/pic32mx/4.5.2/../../../../pic32mx/lib\libc.a(fprintf_cdnopsuxX.eo)
 .debug_pubnames
                0x00005fd0       0x2a c:/program files/microchip/xc32/v1.30-tc9/bin/../lib/gcc/pic32mx/4.5.2/../../../../pic32mx/lib\libc.a(snprintf_cdnopsuxX.eo)
 .debug_pubnames
                0x00005ffa       0x29 c:/program files/microchip/xc32/v1.30-tc9/bin/../lib/gcc/pic32mx/4.5.2/../../../../pic32mx/lib\libc.a(sprintf_cdnopsuxX.eo)
 .debug_pubnames
                0x00006023       0x2b c:/program files/microchip/xc32/v1.30-tc9/bin/../lib/gcc/pic32mx/4.5.2/../../../../pic32mx/lib\libc.a(vsnprintf_cdnopsuxX.eo)
 .debug_pubnames
                0x0000604e       0x20 c:/program files/microchip/xc32/v1.30-tc9/bin/../lib/gcc/pic32mx/4.5.2/../../../../pic32mx/lib\libc.a(vsnprintf.o)
 .debug_pubnames
                0x0000606e       0x1f c:/program files/microchip/xc32/v1.30-tc9/bin/../lib/gcc/pic32mx/4.5.2/../../../../pic32mx/lib\libc.a(stdclean_simple.o)
 .debug_pubnames
                0x0000608d       0x1e c:/program files/microchip/xc32/v1.30-tc9/bin/../lib/gcc/pic32mx/4.5.2/../../../../pic32mx/lib\libc.a(strcspn.o)
 .debug_pubnames
                0x000060ab       0x1d c:/program files/microchip/xc32/v1.30-tc9/bin/../lib/gcc/pic32mx/4.5.2/../../../../pic32mx/lib\libc.a(strspn.o)
 .debug_pubnames
                0x000060c8       0x2a c:/program files/microchip/xc32/v1.30-tc9/bin/../lib/gcc/pic32mx/4.5.2/../../../../pic32mx/lib\libc.a(doprnt_cdnopsuxX.eo)
 .debug_pubnames
                0x000060f2       0x1f c:/program files/microchip/xc32/v1.30-tc9/bin/../lib/gcc/pic32mx/4.5.2/../../../../pic32mx/lib\libc.a(doprnt.o)
 .debug_pubnames
                0x00006111       0x1c c:/program files/microchip/xc32/v1.30-tc9/bin/../lib/gcc/pic32mx/4.5.2/../../../../pic32mx/lib\libc.a(_fputc_simple.o)
 .debug_pubnames
                0x0000612d       0x1e c:/program files/microchip/xc32/v1.30-tc9/bin/../lib/gcc/pic32mx/4.5.2/../../../../pic32mx/lib\libc.a(_flsbuf_simple.o)
 .debug_pubnames
                0x0000614b       0x5c c:/program files/microchip/xc32/v1.30-tc9/bin/../lib/gcc/pic32mx/4.5.2/../../../../pic32mx/lib\libpic32.a(sbrk.o)
 .debug_pubnames
                0x000061a7       0x1c c:/program files/microchip/xc32/v1.30-tc9/bin/../lib/gcc/pic32mx/4.5.2/../../../../pic32mx/lib\libpic32.a(write.o)
 .debug_pubnames
                0x000061c3       0x20 c:/program files/microchip/xc32/v1.30-tc9/bin/../lib/gcc/pic32mx/4.5.2/../../../../pic32mx/lib\libpic32.a(_mon_putc.o)
 .debug_pubnames
                0x000061e3       0x22 c:/program files/microchip/xc32/v1.30-tc9/bin/../lib/gcc/pic32mx/4.5.2/../../../../pic32mx/lib\libe.a(_floatdisf.o)
 .debug_pubnames
                0x00006205       0x24 c:/program files/microchip/xc32/v1.30-tc9/bin/../lib/gcc/pic32mx/4.5.2\libgcc.a(_floatundisf.o)
 .debug_pubnames
                0x00006229       0x20 c:/program files/microchip/xc32/v1.30-tc9/bin/../lib/gcc/pic32mx/4.5.2\libgcc.a(_umoddi3.o)

.debug_info     0x00000000    0x7c8d8
 *(.debug_info .gnu.linkonce.wi.*)
 .debug_info    0x00000000     0x2ba8 build/pic32mx_eth_sk_int_dyn/production/_ext/1951764757/system_init.o
 .debug_info    0x00002ba8     0x1ea9 build/pic32mx_eth_sk_int_dyn/production/_ext/1951764757/system_init_private.o
 .debug_info    0x00004a51     0x123d build/pic32mx_eth_sk_int_dyn/production/_ext/1951764757/system_int.o
 .debug_info    0x00005c8e      0x70c build/pic32mx_eth_sk_int_dyn/production/_ext/1951764757/system_tasks.o
 .debug_info    0x0000639a      0xfb1 build/pic32mx_eth_sk_int_dyn/production/_ext/1360937237/app.o
 .debug_info    0x0000734b      0x490 build/pic32mx_eth_sk_int_dyn/production/_ext/1951764757/bsp_sys_init.o
 .debug_info    0x000077db      0x864 build/pic32mx_eth_sk_int_dyn/production/_ext/377798159/config_performance.o
 .debug_info    0x0000803f     0x586a build/pic32mx_eth_sk_int_dyn/production/_ext/1697634946/drv_ethmac.o
 .debug_info    0x0000d8a9     0x6325 build/pic32mx_eth_sk_int_dyn/production/_ext/1697634946/drv_ethmac_lib.o
 .debug_info    0x00013bce     0x3a2f build/pic32mx_eth_sk_int_dyn/production/_ext/521481140/drv_ethphy.o
 .debug_info    0x000175fd      0xea7 build/pic32mx_eth_sk_int_dyn/production/_ext/521481140/drv_extphy_dp83848.o
 .debug_info    0x000184a4     0x27c4 build/pic32mx_eth_sk_int_dyn/production/_ext/184581597/drv_nvm.o
 .debug_info    0x0001ac68     0x105b build/pic32mx_eth_sk_int_dyn/production/_ext/184581597/drv_nvm_media.o
 .debug_info    0x0001bcc3      0x1d9 build/pic32mx_eth_sk_int_dyn/production/_ext/2138650627/db_appio.o
 .debug_info    0x0001be9c      0xd64 build/pic32mx_eth_sk_int_dyn/production/_ext/2138650627/usart.o
 .debug_info    0x0001cc00     0x2b78 build/pic32mx_eth_sk_int_dyn/production/_ext/1104573755/plib_eth_legacy.o
 .debug_info    0x0001f778      0x329 build/pic32mx_eth_sk_int_dyn/production/_ext/198928529/plib_int_pic32.o
 .debug_info    0x0001faa1     0x1e73 build/pic32mx_eth_sk_int_dyn/production/_ext/52938249/sys_clk_pic32.o
 .debug_info    0x00021914     0x11ac build/pic32mx_eth_sk_int_dyn/production/_ext/52938249/sys_clk.o
 .debug_info    0x00022ac0     0x1354 build/pic32mx_eth_sk_int_dyn/production/_ext/1750042194/sys_fs.o
 .debug_info    0x00023e14     0x1690 build/pic32mx_eth_sk_int_dyn/production/_ext/1750042194/sys_fs_media_manager.o
 .debug_info    0x000254a4      0xfff build/pic32mx_eth_sk_int_dyn/production/_ext/614935175/mpfs.o
 .debug_info    0x000264a3     0x2509 build/pic32mx_eth_sk_int_dyn/production/_ext/1964723635/ff.o
 .debug_info    0x000289ac      0x414 build/pic32mx_eth_sk_int_dyn/production/_ext/732200470/diskio.o
 .debug_info    0x00028dc0     0x10f2 build/pic32mx_eth_sk_int_dyn/production/_ext/1042686532/sys_int_pic32.o
 .debug_info    0x00029eb2     0x2cf4 build/pic32mx_eth_sk_int_dyn/production/_ext/826631961/sys_ports.o
 .debug_info    0x0002cba6      0x3cf build/pic32mx_eth_sk_int_dyn/production/_ext/693918571/sys_queue.o
 .debug_info    0x0002cf75      0x71d build/pic32mx_eth_sk_int_dyn/production/_ext/1886247299/big_int.o
 .debug_info    0x0002d692      0x82a build/pic32mx_eth_sk_int_dyn/production/_ext/1886247299/hashes.o
 .debug_info    0x0002debc      0x513 build/pic32mx_eth_sk_int_dyn/production/_ext/1886247299/helpers.o
 .debug_info    0x0002e3cf      0x221 build/pic32mx_eth_sk_int_dyn/production/_ext/1886247299/lfsr.o
 .debug_info    0x0002e5f0      0x625 build/pic32mx_eth_sk_int_dyn/production/_ext/1886247299/sys_fs_wrapper.o
 .debug_info    0x0002ec15      0x1b3 build/pic32mx_eth_sk_int_dyn/production/_ext/1360937237/assert_to_ide.o
 .debug_info    0x0002edc8      0x29a build/pic32mx_eth_sk_int_dyn/production/_ext/1360937237/mpfs_img2.o
 .debug_info    0x0002f062     0x2fe9 build/pic32mx_eth_sk_int_dyn/production/_ext/1360937237/custom_snmp_app.o
 .debug_info    0x0003204b     0x1bf7 build/pic32mx_eth_sk_int_dyn/production/_ext/1360937237/custom_http_app.o
 .debug_info    0x00033c42      0x380 build/pic32mx_eth_sk_int_dyn/production/_ext/1164207549/arcfour.o
 .debug_info    0x00033fc2     0x3822 build/pic32mx_eth_sk_int_dyn/production/_ext/1164207549/arp.o
 .debug_info    0x000377e4      0x385 build/pic32mx_eth_sk_int_dyn/production/_ext/1164207549/berkeley_api.o
 .debug_info    0x00037b69     0x34f2 build/pic32mx_eth_sk_int_dyn/production/_ext/1164207549/dhcp.o
 .debug_info    0x0003b05b      0x455 build/pic32mx_eth_sk_int_dyn/production/_ext/1164207549/dhcps.o
 .debug_info    0x0003b4b0     0x1a7f build/pic32mx_eth_sk_int_dyn/production/_ext/1164207549/dns.o
 .debug_info    0x0003cf2f      0x37d build/pic32mx_eth_sk_int_dyn/production/_ext/1164207549/dnss.o
 .debug_info    0x0003d2ac     0x2834 build/pic32mx_eth_sk_int_dyn/production/_ext/1164207549/ftp.o
 .debug_info    0x0003fae0      0x277 build/pic32mx_eth_sk_int_dyn/production/_ext/1164207549/hash_fnv.o
 .debug_info    0x0003fd57     0x3516 build/pic32mx_eth_sk_int_dyn/production/_ext/1164207549/http.o
 .debug_info    0x0004326d     0x173e build/pic32mx_eth_sk_int_dyn/production/_ext/1164207549/icmp.o
 .debug_info    0x000449ab      0x37f build/pic32mx_eth_sk_int_dyn/production/_ext/1164207549/icmpv6.o
 .debug_info    0x00044d2a     0x273a build/pic32mx_eth_sk_int_dyn/production/_ext/1164207549/iperf.o
 .debug_info    0x00047464     0x21a8 build/pic32mx_eth_sk_int_dyn/production/_ext/1164207549/ipv4.o
 .debug_info    0x0004960c      0x37d build/pic32mx_eth_sk_int_dyn/production/_ext/1164207549/ipv6.o
 .debug_info    0x00049989     0x1185 build/pic32mx_eth_sk_int_dyn/production/_ext/1164207549/nbns.o
 .debug_info    0x0004ab0e      0x37c build/pic32mx_eth_sk_int_dyn/production/_ext/1164207549/ndp.o
 .debug_info    0x0004ae8a      0x7d0 build/pic32mx_eth_sk_int_dyn/production/_ext/1164207549/oahash.o
 .debug_info    0x0004b65a      0x37c build/pic32mx_eth_sk_int_dyn/production/_ext/1164207549/rsa.o
 .debug_info    0x0004b9d6     0x18cf build/pic32mx_eth_sk_int_dyn/production/_ext/1164207549/smtp.o
 .debug_info    0x0004d2a5     0x56f1 build/pic32mx_eth_sk_int_dyn/production/_ext/1164207549/snmp.o
 .debug_info    0x00052996     0x487a build/pic32mx_eth_sk_int_dyn/production/_ext/1164207549/snmpv3.o
 .debug_info    0x00057210     0x2e7d build/pic32mx_eth_sk_int_dyn/production/_ext/1164207549/snmpv3_usm.o
 .debug_info    0x0005a08d     0x15c9 build/pic32mx_eth_sk_int_dyn/production/_ext/1164207549/sntp.o
 .debug_info    0x0005b656      0x37c build/pic32mx_eth_sk_int_dyn/production/_ext/1164207549/ssl.o
 .debug_info    0x0005b9d2     0x52d6 build/pic32mx_eth_sk_int_dyn/production/_ext/1164207549/tcp.o
 .debug_info    0x00060ca8     0x12d0 build/pic32mx_eth_sk_int_dyn/production/_ext/1164207549/tcpip_announce.o
 .debug_info    0x00061f78     0x23ac build/pic32mx_eth_sk_int_dyn/production/_ext/1164207549/tcpip_commands.o
 .debug_info    0x00064324      0xf1b build/pic32mx_eth_sk_int_dyn/production/_ext/1164207549/tcpip_heap_alloc.o
 .debug_info    0x0006523f       0xb0 build/pic32mx_eth_sk_int_dyn/production/_ext/1164207549/tcpip_helper_c32.o
 .debug_info    0x000652ef     0x1bc9 build/pic32mx_eth_sk_int_dyn/production/_ext/1164207549/tcpip_helpers.o
 .debug_info    0x00066eb8      0xdc7 build/pic32mx_eth_sk_int_dyn/production/_ext/1164207549/tcpip_mac_object.o
 .debug_info    0x00067c7f     0x58aa build/pic32mx_eth_sk_int_dyn/production/_ext/1164207549/tcpip_manager.o
 .debug_info    0x0006d529      0x38d build/pic32mx_eth_sk_int_dyn/production/_ext/1164207549/tcpip_notify.o
 .debug_info    0x0006d8b6     0x1521 build/pic32mx_eth_sk_int_dyn/production/_ext/1164207549/tcpip_packet.o
 .debug_info    0x0006edd7      0x385 build/pic32mx_eth_sk_int_dyn/production/_ext/1164207549/tcpip_reboot.o
 .debug_info    0x0006f15c     0x1491 build/pic32mx_eth_sk_int_dyn/production/_ext/1164207549/telnet.o
 .debug_info    0x000705ed     0x3bc6 build/pic32mx_eth_sk_int_dyn/production/_ext/1164207549/udp.o
 .debug_info    0x000741b3      0x389 build/pic32mx_eth_sk_int_dyn/production/_ext/1164207549/zero_conf_helper.o
 .debug_info    0x0007453c      0x45b build/pic32mx_eth_sk_int_dyn/production/_ext/1164207549/zero_conf_link_local.o
 .debug_info    0x00074997      0x390 build/pic32mx_eth_sk_int_dyn/production/_ext/1164207549/zero_conf_multicast_dns.o
 .debug_info    0x00074d27      0x1d6 build/pic32mx_eth_sk_int_dyn/production/_ext/1418760511/pic32mz_ports.o
 .debug_info    0x00074efd     0x102d build/pic32mx_eth_sk_int_dyn/production/_ext/1418760511/system_command.o
 .debug_info    0x00075f2a      0xb98 build/pic32mx_eth_sk_int_dyn/production/_ext/1418760511/system_debug.o
 .debug_info    0x00076ac2      0xc41 build/pic32mx_eth_sk_int_dyn/production/_ext/1418760511/system_random.o
 .debug_info    0x00077703     0x10aa build/pic32mx_eth_sk_int_dyn/production/_ext/1418760511/system_userio.o
 .debug_info    0x000787ad      0x715 build/pic32mx_eth_sk_int_dyn/production/_ext/1360937237/main.o
 .debug_info    0x00078ec2      0x621 ..\..\..\..\..\framework\tcpip\src\crypto\aes_pic32mx.a(AES_CFB.o)
 .debug_info    0x000794e3      0x58d ..\..\..\..\..\framework\tcpip\src\crypto\aes_pic32mx.a(AES_ECB_PIC32.o)
 .debug_info    0x00079a70       0xba c:/program files/microchip/xc32/v1.30-tc9/bin/../lib/gcc/pic32mx/4.5.2/../../../../pic32mx/lib\libmchp_peripheral_32MX795F512L.a(port_set_pins_digital_in_lib.o)
 .debug_info    0x00079b2a       0xbc c:/program files/microchip/xc32/v1.30-tc9/bin/../lib/gcc/pic32mx/4.5.2/../../../../pic32mx/lib\libmchp_peripheral_32MX795F512L.a(port_set_pins_digital_out_lib.o)
 .debug_info    0x00079be6        0x0 c:/program files/microchip/xc32/v1.30-tc9/bin/../lib/gcc/pic32mx/4.5.2/../../../../pic32mx/lib\libmchp_peripheral_32MX795F512L.a(_ports_tbl_libp.o)
 .debug_info    0x00079be6      0x75e c:/program files/microchip/xc32/v1.30-tc9/bin/../lib/gcc/pic32mx/4.5.2\libgcc.a(_udivdi3.o)
 .debug_info    0x0007a344      0x156 c:/program files/microchip/xc32/v1.30-tc9/bin/../lib/gcc/pic32mx/4.5.2\libgcc.a(floatunsisf.o)
 .debug_info    0x0007a49a       0xe4 c:/program files/microchip/xc32/v1.30-tc9/bin/../lib/gcc/pic32mx/4.5.2/../../../../pic32mx/lib\libpic32.a(default-bootstrap-exception-handler.o)
 .debug_info    0x0007a57e       0xbe c:/program files/microchip/xc32/v1.30-tc9/bin/../lib/gcc/pic32mx/4.5.2/../../../../pic32mx/lib\libpic32.a(default-on-reset.o)
 .debug_info    0x0007a63c       0xc6 c:/program files/microchip/xc32/v1.30-tc9/bin/../lib/gcc/pic32mx/4.5.2/../../../../pic32mx/lib\libpic32.a(default-on-bootstrap.o)
 .debug_info    0x0007a702       0xd8 c:/program files/microchip/xc32/v1.30-tc9/bin/../lib/gcc/pic32mx/4.5.2/../../../../pic32mx/lib\libpic32.a(defaultinterrupt.o)
 .debug_info    0x0007a7da       0xba c:/program files/microchip/xc32/v1.30-tc9/bin/../lib/gcc/pic32mx/4.5.2/../../../../pic32mx/lib\libc.a(fassert.o)
 .debug_info    0x0007a894       0xb3 c:/program files/microchip/xc32/v1.30-tc9/bin/../lib/gcc/pic32mx/4.5.2/../../../../pic32mx/lib\libc.a(atoi.o)
 .debug_info    0x0007a947       0xb3 c:/program files/microchip/xc32/v1.30-tc9/bin/../lib/gcc/pic32mx/4.5.2/../../../../pic32mx/lib\libc.a(atol.o)
 .debug_info    0x0007a9fa       0xb7 c:/program files/microchip/xc32/v1.30-tc9/bin/../lib/gcc/pic32mx/4.5.2/../../../../pic32mx/lib\libc.a(calloc.o)
 .debug_info    0x0007aab1        0x0 c:/program files/microchip/xc32/v1.30-tc9/bin/../lib/gcc/pic32mx/4.5.2/../../../../pic32mx/lib\libc.a(ctype.o)
 .debug_info    0x0007aab1       0xe6 c:/program files/microchip/xc32/v1.30-tc9/bin/../lib/gcc/pic32mx/4.5.2/../../../../pic32mx/lib\libc.a(malloc.o)
 .debug_info    0x0007ab97       0xcd c:/program files/microchip/xc32/v1.30-tc9/bin/../lib/gcc/pic32mx/4.5.2/../../../../pic32mx/lib\libc.a(rand.o)
 .debug_info    0x0007ac64       0xdf c:/program files/microchip/xc32/v1.30-tc9/bin/../lib/gcc/pic32mx/4.5.2/../../../../pic32mx/lib\libc.a(signal.o)
 .debug_info    0x0007ad43       0xb7 c:/program files/microchip/xc32/v1.30-tc9/bin/../lib/gcc/pic32mx/4.5.2/../../../../pic32mx/lib\libc.a(strchr.o)
 .debug_info    0x0007adfa       0xb9 c:/program files/microchip/xc32/v1.30-tc9/bin/../lib/gcc/pic32mx/4.5.2/../../../../pic32mx/lib\libc.a(strncat.o)
 .debug_info    0x0007aeb3       0xb9 c:/program files/microchip/xc32/v1.30-tc9/bin/../lib/gcc/pic32mx/4.5.2/../../../../pic32mx/lib\libc.a(strncmp.o)
 .debug_info    0x0007af6c       0xb9 c:/program files/microchip/xc32/v1.30-tc9/bin/../lib/gcc/pic32mx/4.5.2/../../../../pic32mx/lib\libc.a(strncpy.o)
 .debug_info    0x0007b025       0xb7 c:/program files/microchip/xc32/v1.30-tc9/bin/../lib/gcc/pic32mx/4.5.2/../../../../pic32mx/lib\libc.a(strstr.o)
 .debug_info    0x0007b0dc       0xb7 c:/program files/microchip/xc32/v1.30-tc9/bin/../lib/gcc/pic32mx/4.5.2/../../../../pic32mx/lib\libc.a(strtok.o)
 .debug_info    0x0007b193       0xb3 c:/program files/microchip/xc32/v1.30-tc9/bin/../lib/gcc/pic32mx/4.5.2/../../../../pic32mx/lib\libc.a(exit.o)
 .debug_info    0x0007b246       0xc4 c:/program files/microchip/xc32/v1.30-tc9/bin/../lib/gcc/pic32mx/4.5.2/../../../../pic32mx/lib\libc.a(fprintf_cdnopsuxX.eo)
 .debug_info    0x0007b30a       0xc6 c:/program files/microchip/xc32/v1.30-tc9/bin/../lib/gcc/pic32mx/4.5.2/../../../../pic32mx/lib\libc.a(snprintf_cdnopsuxX.eo)
 .debug_info    0x0007b3d0       0xc4 c:/program files/microchip/xc32/v1.30-tc9/bin/../lib/gcc/pic32mx/4.5.2/../../../../pic32mx/lib\libc.a(sprintf_cdnopsuxX.eo)
 .debug_info    0x0007b494       0xc8 c:/program files/microchip/xc32/v1.30-tc9/bin/../lib/gcc/pic32mx/4.5.2/../../../../pic32mx/lib\libc.a(vsnprintf_cdnopsuxX.eo)
 .debug_info    0x0007b55c       0xbd c:/program files/microchip/xc32/v1.30-tc9/bin/../lib/gcc/pic32mx/4.5.2/../../../../pic32mx/lib\libc.a(vsnprintf.o)
 .debug_info    0x0007b619        0x0 c:/program files/microchip/xc32/v1.30-tc9/bin/../lib/gcc/pic32mx/4.5.2/../../../../pic32mx/lib\libc.a(_iob.o)
 .debug_info    0x0007b619       0xbb c:/program files/microchip/xc32/v1.30-tc9/bin/../lib/gcc/pic32mx/4.5.2/../../../../pic32mx/lib\libc.a(stdclean_simple.o)
 .debug_info    0x0007b6d4       0xb9 c:/program files/microchip/xc32/v1.30-tc9/bin/../lib/gcc/pic32mx/4.5.2/../../../../pic32mx/lib\libc.a(strcspn.o)
 .debug_info    0x0007b78d       0xb7 c:/program files/microchip/xc32/v1.30-tc9/bin/../lib/gcc/pic32mx/4.5.2/../../../../pic32mx/lib\libc.a(strspn.o)
 .debug_info    0x0007b844       0xc5 c:/program files/microchip/xc32/v1.30-tc9/bin/../lib/gcc/pic32mx/4.5.2/../../../../pic32mx/lib\libc.a(doprnt_cdnopsuxX.eo)
 .debug_info    0x0007b909       0xe3 c:/program files/microchip/xc32/v1.30-tc9/bin/../lib/gcc/pic32mx/4.5.2/../../../../pic32mx/lib\libc.a(doprnt.o)
 .debug_info    0x0007b9ec       0xb5 c:/program files/microchip/xc32/v1.30-tc9/bin/../lib/gcc/pic32mx/4.5.2/../../../../pic32mx/lib\libc.a(_fputc_simple.o)
 .debug_info    0x0007baa1        0x0 c:/program files/microchip/xc32/v1.30-tc9/bin/../lib/gcc/pic32mx/4.5.2/../../../../pic32mx/lib\libc.a(powersf.o)
 .debug_info    0x0007baa1       0xb8 c:/program files/microchip/xc32/v1.30-tc9/bin/../lib/gcc/pic32mx/4.5.2/../../../../pic32mx/lib\libc.a(_flsbuf_simple.o)
 .debug_info    0x0007bb59      0x117 c:/program files/microchip/xc32/v1.30-tc9/bin/../lib/gcc/pic32mx/4.5.2/../../../../pic32mx/lib\libpic32.a(sbrk.o)
 .debug_info    0x0007bc70       0xaf c:/program files/microchip/xc32/v1.30-tc9/bin/../lib/gcc/pic32mx/4.5.2/../../../../pic32mx/lib\libpic32.a(write.o)
 .debug_info    0x0007bd1f        0x0 c:/program files/microchip/xc32/v1.30-tc9/bin/../lib/gcc/pic32mx/4.5.2/../../../../pic32mx/lib\libpic32.a(errno.o)
 .debug_info    0x0007bd1f       0xb7 c:/program files/microchip/xc32/v1.30-tc9/bin/../lib/gcc/pic32mx/4.5.2/../../../../pic32mx/lib\libpic32.a(_mon_putc.o)
 .debug_info    0x0007bdd6        0x0 c:/program files/microchip/xc32/v1.30-tc9/bin/../lib/gcc/pic32mx/4.5.2/../../../../pic32mx/lib\libpic32.a(xc32_uart.o)
 .debug_info    0x0007bdd6       0xcd c:/program files/microchip/xc32/v1.30-tc9/bin/../lib/gcc/pic32mx/4.5.2/../../../../pic32mx/lib\libe.a(_floatdisf.o)
 .debug_info    0x0007bea3      0x29e c:/program files/microchip/xc32/v1.30-tc9/bin/../lib/gcc/pic32mx/4.5.2\libgcc.a(_floatundisf.o)
 .debug_info    0x0007c141      0x797 c:/program files/microchip/xc32/v1.30-tc9/bin/../lib/gcc/pic32mx/4.5.2\libgcc.a(_umoddi3.o)

.debug_abbrev   0x00000000     0x971c
 *(.debug_abbrev)
 .debug_abbrev  0x00000000      0x1f2 build/pic32mx_eth_sk_int_dyn/production/_ext/1951764757/system_init.o
 .debug_abbrev  0x000001f2      0x1da build/pic32mx_eth_sk_int_dyn/production/_ext/1951764757/system_init_private.o
 .debug_abbrev  0x000003cc       0xfb build/pic32mx_eth_sk_int_dyn/production/_ext/1951764757/system_int.o
 .debug_abbrev  0x000004c7       0x6a build/pic32mx_eth_sk_int_dyn/production/_ext/1951764757/system_tasks.o
 .debug_abbrev  0x00000531      0x16d build/pic32mx_eth_sk_int_dyn/production/_ext/1360937237/app.o
 .debug_abbrev  0x0000069e       0xd2 build/pic32mx_eth_sk_int_dyn/production/_ext/1951764757/bsp_sys_init.o
 .debug_abbrev  0x00000770      0x120 build/pic32mx_eth_sk_int_dyn/production/_ext/377798159/config_performance.o
 .debug_abbrev  0x00000890      0x3c6 build/pic32mx_eth_sk_int_dyn/production/_ext/1697634946/drv_ethmac.o
 .debug_abbrev  0x00000c56      0x3af build/pic32mx_eth_sk_int_dyn/production/_ext/1697634946/drv_ethmac_lib.o
 .debug_abbrev  0x00001005      0x32e build/pic32mx_eth_sk_int_dyn/production/_ext/521481140/drv_ethphy.o
 .debug_abbrev  0x00001333      0x125 build/pic32mx_eth_sk_int_dyn/production/_ext/521481140/drv_extphy_dp83848.o
 .debug_abbrev  0x00001458      0x29f build/pic32mx_eth_sk_int_dyn/production/_ext/184581597/drv_nvm.o
 .debug_abbrev  0x000016f7      0x1d1 build/pic32mx_eth_sk_int_dyn/production/_ext/184581597/drv_nvm_media.o
 .debug_abbrev  0x000018c8       0x44 build/pic32mx_eth_sk_int_dyn/production/_ext/2138650627/db_appio.o
 .debug_abbrev  0x0000190c      0x182 build/pic32mx_eth_sk_int_dyn/production/_ext/2138650627/usart.o
 .debug_abbrev  0x00001a8e      0x1e7 build/pic32mx_eth_sk_int_dyn/production/_ext/1104573755/plib_eth_legacy.o
 .debug_abbrev  0x00001c75       0x6e build/pic32mx_eth_sk_int_dyn/production/_ext/198928529/plib_int_pic32.o
 .debug_abbrev  0x00001ce3      0x23e build/pic32mx_eth_sk_int_dyn/production/_ext/52938249/sys_clk_pic32.o
 .debug_abbrev  0x00001f21      0x1de build/pic32mx_eth_sk_int_dyn/production/_ext/52938249/sys_clk.o
 .debug_abbrev  0x000020ff      0x20d build/pic32mx_eth_sk_int_dyn/production/_ext/1750042194/sys_fs.o
 .debug_abbrev  0x0000230c      0x1fd build/pic32mx_eth_sk_int_dyn/production/_ext/1750042194/sys_fs_media_manager.o
 .debug_abbrev  0x00002509      0x1e6 build/pic32mx_eth_sk_int_dyn/production/_ext/614935175/mpfs.o
 .debug_abbrev  0x000026ef      0x1b4 build/pic32mx_eth_sk_int_dyn/production/_ext/1964723635/ff.o
 .debug_abbrev  0x000028a3       0xd6 build/pic32mx_eth_sk_int_dyn/production/_ext/732200470/diskio.o
 .debug_abbrev  0x00002979      0x125 build/pic32mx_eth_sk_int_dyn/production/_ext/1042686532/sys_int_pic32.o
 .debug_abbrev  0x00002a9e      0x17d build/pic32mx_eth_sk_int_dyn/production/_ext/826631961/sys_ports.o
 .debug_abbrev  0x00002c1b       0xfc build/pic32mx_eth_sk_int_dyn/production/_ext/693918571/sys_queue.o
 .debug_abbrev  0x00002d17      0x128 build/pic32mx_eth_sk_int_dyn/production/_ext/1886247299/big_int.o
 .debug_abbrev  0x00002e3f      0x18c build/pic32mx_eth_sk_int_dyn/production/_ext/1886247299/hashes.o
 .debug_abbrev  0x00002fcb       0xfb build/pic32mx_eth_sk_int_dyn/production/_ext/1886247299/helpers.o
 .debug_abbrev  0x000030c6       0x63 build/pic32mx_eth_sk_int_dyn/production/_ext/1886247299/lfsr.o
 .debug_abbrev  0x00003129      0x109 build/pic32mx_eth_sk_int_dyn/production/_ext/1886247299/sys_fs_wrapper.o
 .debug_abbrev  0x00003232       0x44 build/pic32mx_eth_sk_int_dyn/production/_ext/1360937237/assert_to_ide.o
 .debug_abbrev  0x00003276       0xb7 build/pic32mx_eth_sk_int_dyn/production/_ext/1360937237/mpfs_img2.o
 .debug_abbrev  0x0000332d      0x250 build/pic32mx_eth_sk_int_dyn/production/_ext/1360937237/custom_snmp_app.o
 .debug_abbrev  0x0000357d      0x20d build/pic32mx_eth_sk_int_dyn/production/_ext/1360937237/custom_http_app.o
 .debug_abbrev  0x0000378a       0xa1 build/pic32mx_eth_sk_int_dyn/production/_ext/1164207549/arcfour.o
 .debug_abbrev  0x0000382b      0x322 build/pic32mx_eth_sk_int_dyn/production/_ext/1164207549/arp.o
 .debug_abbrev  0x00003b4d       0xa1 build/pic32mx_eth_sk_int_dyn/production/_ext/1164207549/berkeley_api.o
 .debug_abbrev  0x00003bee      0x30d build/pic32mx_eth_sk_int_dyn/production/_ext/1164207549/dhcp.o
 .debug_abbrev  0x00003efb       0xce build/pic32mx_eth_sk_int_dyn/production/_ext/1164207549/dhcps.o
 .debug_abbrev  0x00003fc9      0x2ef build/pic32mx_eth_sk_int_dyn/production/_ext/1164207549/dns.o
 .debug_abbrev  0x000042b8       0xa1 build/pic32mx_eth_sk_int_dyn/production/_ext/1164207549/dnss.o
 .debug_abbrev  0x00004359      0x28e build/pic32mx_eth_sk_int_dyn/production/_ext/1164207549/ftp.o
 .debug_abbrev  0x000045e7       0x8a build/pic32mx_eth_sk_int_dyn/production/_ext/1164207549/hash_fnv.o
 .debug_abbrev  0x00004671      0x2b2 build/pic32mx_eth_sk_int_dyn/production/_ext/1164207549/http.o
 .debug_abbrev  0x00004923      0x2c5 build/pic32mx_eth_sk_int_dyn/production/_ext/1164207549/icmp.o
 .debug_abbrev  0x00004be8       0xa1 build/pic32mx_eth_sk_int_dyn/production/_ext/1164207549/icmpv6.o
 .debug_abbrev  0x00004c89      0x2b3 build/pic32mx_eth_sk_int_dyn/production/_ext/1164207549/iperf.o
 .debug_abbrev  0x00004f3c      0x313 build/pic32mx_eth_sk_int_dyn/production/_ext/1164207549/ipv4.o
 .debug_abbrev  0x0000524f       0xa1 build/pic32mx_eth_sk_int_dyn/production/_ext/1164207549/ipv6.o
 .debug_abbrev  0x000052f0      0x1fd build/pic32mx_eth_sk_int_dyn/production/_ext/1164207549/nbns.o
 .debug_abbrev  0x000054ed       0xa1 build/pic32mx_eth_sk_int_dyn/production/_ext/1164207549/ndp.o
 .debug_abbrev  0x0000558e      0x1c4 build/pic32mx_eth_sk_int_dyn/production/_ext/1164207549/oahash.o
 .debug_abbrev  0x00005752       0xa1 build/pic32mx_eth_sk_int_dyn/production/_ext/1164207549/rsa.o
 .debug_abbrev  0x000057f3      0x2b6 build/pic32mx_eth_sk_int_dyn/production/_ext/1164207549/smtp.o
 .debug_abbrev  0x00005aa9      0x2fb build/pic32mx_eth_sk_int_dyn/production/_ext/1164207549/snmp.o
 .debug_abbrev  0x00005da4      0x293 build/pic32mx_eth_sk_int_dyn/production/_ext/1164207549/snmpv3.o
 .debug_abbrev  0x00006037      0x225 build/pic32mx_eth_sk_int_dyn/production/_ext/1164207549/snmpv3_usm.o
 .debug_abbrev  0x0000625c      0x28d build/pic32mx_eth_sk_int_dyn/production/_ext/1164207549/sntp.o
 .debug_abbrev  0x000064e9       0xa1 build/pic32mx_eth_sk_int_dyn/production/_ext/1164207549/ssl.o
 .debug_abbrev  0x0000658a      0x388 build/pic32mx_eth_sk_int_dyn/production/_ext/1164207549/tcp.o
 .debug_abbrev  0x00006912      0x2c0 build/pic32mx_eth_sk_int_dyn/production/_ext/1164207549/tcpip_announce.o
 .debug_abbrev  0x00006bd2      0x2c9 build/pic32mx_eth_sk_int_dyn/production/_ext/1164207549/tcpip_commands.o
 .debug_abbrev  0x00006e9b      0x1b5 build/pic32mx_eth_sk_int_dyn/production/_ext/1164207549/tcpip_heap_alloc.o
 .debug_abbrev  0x00007050       0x14 build/pic32mx_eth_sk_int_dyn/production/_ext/1164207549/tcpip_helper_c32.o
 .debug_abbrev  0x00007064      0x20f build/pic32mx_eth_sk_int_dyn/production/_ext/1164207549/tcpip_helpers.o
 .debug_abbrev  0x00007273      0x1a4 build/pic32mx_eth_sk_int_dyn/production/_ext/1164207549/tcpip_mac_object.o
 .debug_abbrev  0x00007417      0x3cb build/pic32mx_eth_sk_int_dyn/production/_ext/1164207549/tcpip_manager.o
 .debug_abbrev  0x000077e2       0xd7 build/pic32mx_eth_sk_int_dyn/production/_ext/1164207549/tcpip_notify.o
 .debug_abbrev  0x000078b9      0x203 build/pic32mx_eth_sk_int_dyn/production/_ext/1164207549/tcpip_packet.o
 .debug_abbrev  0x00007abc       0xa1 build/pic32mx_eth_sk_int_dyn/production/_ext/1164207549/tcpip_reboot.o
 .debug_abbrev  0x00007b5d      0x298 build/pic32mx_eth_sk_int_dyn/production/_ext/1164207549/telnet.o
 .debug_abbrev  0x00007df5      0x379 build/pic32mx_eth_sk_int_dyn/production/_ext/1164207549/udp.o
 .debug_abbrev  0x0000816e       0xa1 build/pic32mx_eth_sk_int_dyn/production/_ext/1164207549/zero_conf_helper.o
 .debug_abbrev  0x0000820f       0xce build/pic32mx_eth_sk_int_dyn/production/_ext/1164207549/zero_conf_link_local.o
 .debug_abbrev  0x000082dd       0xa1 build/pic32mx_eth_sk_int_dyn/production/_ext/1164207549/zero_conf_multicast_dns.o
 .debug_abbrev  0x0000837e       0x44 build/pic32mx_eth_sk_int_dyn/production/_ext/1418760511/pic32mz_ports.o
 .debug_abbrev  0x000083c2      0x1be build/pic32mx_eth_sk_int_dyn/production/_ext/1418760511/system_command.o
 .debug_abbrev  0x00008580      0x1e1 build/pic32mx_eth_sk_int_dyn/production/_ext/1418760511/system_debug.o
 .debug_abbrev  0x00008761      0x1b3 build/pic32mx_eth_sk_int_dyn/production/_ext/1418760511/system_random.o
 .debug_abbrev  0x00008914      0x1d0 build/pic32mx_eth_sk_int_dyn/production/_ext/1418760511/system_userio.o
 .debug_abbrev  0x00008ae4       0x82 build/pic32mx_eth_sk_int_dyn/production/_ext/1360937237/main.o
 .debug_abbrev  0x00008b66      0x1d7 ..\..\..\..\..\framework\tcpip\src\crypto\aes_pic32mx.a(AES_CFB.o)
 .debug_abbrev  0x00008d3d      0x12c ..\..\..\..\..\framework\tcpip\src\crypto\aes_pic32mx.a(AES_ECB_PIC32.o)
 .debug_abbrev  0x00008e69       0x25 c:/program files/microchip/xc32/v1.30-tc9/bin/../lib/gcc/pic32mx/4.5.2/../../../../pic32mx/lib\libmchp_peripheral_32MX795F512L.a(port_set_pins_digital_in_lib.o)
 .debug_abbrev  0x00008e8e       0x25 c:/program files/microchip/xc32/v1.30-tc9/bin/../lib/gcc/pic32mx/4.5.2/../../../../pic32mx/lib\libmchp_peripheral_32MX795F512L.a(port_set_pins_digital_out_lib.o)
 .debug_abbrev  0x00008eb3        0x1 c:/program files/microchip/xc32/v1.30-tc9/bin/../lib/gcc/pic32mx/4.5.2/../../../../pic32mx/lib\libmchp_peripheral_32MX795F512L.a(_ports_tbl_libp.o)
 .debug_abbrev  0x00008eb4      0x132 c:/program files/microchip/xc32/v1.30-tc9/bin/../lib/gcc/pic32mx/4.5.2\libgcc.a(_udivdi3.o)
 .debug_abbrev  0x00008fe6       0x61 c:/program files/microchip/xc32/v1.30-tc9/bin/../lib/gcc/pic32mx/4.5.2\libgcc.a(floatunsisf.o)
 .debug_abbrev  0x00009047       0x23 c:/program files/microchip/xc32/v1.30-tc9/bin/../lib/gcc/pic32mx/4.5.2/../../../../pic32mx/lib\libpic32.a(default-bootstrap-exception-handler.o)
 .debug_abbrev  0x0000906a       0x23 c:/program files/microchip/xc32/v1.30-tc9/bin/../lib/gcc/pic32mx/4.5.2/../../../../pic32mx/lib\libpic32.a(default-on-reset.o)
 .debug_abbrev  0x0000908d       0x23 c:/program files/microchip/xc32/v1.30-tc9/bin/../lib/gcc/pic32mx/4.5.2/../../../../pic32mx/lib\libpic32.a(default-on-bootstrap.o)
 .debug_abbrev  0x000090b0       0x23 c:/program files/microchip/xc32/v1.30-tc9/bin/../lib/gcc/pic32mx/4.5.2/../../../../pic32mx/lib\libpic32.a(defaultinterrupt.o)
 .debug_abbrev  0x000090d3       0x23 c:/program files/microchip/xc32/v1.30-tc9/bin/../lib/gcc/pic32mx/4.5.2/../../../../pic32mx/lib\libc.a(fassert.o)
 .debug_abbrev  0x000090f6       0x23 c:/program files/microchip/xc32/v1.30-tc9/bin/../lib/gcc/pic32mx/4.5.2/../../../../pic32mx/lib\libc.a(atoi.o)
 .debug_abbrev  0x00009119       0x23 c:/program files/microchip/xc32/v1.30-tc9/bin/../lib/gcc/pic32mx/4.5.2/../../../../pic32mx/lib\libc.a(atol.o)
 .debug_abbrev  0x0000913c       0x23 c:/program files/microchip/xc32/v1.30-tc9/bin/../lib/gcc/pic32mx/4.5.2/../../../../pic32mx/lib\libc.a(calloc.o)
 .debug_abbrev  0x0000915f        0x1 c:/program files/microchip/xc32/v1.30-tc9/bin/../lib/gcc/pic32mx/4.5.2/../../../../pic32mx/lib\libc.a(ctype.o)
 .debug_abbrev  0x00009160       0x3f c:/program files/microchip/xc32/v1.30-tc9/bin/../lib/gcc/pic32mx/4.5.2/../../../../pic32mx/lib\libc.a(malloc.o)
 .debug_abbrev  0x0000919f       0x3f c:/program files/microchip/xc32/v1.30-tc9/bin/../lib/gcc/pic32mx/4.5.2/../../../../pic32mx/lib\libc.a(rand.o)
 .debug_abbrev  0x000091de       0x23 c:/program files/microchip/xc32/v1.30-tc9/bin/../lib/gcc/pic32mx/4.5.2/../../../../pic32mx/lib\libc.a(signal.o)
 .debug_abbrev  0x00009201       0x23 c:/program files/microchip/xc32/v1.30-tc9/bin/../lib/gcc/pic32mx/4.5.2/../../../../pic32mx/lib\libc.a(strchr.o)
 .debug_abbrev  0x00009224       0x23 c:/program files/microchip/xc32/v1.30-tc9/bin/../lib/gcc/pic32mx/4.5.2/../../../../pic32mx/lib\libc.a(strncat.o)
 .debug_abbrev  0x00009247       0x23 c:/program files/microchip/xc32/v1.30-tc9/bin/../lib/gcc/pic32mx/4.5.2/../../../../pic32mx/lib\libc.a(strncmp.o)
 .debug_abbrev  0x0000926a       0x23 c:/program files/microchip/xc32/v1.30-tc9/bin/../lib/gcc/pic32mx/4.5.2/../../../../pic32mx/lib\libc.a(strncpy.o)
 .debug_abbrev  0x0000928d       0x23 c:/program files/microchip/xc32/v1.30-tc9/bin/../lib/gcc/pic32mx/4.5.2/../../../../pic32mx/lib\libc.a(strstr.o)
 .debug_abbrev  0x000092b0       0x23 c:/program files/microchip/xc32/v1.30-tc9/bin/../lib/gcc/pic32mx/4.5.2/../../../../pic32mx/lib\libc.a(strtok.o)
 .debug_abbrev  0x000092d3       0x23 c:/program files/microchip/xc32/v1.30-tc9/bin/../lib/gcc/pic32mx/4.5.2/../../../../pic32mx/lib\libc.a(exit.o)
 .debug_abbrev  0x000092f6       0x23 c:/program files/microchip/xc32/v1.30-tc9/bin/../lib/gcc/pic32mx/4.5.2/../../../../pic32mx/lib\libc.a(fprintf_cdnopsuxX.eo)
 .debug_abbrev  0x00009319       0x23 c:/program files/microchip/xc32/v1.30-tc9/bin/../lib/gcc/pic32mx/4.5.2/../../../../pic32mx/lib\libc.a(snprintf_cdnopsuxX.eo)
 .debug_abbrev  0x0000933c       0x23 c:/program files/microchip/xc32/v1.30-tc9/bin/../lib/gcc/pic32mx/4.5.2/../../../../pic32mx/lib\libc.a(sprintf_cdnopsuxX.eo)
 .debug_abbrev  0x0000935f       0x23 c:/program files/microchip/xc32/v1.30-tc9/bin/../lib/gcc/pic32mx/4.5.2/../../../../pic32mx/lib\libc.a(vsnprintf_cdnopsuxX.eo)
 .debug_abbrev  0x00009382       0x23 c:/program files/microchip/xc32/v1.30-tc9/bin/../lib/gcc/pic32mx/4.5.2/../../../../pic32mx/lib\libc.a(vsnprintf.o)
 .debug_abbrev  0x000093a5        0x1 c:/program files/microchip/xc32/v1.30-tc9/bin/../lib/gcc/pic32mx/4.5.2/../../../../pic32mx/lib\libc.a(_iob.o)
 .debug_abbrev  0x000093a6       0x23 c:/program files/microchip/xc32/v1.30-tc9/bin/../lib/gcc/pic32mx/4.5.2/../../../../pic32mx/lib\libc.a(stdclean_simple.o)
 .debug_abbrev  0x000093c9       0x23 c:/program files/microchip/xc32/v1.30-tc9/bin/../lib/gcc/pic32mx/4.5.2/../../../../pic32mx/lib\libc.a(strcspn.o)
 .debug_abbrev  0x000093ec       0x23 c:/program files/microchip/xc32/v1.30-tc9/bin/../lib/gcc/pic32mx/4.5.2/../../../../pic32mx/lib\libc.a(strspn.o)
 .debug_abbrev  0x0000940f       0x23 c:/program files/microchip/xc32/v1.30-tc9/bin/../lib/gcc/pic32mx/4.5.2/../../../../pic32mx/lib\libc.a(doprnt_cdnopsuxX.eo)
 .debug_abbrev  0x00009432       0x34 c:/program files/microchip/xc32/v1.30-tc9/bin/../lib/gcc/pic32mx/4.5.2/../../../../pic32mx/lib\libc.a(doprnt.o)
 .debug_abbrev  0x00009466       0x23 c:/program files/microchip/xc32/v1.30-tc9/bin/../lib/gcc/pic32mx/4.5.2/../../../../pic32mx/lib\libc.a(_fputc_simple.o)
 .debug_abbrev  0x00009489        0x1 c:/program files/microchip/xc32/v1.30-tc9/bin/../lib/gcc/pic32mx/4.5.2/../../../../pic32mx/lib\libc.a(powersf.o)
 .debug_abbrev  0x0000948a       0x23 c:/program files/microchip/xc32/v1.30-tc9/bin/../lib/gcc/pic32mx/4.5.2/../../../../pic32mx/lib\libc.a(_flsbuf_simple.o)
 .debug_abbrev  0x000094ad       0x36 c:/program files/microchip/xc32/v1.30-tc9/bin/../lib/gcc/pic32mx/4.5.2/../../../../pic32mx/lib\libpic32.a(sbrk.o)
 .debug_abbrev  0x000094e3       0x23 c:/program files/microchip/xc32/v1.30-tc9/bin/../lib/gcc/pic32mx/4.5.2/../../../../pic32mx/lib\libpic32.a(write.o)
 .debug_abbrev  0x00009506        0x1 c:/program files/microchip/xc32/v1.30-tc9/bin/../lib/gcc/pic32mx/4.5.2/../../../../pic32mx/lib\libpic32.a(errno.o)
 .debug_abbrev  0x00009507       0x23 c:/program files/microchip/xc32/v1.30-tc9/bin/../lib/gcc/pic32mx/4.5.2/../../../../pic32mx/lib\libpic32.a(_mon_putc.o)
 .debug_abbrev  0x0000952a        0x1 c:/program files/microchip/xc32/v1.30-tc9/bin/../lib/gcc/pic32mx/4.5.2/../../../../pic32mx/lib\libpic32.a(xc32_uart.o)
 .debug_abbrev  0x0000952b       0x30 c:/program files/microchip/xc32/v1.30-tc9/bin/../lib/gcc/pic32mx/4.5.2/../../../../pic32mx/lib\libe.a(_floatdisf.o)
 .debug_abbrev  0x0000955b       0x79 c:/program files/microchip/xc32/v1.30-tc9/bin/../lib/gcc/pic32mx/4.5.2\libgcc.a(_floatundisf.o)
 .debug_abbrev  0x000095d4      0x148 c:/program files/microchip/xc32/v1.30-tc9/bin/../lib/gcc/pic32mx/4.5.2\libgcc.a(_umoddi3.o)

.debug_line     0x00000000    0x1b4df
 *(.debug_line)
 .debug_line    0x00000000      0x6a8 build/pic32mx_eth_sk_int_dyn/production/_ext/1951764757/system_init.o
 .debug_line    0x000006a8      0x4c3 build/pic32mx_eth_sk_int_dyn/production/_ext/1951764757/system_init_private.o
 .debug_line    0x00000b6b      0x2a6 build/pic32mx_eth_sk_int_dyn/production/_ext/1951764757/system_int.o
 .debug_line    0x00000e11      0x104 build/pic32mx_eth_sk_int_dyn/production/_ext/1951764757/system_tasks.o
 .debug_line    0x00000f15      0x2e2 build/pic32mx_eth_sk_int_dyn/production/_ext/1360937237/app.o
 .debug_line    0x000011f7      0x108 build/pic32mx_eth_sk_int_dyn/production/_ext/1951764757/bsp_sys_init.o
 .debug_line    0x000012ff      0x1b8 build/pic32mx_eth_sk_int_dyn/production/_ext/377798159/config_performance.o
 .debug_line    0x000014b7      0xae1 build/pic32mx_eth_sk_int_dyn/production/_ext/1697634946/drv_ethmac.o
 .debug_line    0x00001f98     0x153b build/pic32mx_eth_sk_int_dyn/production/_ext/1697634946/drv_ethmac_lib.o
 .debug_line    0x000034d3      0xddf build/pic32mx_eth_sk_int_dyn/production/_ext/521481140/drv_ethphy.o
 .debug_line    0x000042b2      0x31f build/pic32mx_eth_sk_int_dyn/production/_ext/521481140/drv_extphy_dp83848.o
 .debug_line    0x000045d1      0x9e9 build/pic32mx_eth_sk_int_dyn/production/_ext/184581597/drv_nvm.o
 .debug_line    0x00004fba      0x3b7 build/pic32mx_eth_sk_int_dyn/production/_ext/184581597/drv_nvm_media.o
 .debug_line    0x00005371       0x61 build/pic32mx_eth_sk_int_dyn/production/_ext/2138650627/db_appio.o
 .debug_line    0x000053d2      0x2c3 build/pic32mx_eth_sk_int_dyn/production/_ext/2138650627/usart.o
 .debug_line    0x00005695      0xb3d build/pic32mx_eth_sk_int_dyn/production/_ext/1104573755/plib_eth_legacy.o
 .debug_line    0x000061d2       0xfa build/pic32mx_eth_sk_int_dyn/production/_ext/198928529/plib_int_pic32.o
 .debug_line    0x000062cc      0xa01 build/pic32mx_eth_sk_int_dyn/production/_ext/52938249/sys_clk_pic32.o
 .debug_line    0x00006ccd      0x594 build/pic32mx_eth_sk_int_dyn/production/_ext/52938249/sys_clk.o
 .debug_line    0x00007261      0x51c build/pic32mx_eth_sk_int_dyn/production/_ext/1750042194/sys_fs.o
 .debug_line    0x0000777d      0x64f build/pic32mx_eth_sk_int_dyn/production/_ext/1750042194/sys_fs_media_manager.o
 .debug_line    0x00007dcc      0x4f5 build/pic32mx_eth_sk_int_dyn/production/_ext/614935175/mpfs.o
 .debug_line    0x000082c1      0xda7 build/pic32mx_eth_sk_int_dyn/production/_ext/1964723635/ff.o
 .debug_line    0x00009068      0x184 build/pic32mx_eth_sk_int_dyn/production/_ext/732200470/diskio.o
 .debug_line    0x000091ec      0x3ca build/pic32mx_eth_sk_int_dyn/production/_ext/1042686532/sys_int_pic32.o
 .debug_line    0x000095b6      0xc8f build/pic32mx_eth_sk_int_dyn/production/_ext/826631961/sys_ports.o
 .debug_line    0x0000a245      0x156 build/pic32mx_eth_sk_int_dyn/production/_ext/693918571/sys_queue.o
 .debug_line    0x0000a39b      0x266 build/pic32mx_eth_sk_int_dyn/production/_ext/1886247299/big_int.o
 .debug_line    0x0000a601      0x2d3 build/pic32mx_eth_sk_int_dyn/production/_ext/1886247299/hashes.o
 .debug_line    0x0000a8d4      0x25a build/pic32mx_eth_sk_int_dyn/production/_ext/1886247299/helpers.o
 .debug_line    0x0000ab2e       0xfe build/pic32mx_eth_sk_int_dyn/production/_ext/1886247299/lfsr.o
 .debug_line    0x0000ac2c      0x1d1 build/pic32mx_eth_sk_int_dyn/production/_ext/1886247299/sys_fs_wrapper.o
 .debug_line    0x0000adfd       0x61 build/pic32mx_eth_sk_int_dyn/production/_ext/1360937237/assert_to_ide.o
 .debug_line    0x0000ae5e       0xf1 build/pic32mx_eth_sk_int_dyn/production/_ext/1360937237/mpfs_img2.o
 .debug_line    0x0000af4f      0x93e build/pic32mx_eth_sk_int_dyn/production/_ext/1360937237/custom_snmp_app.o
 .debug_line    0x0000b88d      0x876 build/pic32mx_eth_sk_int_dyn/production/_ext/1360937237/custom_http_app.o
 .debug_line    0x0000c103       0x9f build/pic32mx_eth_sk_int_dyn/production/_ext/1164207549/arcfour.o
 .debug_line    0x0000c1a2      0x935 build/pic32mx_eth_sk_int_dyn/production/_ext/1164207549/arp.o
 .debug_line    0x0000cad7       0x9f build/pic32mx_eth_sk_int_dyn/production/_ext/1164207549/berkeley_api.o
 .debug_line    0x0000cb76      0x8a0 build/pic32mx_eth_sk_int_dyn/production/_ext/1164207549/dhcp.o
 .debug_line    0x0000d416      0x113 build/pic32mx_eth_sk_int_dyn/production/_ext/1164207549/dhcps.o
 .debug_line    0x0000d529      0x4f0 build/pic32mx_eth_sk_int_dyn/production/_ext/1164207549/dns.o
 .debug_line    0x0000da19       0x9f build/pic32mx_eth_sk_int_dyn/production/_ext/1164207549/dnss.o
 .debug_line    0x0000dab8      0x60c build/pic32mx_eth_sk_int_dyn/production/_ext/1164207549/ftp.o
 .debug_line    0x0000e0c4      0x179 build/pic32mx_eth_sk_int_dyn/production/_ext/1164207549/hash_fnv.o
 .debug_line    0x0000e23d      0xc13 build/pic32mx_eth_sk_int_dyn/production/_ext/1164207549/http.o
 .debug_line    0x0000ee50      0x2b1 build/pic32mx_eth_sk_int_dyn/production/_ext/1164207549/icmp.o
 .debug_line    0x0000f101       0x9f build/pic32mx_eth_sk_int_dyn/production/_ext/1164207549/icmpv6.o
 .debug_line    0x0000f1a0      0xbc4 build/pic32mx_eth_sk_int_dyn/production/_ext/1164207549/iperf.o
 .debug_line    0x0000fd64      0x4e6 build/pic32mx_eth_sk_int_dyn/production/_ext/1164207549/ipv4.o
 .debug_line    0x0001024a       0x9f build/pic32mx_eth_sk_int_dyn/production/_ext/1164207549/ipv6.o
 .debug_line    0x000102e9      0x2dc build/pic32mx_eth_sk_int_dyn/production/_ext/1164207549/nbns.o
 .debug_line    0x000105c5       0x9f build/pic32mx_eth_sk_int_dyn/production/_ext/1164207549/ndp.o
 .debug_line    0x00010664      0x265 build/pic32mx_eth_sk_int_dyn/production/_ext/1164207549/oahash.o
 .debug_line    0x000108c9       0x9f build/pic32mx_eth_sk_int_dyn/production/_ext/1164207549/rsa.o
 .debug_line    0x00010968      0x54c build/pic32mx_eth_sk_int_dyn/production/_ext/1164207549/smtp.o
 .debug_line    0x00010eb4     0x11ca build/pic32mx_eth_sk_int_dyn/production/_ext/1164207549/snmp.o
 .debug_line    0x0001207e      0xf67 build/pic32mx_eth_sk_int_dyn/production/_ext/1164207549/snmpv3.o
 .debug_line    0x00012fe5      0x6c4 build/pic32mx_eth_sk_int_dyn/production/_ext/1164207549/snmpv3_usm.o
 .debug_line    0x000136a9      0x407 build/pic32mx_eth_sk_int_dyn/production/_ext/1164207549/sntp.o
 .debug_line    0x00013ab0       0x9f build/pic32mx_eth_sk_int_dyn/production/_ext/1164207549/ssl.o
 .debug_line    0x00013b4f     0x1286 build/pic32mx_eth_sk_int_dyn/production/_ext/1164207549/tcp.o
 .debug_line    0x00014dd5      0x316 build/pic32mx_eth_sk_int_dyn/production/_ext/1164207549/tcpip_announce.o
 .debug_line    0x000150eb      0x6ad build/pic32mx_eth_sk_int_dyn/production/_ext/1164207549/tcpip_commands.o
 .debug_line    0x00015798      0x410 build/pic32mx_eth_sk_int_dyn/production/_ext/1164207549/tcpip_heap_alloc.o
 .debug_line    0x00015ba8       0xf8 build/pic32mx_eth_sk_int_dyn/production/_ext/1164207549/tcpip_helper_c32.o
 .debug_line    0x00015ca0      0x60d build/pic32mx_eth_sk_int_dyn/production/_ext/1164207549/tcpip_helpers.o
 .debug_line    0x000162ad      0x1ff build/pic32mx_eth_sk_int_dyn/production/_ext/1164207549/tcpip_mac_object.o
 .debug_line    0x000164ac     0x104b build/pic32mx_eth_sk_int_dyn/production/_ext/1164207549/tcpip_manager.o
 .debug_line    0x000174f7      0x128 build/pic32mx_eth_sk_int_dyn/production/_ext/1164207549/tcpip_notify.o
 .debug_line    0x0001761f      0x320 build/pic32mx_eth_sk_int_dyn/production/_ext/1164207549/tcpip_packet.o
 .debug_line    0x0001793f       0x9f build/pic32mx_eth_sk_int_dyn/production/_ext/1164207549/tcpip_reboot.o
 .debug_line    0x000179de      0x417 build/pic32mx_eth_sk_int_dyn/production/_ext/1164207549/telnet.o
 .debug_line    0x00017df5      0x9bf build/pic32mx_eth_sk_int_dyn/production/_ext/1164207549/udp.o
 .debug_line    0x000187b4       0x9f build/pic32mx_eth_sk_int_dyn/production/_ext/1164207549/zero_conf_helper.o
 .debug_line    0x00018853      0x122 build/pic32mx_eth_sk_int_dyn/production/_ext/1164207549/zero_conf_link_local.o
 .debug_line    0x00018975       0x9f build/pic32mx_eth_sk_int_dyn/production/_ext/1164207549/zero_conf_multicast_dns.o
 .debug_line    0x00018a14       0x61 build/pic32mx_eth_sk_int_dyn/production/_ext/1418760511/pic32mz_ports.o
 .debug_line    0x00018a75      0x478 build/pic32mx_eth_sk_int_dyn/production/_ext/1418760511/system_command.o
 .debug_line    0x00018eed      0x379 build/pic32mx_eth_sk_int_dyn/production/_ext/1418760511/system_debug.o
 .debug_line    0x00019266      0x289 build/pic32mx_eth_sk_int_dyn/production/_ext/1418760511/system_random.o
 .debug_line    0x000194ef      0x2f6 build/pic32mx_eth_sk_int_dyn/production/_ext/1418760511/system_userio.o
 .debug_line    0x000197e5      0x136 build/pic32mx_eth_sk_int_dyn/production/_ext/1360937237/main.o
 .debug_line    0x0001991b      0x28b ..\..\..\..\..\framework\tcpip\src\crypto\aes_pic32mx.a(AES_CFB.o)
 .debug_line    0x00019ba6      0x3ab ..\..\..\..\..\framework\tcpip\src\crypto\aes_pic32mx.a(AES_ECB_PIC32.o)
 .debug_line    0x00019f51       0x77 c:/program files/microchip/xc32/v1.30-tc9/bin/../lib/gcc/pic32mx/4.5.2/../../../../pic32mx/lib\libmchp_peripheral_32MX795F512L.a(port_set_pins_digital_in_lib.o)
 .debug_line    0x00019fc8       0x78 c:/program files/microchip/xc32/v1.30-tc9/bin/../lib/gcc/pic32mx/4.5.2/../../../../pic32mx/lib\libmchp_peripheral_32MX795F512L.a(port_set_pins_digital_out_lib.o)
 .debug_line    0x0001a040        0x0 c:/program files/microchip/xc32/v1.30-tc9/bin/../lib/gcc/pic32mx/4.5.2/../../../../pic32mx/lib\libmchp_peripheral_32MX795F512L.a(_ports_tbl_libp.o)
 .debug_line    0x0001a040      0x116 c:/program files/microchip/xc32/v1.30-tc9/bin/../lib/gcc/pic32mx/4.5.2\libgcc.a(_udivdi3.o)
 .debug_line    0x0001a156       0x6d c:/program files/microchip/xc32/v1.30-tc9/bin/../lib/gcc/pic32mx/4.5.2\libgcc.a(floatunsisf.o)
 .debug_line    0x0001a1c3       0x97 c:/program files/microchip/xc32/v1.30-tc9/bin/../lib/gcc/pic32mx/4.5.2/../../../../pic32mx/lib\libpic32.a(default-bootstrap-exception-handler.o)
 .debug_line    0x0001a25a       0x84 c:/program files/microchip/xc32/v1.30-tc9/bin/../lib/gcc/pic32mx/4.5.2/../../../../pic32mx/lib\libpic32.a(default-on-reset.o)
 .debug_line    0x0001a2de       0x88 c:/program files/microchip/xc32/v1.30-tc9/bin/../lib/gcc/pic32mx/4.5.2/../../../../pic32mx/lib\libpic32.a(default-on-bootstrap.o)
 .debug_line    0x0001a366       0x96 c:/program files/microchip/xc32/v1.30-tc9/bin/../lib/gcc/pic32mx/4.5.2/../../../../pic32mx/lib\libpic32.a(defaultinterrupt.o)
 .debug_line    0x0001a3fc       0x81 c:/program files/microchip/xc32/v1.30-tc9/bin/../lib/gcc/pic32mx/4.5.2/../../../../pic32mx/lib\libc.a(fassert.o)
 .debug_line    0x0001a47d       0x7e c:/program files/microchip/xc32/v1.30-tc9/bin/../lib/gcc/pic32mx/4.5.2/../../../../pic32mx/lib\libc.a(atoi.o)
 .debug_line    0x0001a4fb       0x7e c:/program files/microchip/xc32/v1.30-tc9/bin/../lib/gcc/pic32mx/4.5.2/../../../../pic32mx/lib\libc.a(atol.o)
 .debug_line    0x0001a579       0x80 c:/program files/microchip/xc32/v1.30-tc9/bin/../lib/gcc/pic32mx/4.5.2/../../../../pic32mx/lib\libc.a(calloc.o)
 .debug_line    0x0001a5f9        0x0 c:/program files/microchip/xc32/v1.30-tc9/bin/../lib/gcc/pic32mx/4.5.2/../../../../pic32mx/lib\libc.a(ctype.o)
 .debug_line    0x0001a5f9       0x80 c:/program files/microchip/xc32/v1.30-tc9/bin/../lib/gcc/pic32mx/4.5.2/../../../../pic32mx/lib\libc.a(malloc.o)
 .debug_line    0x0001a679       0x7e c:/program files/microchip/xc32/v1.30-tc9/bin/../lib/gcc/pic32mx/4.5.2/../../../../pic32mx/lib\libc.a(rand.o)
 .debug_line    0x0001a6f7       0x80 c:/program files/microchip/xc32/v1.30-tc9/bin/../lib/gcc/pic32mx/4.5.2/../../../../pic32mx/lib\libc.a(signal.o)
 .debug_line    0x0001a777       0x80 c:/program files/microchip/xc32/v1.30-tc9/bin/../lib/gcc/pic32mx/4.5.2/../../../../pic32mx/lib\libc.a(strchr.o)
 .debug_line    0x0001a7f7       0x81 c:/program files/microchip/xc32/v1.30-tc9/bin/../lib/gcc/pic32mx/4.5.2/../../../../pic32mx/lib\libc.a(strncat.o)
 .debug_line    0x0001a878       0x81 c:/program files/microchip/xc32/v1.30-tc9/bin/../lib/gcc/pic32mx/4.5.2/../../../../pic32mx/lib\libc.a(strncmp.o)
 .debug_line    0x0001a8f9       0x81 c:/program files/microchip/xc32/v1.30-tc9/bin/../lib/gcc/pic32mx/4.5.2/../../../../pic32mx/lib\libc.a(strncpy.o)
 .debug_line    0x0001a97a       0x80 c:/program files/microchip/xc32/v1.30-tc9/bin/../lib/gcc/pic32mx/4.5.2/../../../../pic32mx/lib\libc.a(strstr.o)
 .debug_line    0x0001a9fa       0x80 c:/program files/microchip/xc32/v1.30-tc9/bin/../lib/gcc/pic32mx/4.5.2/../../../../pic32mx/lib\libc.a(strtok.o)
 .debug_line    0x0001aa7a       0x7e c:/program files/microchip/xc32/v1.30-tc9/bin/../lib/gcc/pic32mx/4.5.2/../../../../pic32mx/lib\libc.a(exit.o)
 .debug_line    0x0001aaf8       0x81 c:/program files/microchip/xc32/v1.30-tc9/bin/../lib/gcc/pic32mx/4.5.2/../../../../pic32mx/lib\libc.a(fprintf_cdnopsuxX.eo)
 .debug_line    0x0001ab79       0x82 c:/program files/microchip/xc32/v1.30-tc9/bin/../lib/gcc/pic32mx/4.5.2/../../../../pic32mx/lib\libc.a(snprintf_cdnopsuxX.eo)
 .debug_line    0x0001abfb       0x81 c:/program files/microchip/xc32/v1.30-tc9/bin/../lib/gcc/pic32mx/4.5.2/../../../../pic32mx/lib\libc.a(sprintf_cdnopsuxX.eo)
 .debug_line    0x0001ac7c       0x83 c:/program files/microchip/xc32/v1.30-tc9/bin/../lib/gcc/pic32mx/4.5.2/../../../../pic32mx/lib\libc.a(vsnprintf_cdnopsuxX.eo)
 .debug_line    0x0001acff       0x83 c:/program files/microchip/xc32/v1.30-tc9/bin/../lib/gcc/pic32mx/4.5.2/../../../../pic32mx/lib\libc.a(vsnprintf.o)
 .debug_line    0x0001ad82        0x0 c:/program files/microchip/xc32/v1.30-tc9/bin/../lib/gcc/pic32mx/4.5.2/../../../../pic32mx/lib\libc.a(_iob.o)
 .debug_line    0x0001ad82       0x82 c:/program files/microchip/xc32/v1.30-tc9/bin/../lib/gcc/pic32mx/4.5.2/../../../../pic32mx/lib\libc.a(stdclean_simple.o)
 .debug_line    0x0001ae04       0x81 c:/program files/microchip/xc32/v1.30-tc9/bin/../lib/gcc/pic32mx/4.5.2/../../../../pic32mx/lib\libc.a(strcspn.o)
 .debug_line    0x0001ae85       0x80 c:/program files/microchip/xc32/v1.30-tc9/bin/../lib/gcc/pic32mx/4.5.2/../../../../pic32mx/lib\libc.a(strspn.o)
 .debug_line    0x0001af05       0x80 c:/program files/microchip/xc32/v1.30-tc9/bin/../lib/gcc/pic32mx/4.5.2/../../../../pic32mx/lib\libc.a(doprnt_cdnopsuxX.eo)
 .debug_line    0x0001af85       0x80 c:/program files/microchip/xc32/v1.30-tc9/bin/../lib/gcc/pic32mx/4.5.2/../../../../pic32mx/lib\libc.a(doprnt.o)
 .debug_line    0x0001b005       0x7f c:/program files/microchip/xc32/v1.30-tc9/bin/../lib/gcc/pic32mx/4.5.2/../../../../pic32mx/lib\libc.a(_fputc_simple.o)
 .debug_line    0x0001b084        0x0 c:/program files/microchip/xc32/v1.30-tc9/bin/../lib/gcc/pic32mx/4.5.2/../../../../pic32mx/lib\libc.a(powersf.o)
 .debug_line    0x0001b084       0x80 c:/program files/microchip/xc32/v1.30-tc9/bin/../lib/gcc/pic32mx/4.5.2/../../../../pic32mx/lib\libc.a(_flsbuf_simple.o)
 .debug_line    0x0001b104       0x78 c:/program files/microchip/xc32/v1.30-tc9/bin/../lib/gcc/pic32mx/4.5.2/../../../../pic32mx/lib\libpic32.a(sbrk.o)
 .debug_line    0x0001b17c       0x79 c:/program files/microchip/xc32/v1.30-tc9/bin/../lib/gcc/pic32mx/4.5.2/../../../../pic32mx/lib\libpic32.a(write.o)
 .debug_line    0x0001b1f5        0x0 c:/program files/microchip/xc32/v1.30-tc9/bin/../lib/gcc/pic32mx/4.5.2/../../../../pic32mx/lib\libpic32.a(errno.o)
 .debug_line    0x0001b1f5       0x7d c:/program files/microchip/xc32/v1.30-tc9/bin/../lib/gcc/pic32mx/4.5.2/../../../../pic32mx/lib\libpic32.a(_mon_putc.o)
 .debug_line    0x0001b272        0x0 c:/program files/microchip/xc32/v1.30-tc9/bin/../lib/gcc/pic32mx/4.5.2/../../../../pic32mx/lib\libpic32.a(xc32_uart.o)
 .debug_line    0x0001b272       0x93 c:/program files/microchip/xc32/v1.30-tc9/bin/../lib/gcc/pic32mx/4.5.2/../../../../pic32mx/lib\libe.a(_floatdisf.o)
 .debug_line    0x0001b305       0xc3 c:/program files/microchip/xc32/v1.30-tc9/bin/../lib/gcc/pic32mx/4.5.2\libgcc.a(_floatundisf.o)
 .debug_line    0x0001b3c8      0x117 c:/program files/microchip/xc32/v1.30-tc9/bin/../lib/gcc/pic32mx/4.5.2\libgcc.a(_umoddi3.o)

.debug_frame    0x00000000     0xb5d8
 *(.debug_frame)
 .debug_frame   0x00000000       0x80 build/pic32mx_eth_sk_int_dyn/production/_ext/1951764757/system_init.o
 .debug_frame   0x00000080      0x24c build/pic32mx_eth_sk_int_dyn/production/_ext/1951764757/system_init_private.o
 .debug_frame   0x000002cc       0x80 build/pic32mx_eth_sk_int_dyn/production/_ext/1951764757/system_int.o
 .debug_frame   0x0000034c       0x2c build/pic32mx_eth_sk_int_dyn/production/_ext/1951764757/system_tasks.o
 .debug_frame   0x00000378       0x48 build/pic32mx_eth_sk_int_dyn/production/_ext/1360937237/app.o
 .debug_frame   0x000003c0       0x2c build/pic32mx_eth_sk_int_dyn/production/_ext/1951764757/bsp_sys_init.o
 .debug_frame   0x000003ec      0x10c build/pic32mx_eth_sk_int_dyn/production/_ext/377798159/config_performance.o
 .debug_frame   0x000004f8      0x2e8 build/pic32mx_eth_sk_int_dyn/production/_ext/1697634946/drv_ethmac.o
 .debug_frame   0x000007e0      0xddc build/pic32mx_eth_sk_int_dyn/production/_ext/1697634946/drv_ethmac_lib.o
 .debug_frame   0x000015bc      0x988 build/pic32mx_eth_sk_int_dyn/production/_ext/521481140/drv_ethphy.o
 .debug_frame   0x00001f44       0x80 build/pic32mx_eth_sk_int_dyn/production/_ext/521481140/drv_extphy_dp83848.o
 .debug_frame   0x00001fc4      0x558 build/pic32mx_eth_sk_int_dyn/production/_ext/184581597/drv_nvm.o
 .debug_frame   0x0000251c       0xf0 build/pic32mx_eth_sk_int_dyn/production/_ext/184581597/drv_nvm_media.o
 .debug_frame   0x0000260c       0xd4 build/pic32mx_eth_sk_int_dyn/production/_ext/2138650627/usart.o
 .debug_frame   0x000026e0      0x9ec build/pic32mx_eth_sk_int_dyn/production/_ext/1104573755/plib_eth_legacy.o
 .debug_frame   0x000030cc       0x48 build/pic32mx_eth_sk_int_dyn/production/_ext/198928529/plib_int_pic32.o
 .debug_frame   0x00003114      0x6c8 build/pic32mx_eth_sk_int_dyn/production/_ext/52938249/sys_clk_pic32.o
 .debug_frame   0x000037dc      0x334 build/pic32mx_eth_sk_int_dyn/production/_ext/52938249/sys_clk.o
 .debug_frame   0x00003b10      0x1b4 build/pic32mx_eth_sk_int_dyn/production/_ext/1750042194/sys_fs.o
 .debug_frame   0x00003cc4      0x180 build/pic32mx_eth_sk_int_dyn/production/_ext/1750042194/sys_fs_media_manager.o
 .debug_frame   0x00003e44      0x2d4 build/pic32mx_eth_sk_int_dyn/production/_ext/614935175/mpfs.o
 .debug_frame   0x00004118      0x600 build/pic32mx_eth_sk_int_dyn/production/_ext/1964723635/ff.o
 .debug_frame   0x00004718       0x80 build/pic32mx_eth_sk_int_dyn/production/_ext/732200470/diskio.o
 .debug_frame   0x00004798      0x1d8 build/pic32mx_eth_sk_int_dyn/production/_ext/1042686532/sys_int_pic32.o
 .debug_frame   0x00004970      0xaf8 build/pic32mx_eth_sk_int_dyn/production/_ext/826631961/sys_ports.o
 .debug_frame   0x00005468       0x80 build/pic32mx_eth_sk_int_dyn/production/_ext/693918571/sys_queue.o
 .debug_frame   0x000054e8      0x188 build/pic32mx_eth_sk_int_dyn/production/_ext/1886247299/big_int.o
 .debug_frame   0x00005670      0x10c build/pic32mx_eth_sk_int_dyn/production/_ext/1886247299/hashes.o
 .debug_frame   0x0000577c       0xf0 build/pic32mx_eth_sk_int_dyn/production/_ext/1886247299/helpers.o
 .debug_frame   0x0000586c       0x48 build/pic32mx_eth_sk_int_dyn/production/_ext/1886247299/lfsr.o
 .debug_frame   0x000058b4       0x70 build/pic32mx_eth_sk_int_dyn/production/_ext/1886247299/sys_fs_wrapper.o
 .debug_frame   0x00005924      0x184 build/pic32mx_eth_sk_int_dyn/production/_ext/1360937237/custom_snmp_app.o
 .debug_frame   0x00005aa8      0x504 build/pic32mx_eth_sk_int_dyn/production/_ext/1360937237/custom_http_app.o
 .debug_frame   0x00005fac      0x42c build/pic32mx_eth_sk_int_dyn/production/_ext/1164207549/arp.o
 .debug_frame   0x000063d8      0x2cc build/pic32mx_eth_sk_int_dyn/production/_ext/1164207549/dhcp.o
 .debug_frame   0x000066a4       0x64 build/pic32mx_eth_sk_int_dyn/production/_ext/1164207549/dhcps.o
 .debug_frame   0x00006708      0x148 build/pic32mx_eth_sk_int_dyn/production/_ext/1164207549/dns.o
 .debug_frame   0x00006850      0x17c build/pic32mx_eth_sk_int_dyn/production/_ext/1164207549/ftp.o
 .debug_frame   0x000069cc       0x48 build/pic32mx_eth_sk_int_dyn/production/_ext/1164207549/hash_fnv.o
 .debug_frame   0x00006a14      0x448 build/pic32mx_eth_sk_int_dyn/production/_ext/1164207549/http.o
 .debug_frame   0x00006e5c       0xf0 build/pic32mx_eth_sk_int_dyn/production/_ext/1164207549/icmp.o
 .debug_frame   0x00006f4c      0x3e8 build/pic32mx_eth_sk_int_dyn/production/_ext/1164207549/iperf.o
 .debug_frame   0x00007334      0x1a0 build/pic32mx_eth_sk_int_dyn/production/_ext/1164207549/ipv4.o
 .debug_frame   0x000074d4       0x9c build/pic32mx_eth_sk_int_dyn/production/_ext/1164207549/nbns.o
 .debug_frame   0x00007570       0xf0 build/pic32mx_eth_sk_int_dyn/production/_ext/1164207549/oahash.o
 .debug_frame   0x00007660      0x19c build/pic32mx_eth_sk_int_dyn/production/_ext/1164207549/smtp.o
 .debug_frame   0x000077fc      0x550 build/pic32mx_eth_sk_int_dyn/production/_ext/1164207549/snmp.o
 .debug_frame   0x00007d4c      0x3c0 build/pic32mx_eth_sk_int_dyn/production/_ext/1164207549/snmpv3.o
 .debug_frame   0x0000810c      0x260 build/pic32mx_eth_sk_int_dyn/production/_ext/1164207549/snmpv3_usm.o
 .debug_frame   0x0000836c      0x128 build/pic32mx_eth_sk_int_dyn/production/_ext/1164207549/sntp.o
 .debug_frame   0x00008494      0x830 build/pic32mx_eth_sk_int_dyn/production/_ext/1164207549/tcp.o
 .debug_frame   0x00008cc4       0xd8 build/pic32mx_eth_sk_int_dyn/production/_ext/1164207549/tcpip_announce.o
 .debug_frame   0x00008d9c      0x1f4 build/pic32mx_eth_sk_int_dyn/production/_ext/1164207549/tcpip_commands.o
 .debug_frame   0x00008f90      0x1b4 build/pic32mx_eth_sk_int_dyn/production/_ext/1164207549/tcpip_heap_alloc.o
 .debug_frame   0x00009144      0x33c build/pic32mx_eth_sk_int_dyn/production/_ext/1164207549/tcpip_helpers.o
 .debug_frame   0x00009480       0xd4 build/pic32mx_eth_sk_int_dyn/production/_ext/1164207549/tcpip_mac_object.o
 .debug_frame   0x00009554      0x908 build/pic32mx_eth_sk_int_dyn/production/_ext/1164207549/tcpip_manager.o
 .debug_frame   0x00009e5c       0x64 build/pic32mx_eth_sk_int_dyn/production/_ext/1164207549/tcpip_notify.o
 .debug_frame   0x00009ec0      0x144 build/pic32mx_eth_sk_int_dyn/production/_ext/1164207549/tcpip_packet.o
 .debug_frame   0x0000a004      0x198 build/pic32mx_eth_sk_int_dyn/production/_ext/1164207549/telnet.o
 .debug_frame   0x0000a19c      0x5c4 build/pic32mx_eth_sk_int_dyn/production/_ext/1164207549/udp.o
 .debug_frame   0x0000a760       0x64 build/pic32mx_eth_sk_int_dyn/production/_ext/1164207549/zero_conf_link_local.o
 .debug_frame   0x0000a7c4      0x25c build/pic32mx_eth_sk_int_dyn/production/_ext/1418760511/system_command.o
 .debug_frame   0x0000aa20      0x1ec build/pic32mx_eth_sk_int_dyn/production/_ext/1418760511/system_debug.o
 .debug_frame   0x0000ac0c       0xa0 build/pic32mx_eth_sk_int_dyn/production/_ext/1418760511/system_random.o
 .debug_frame   0x0000acac       0xf0 build/pic32mx_eth_sk_int_dyn/production/_ext/1418760511/system_userio.o
 .debug_frame   0x0000ad9c       0x2c build/pic32mx_eth_sk_int_dyn/production/_ext/1360937237/main.o
 .debug_frame   0x0000adc8       0x68 ..\..\..\..\..\framework\tcpip\src\crypto\aes_pic32mx.a(AES_CFB.o)
 .debug_frame   0x0000ae30       0x9c ..\..\..\..\..\framework\tcpip\src\crypto\aes_pic32mx.a(AES_ECB_PIC32.o)
 .debug_frame   0x0000aecc       0x20 c:/program files/microchip/xc32/v1.30-tc9/bin/../lib/gcc/pic32mx/4.5.2/../../../../pic32mx/lib\libmchp_peripheral_32MX795F512L.a(port_set_pins_digital_in_lib.o)
 .debug_frame   0x0000aeec       0x20 c:/program files/microchip/xc32/v1.30-tc9/bin/../lib/gcc/pic32mx/4.5.2/../../../../pic32mx/lib\libmchp_peripheral_32MX795F512L.a(port_set_pins_digital_out_lib.o)
 .debug_frame   0x0000af0c       0x20 c:/program files/microchip/xc32/v1.30-tc9/bin/../lib/gcc/pic32mx/4.5.2\libgcc.a(_udivdi3.o)
 .debug_frame   0x0000af2c       0x28 c:/program files/microchip/xc32/v1.30-tc9/bin/../lib/gcc/pic32mx/4.5.2\libgcc.a(floatunsisf.o)
 .debug_frame   0x0000af54       0x20 c:/program files/microchip/xc32/v1.30-tc9/bin/../lib/gcc/pic32mx/4.5.2/../../../../pic32mx/lib\libpic32.a(default-bootstrap-exception-handler.o)
 .debug_frame   0x0000af74       0x20 c:/program files/microchip/xc32/v1.30-tc9/bin/../lib/gcc/pic32mx/4.5.2/../../../../pic32mx/lib\libpic32.a(default-on-reset.o)
 .debug_frame   0x0000af94       0x20 c:/program files/microchip/xc32/v1.30-tc9/bin/../lib/gcc/pic32mx/4.5.2/../../../../pic32mx/lib\libpic32.a(default-on-bootstrap.o)
 .debug_frame   0x0000afb4       0x20 c:/program files/microchip/xc32/v1.30-tc9/bin/../lib/gcc/pic32mx/4.5.2/../../../../pic32mx/lib\libpic32.a(defaultinterrupt.o)
 .debug_frame   0x0000afd4       0x28 c:/program files/microchip/xc32/v1.30-tc9/bin/../lib/gcc/pic32mx/4.5.2/../../../../pic32mx/lib\libc.a(fassert.o)
 .debug_frame   0x0000affc       0x20 c:/program files/microchip/xc32/v1.30-tc9/bin/../lib/gcc/pic32mx/4.5.2/../../../../pic32mx/lib\libc.a(atoi.o)
 .debug_frame   0x0000b01c       0x20 c:/program files/microchip/xc32/v1.30-tc9/bin/../lib/gcc/pic32mx/4.5.2/../../../../pic32mx/lib\libc.a(atol.o)
 .debug_frame   0x0000b03c       0x2c c:/program files/microchip/xc32/v1.30-tc9/bin/../lib/gcc/pic32mx/4.5.2/../../../../pic32mx/lib\libc.a(calloc.o)
 .debug_frame   0x0000b068       0x6c c:/program files/microchip/xc32/v1.30-tc9/bin/../lib/gcc/pic32mx/4.5.2/../../../../pic32mx/lib\libc.a(malloc.o)
 .debug_frame   0x0000b0d4       0x30 c:/program files/microchip/xc32/v1.30-tc9/bin/../lib/gcc/pic32mx/4.5.2/../../../../pic32mx/lib\libc.a(rand.o)
 .debug_frame   0x0000b104       0x50 c:/program files/microchip/xc32/v1.30-tc9/bin/../lib/gcc/pic32mx/4.5.2/../../../../pic32mx/lib\libc.a(signal.o)
 .debug_frame   0x0000b154       0x20 c:/program files/microchip/xc32/v1.30-tc9/bin/../lib/gcc/pic32mx/4.5.2/../../../../pic32mx/lib\libc.a(strchr.o)
 .debug_frame   0x0000b174       0x20 c:/program files/microchip/xc32/v1.30-tc9/bin/../lib/gcc/pic32mx/4.5.2/../../../../pic32mx/lib\libc.a(strncat.o)
 .debug_frame   0x0000b194       0x20 c:/program files/microchip/xc32/v1.30-tc9/bin/../lib/gcc/pic32mx/4.5.2/../../../../pic32mx/lib\libc.a(strncmp.o)
 .debug_frame   0x0000b1b4       0x20 c:/program files/microchip/xc32/v1.30-tc9/bin/../lib/gcc/pic32mx/4.5.2/../../../../pic32mx/lib\libc.a(strncpy.o)
 .debug_frame   0x0000b1d4       0x2c c:/program files/microchip/xc32/v1.30-tc9/bin/../lib/gcc/pic32mx/4.5.2/../../../../pic32mx/lib\libc.a(strstr.o)
 .debug_frame   0x0000b200       0x2c c:/program files/microchip/xc32/v1.30-tc9/bin/../lib/gcc/pic32mx/4.5.2/../../../../pic32mx/lib\libc.a(strtok.o)
 .debug_frame   0x0000b22c       0x28 c:/program files/microchip/xc32/v1.30-tc9/bin/../lib/gcc/pic32mx/4.5.2/../../../../pic32mx/lib\libc.a(exit.o)
 .debug_frame   0x0000b254       0x28 c:/program files/microchip/xc32/v1.30-tc9/bin/../lib/gcc/pic32mx/4.5.2/../../../../pic32mx/lib\libc.a(fprintf_cdnopsuxX.eo)
 .debug_frame   0x0000b27c       0x28 c:/program files/microchip/xc32/v1.30-tc9/bin/../lib/gcc/pic32mx/4.5.2/../../../../pic32mx/lib\libc.a(snprintf_cdnopsuxX.eo)
 .debug_frame   0x0000b2a4       0x2c c:/program files/microchip/xc32/v1.30-tc9/bin/../lib/gcc/pic32mx/4.5.2/../../../../pic32mx/lib\libc.a(sprintf_cdnopsuxX.eo)
 .debug_frame   0x0000b2d0       0x28 c:/program files/microchip/xc32/v1.30-tc9/bin/../lib/gcc/pic32mx/4.5.2/../../../../pic32mx/lib\libc.a(vsnprintf_cdnopsuxX.eo)
 .debug_frame   0x0000b2f8       0x28 c:/program files/microchip/xc32/v1.30-tc9/bin/../lib/gcc/pic32mx/4.5.2/../../../../pic32mx/lib\libc.a(vsnprintf.o)
 .debug_frame   0x0000b320       0x20 c:/program files/microchip/xc32/v1.30-tc9/bin/../lib/gcc/pic32mx/4.5.2/../../../../pic32mx/lib\libc.a(stdclean_simple.o)
 .debug_frame   0x0000b340       0x2c c:/program files/microchip/xc32/v1.30-tc9/bin/../lib/gcc/pic32mx/4.5.2/../../../../pic32mx/lib\libc.a(strcspn.o)
 .debug_frame   0x0000b36c       0x2c c:/program files/microchip/xc32/v1.30-tc9/bin/../lib/gcc/pic32mx/4.5.2/../../../../pic32mx/lib\libc.a(strspn.o)
 .debug_frame   0x0000b398       0x38 c:/program files/microchip/xc32/v1.30-tc9/bin/../lib/gcc/pic32mx/4.5.2/../../../../pic32mx/lib\libc.a(doprnt_cdnopsuxX.eo)
 .debug_frame   0x0000b3d0       0x74 c:/program files/microchip/xc32/v1.30-tc9/bin/../lib/gcc/pic32mx/4.5.2/../../../../pic32mx/lib\libc.a(doprnt.o)
 .debug_frame   0x0000b444       0x2c c:/program files/microchip/xc32/v1.30-tc9/bin/../lib/gcc/pic32mx/4.5.2/../../../../pic32mx/lib\libc.a(_fputc_simple.o)
 .debug_frame   0x0000b470       0x28 c:/program files/microchip/xc32/v1.30-tc9/bin/../lib/gcc/pic32mx/4.5.2/../../../../pic32mx/lib\libc.a(_flsbuf_simple.o)
 .debug_frame   0x0000b498       0x8c c:/program files/microchip/xc32/v1.30-tc9/bin/../lib/gcc/pic32mx/4.5.2/../../../../pic32mx/lib\libpic32.a(sbrk.o)
 .debug_frame   0x0000b524       0x28 c:/program files/microchip/xc32/v1.30-tc9/bin/../lib/gcc/pic32mx/4.5.2/../../../../pic32mx/lib\libpic32.a(write.o)
 .debug_frame   0x0000b54c       0x20 c:/program files/microchip/xc32/v1.30-tc9/bin/../lib/gcc/pic32mx/4.5.2/../../../../pic32mx/lib\libpic32.a(_mon_putc.o)
 .debug_frame   0x0000b56c       0x20 c:/program files/microchip/xc32/v1.30-tc9/bin/../lib/gcc/pic32mx/4.5.2/../../../../pic32mx/lib\libe.a(_floatdisf.o)
 .debug_frame   0x0000b58c       0x2c c:/program files/microchip/xc32/v1.30-tc9/bin/../lib/gcc/pic32mx/4.5.2\libgcc.a(_floatundisf.o)
 .debug_frame   0x0000b5b8       0x20 c:/program files/microchip/xc32/v1.30-tc9/bin/../lib/gcc/pic32mx/4.5.2\libgcc.a(_umoddi3.o)

.debug_str      0x00000000     0x3b40
 *(.debug_str)
 .debug_str     0x00000000      0x15f build/pic32mx_eth_sk_int_dyn/production/_ext/1951764757/system_init.o
 .debug_str     0x0000015f       0x6e build/pic32mx_eth_sk_int_dyn/production/_ext/1951764757/system_init_private.o
 .debug_str     0x000001cd       0x27 build/pic32mx_eth_sk_int_dyn/production/_ext/1951764757/system_int.o
 .debug_str     0x000001f4       0x27 build/pic32mx_eth_sk_int_dyn/production/_ext/1951764757/system_tasks.o
 .debug_str     0x0000021b       0x4a build/pic32mx_eth_sk_int_dyn/production/_ext/1360937237/app.o
 .debug_str     0x00000265       0x3a build/pic32mx_eth_sk_int_dyn/production/_ext/1951764757/bsp_sys_init.o
 .debug_str     0x0000029f       0x47 build/pic32mx_eth_sk_int_dyn/production/_ext/377798159/config_performance.o
 .debug_str     0x000002e6      0x239 build/pic32mx_eth_sk_int_dyn/production/_ext/1697634946/drv_ethmac.o
 .debug_str     0x0000051f      0x28c build/pic32mx_eth_sk_int_dyn/production/_ext/1697634946/drv_ethmac_lib.o
 .debug_str     0x000007ab      0x29e build/pic32mx_eth_sk_int_dyn/production/_ext/521481140/drv_ethphy.o
 .debug_str     0x00000a49      0x14f build/pic32mx_eth_sk_int_dyn/production/_ext/521481140/drv_extphy_dp83848.o
 .debug_str     0x00000b98      0x105 build/pic32mx_eth_sk_int_dyn/production/_ext/184581597/drv_nvm.o
 .debug_str     0x00000c9d       0xc6 build/pic32mx_eth_sk_int_dyn/production/_ext/184581597/drv_nvm_media.o
 .debug_str     0x00000d63       0x27 build/pic32mx_eth_sk_int_dyn/production/_ext/2138650627/db_appio.o
 .debug_str     0x00000d8a       0x4d build/pic32mx_eth_sk_int_dyn/production/_ext/2138650627/usart.o
 .debug_str     0x00000dd7      0x1e7 build/pic32mx_eth_sk_int_dyn/production/_ext/1104573755/plib_eth_legacy.o
 .debug_str     0x00000fbe       0x1b build/pic32mx_eth_sk_int_dyn/production/_ext/198928529/plib_int_pic32.o
 .debug_str     0x00000fd9      0x178 build/pic32mx_eth_sk_int_dyn/production/_ext/52938249/sys_clk_pic32.o
 .debug_str     0x00001151       0x6b build/pic32mx_eth_sk_int_dyn/production/_ext/52938249/sys_clk.o
 .debug_str     0x000011bc       0xa8 build/pic32mx_eth_sk_int_dyn/production/_ext/1750042194/sys_fs.o
 .debug_str     0x00001264       0xd1 build/pic32mx_eth_sk_int_dyn/production/_ext/1750042194/sys_fs_media_manager.o
 .debug_str     0x00001335       0x67 build/pic32mx_eth_sk_int_dyn/production/_ext/614935175/mpfs.o
 .debug_str     0x0000139c       0x49 build/pic32mx_eth_sk_int_dyn/production/_ext/1964723635/ff.o
 .debug_str     0x000013e5       0x27 build/pic32mx_eth_sk_int_dyn/production/_ext/732200470/diskio.o
 .debug_str     0x0000140c        0xd build/pic32mx_eth_sk_int_dyn/production/_ext/1042686532/sys_int_pic32.o
 .debug_str     0x00001419       0x5b build/pic32mx_eth_sk_int_dyn/production/_ext/826631961/sys_ports.o
 .debug_str     0x00001474       0x29 build/pic32mx_eth_sk_int_dyn/production/_ext/693918571/sys_queue.o
 .debug_str     0x0000149d        0x0 build/pic32mx_eth_sk_int_dyn/production/_ext/1886247299/big_int.o
 .debug_str     0x0000149d       0x1a build/pic32mx_eth_sk_int_dyn/production/_ext/1886247299/hashes.o
 .debug_str     0x000014b7        0x0 build/pic32mx_eth_sk_int_dyn/production/_ext/1886247299/helpers.o
 .debug_str     0x000014b7        0x0 build/pic32mx_eth_sk_int_dyn/production/_ext/1886247299/lfsr.o
 .debug_str     0x000014b7       0x79 build/pic32mx_eth_sk_int_dyn/production/_ext/1886247299/sys_fs_wrapper.o
 .debug_str     0x00001530       0x27 build/pic32mx_eth_sk_int_dyn/production/_ext/1360937237/assert_to_ide.o
 .debug_str     0x00001557       0x37 build/pic32mx_eth_sk_int_dyn/production/_ext/1360937237/mpfs_img2.o
 .debug_str     0x0000158e      0x239 build/pic32mx_eth_sk_int_dyn/production/_ext/1360937237/custom_snmp_app.o
 .debug_str     0x000017c7       0x88 build/pic32mx_eth_sk_int_dyn/production/_ext/1360937237/custom_http_app.o
 .debug_str     0x0000184f       0x41 build/pic32mx_eth_sk_int_dyn/production/_ext/1164207549/arcfour.o
 .debug_str     0x00001890      0x108 build/pic32mx_eth_sk_int_dyn/production/_ext/1164207549/arp.o
 .debug_str     0x00001998       0x41 build/pic32mx_eth_sk_int_dyn/production/_ext/1164207549/berkeley_api.o
 .debug_str     0x000019d9       0x99 build/pic32mx_eth_sk_int_dyn/production/_ext/1164207549/dhcp.o
 .debug_str     0x00001a72       0x41 build/pic32mx_eth_sk_int_dyn/production/_ext/1164207549/dhcps.o
 .debug_str     0x00001ab3       0x67 build/pic32mx_eth_sk_int_dyn/production/_ext/1164207549/dns.o
 .debug_str     0x00001b1a       0x41 build/pic32mx_eth_sk_int_dyn/production/_ext/1164207549/dnss.o
 .debug_str     0x00001b5b       0x94 build/pic32mx_eth_sk_int_dyn/production/_ext/1164207549/ftp.o
 .debug_str     0x00001bef        0x0 build/pic32mx_eth_sk_int_dyn/production/_ext/1164207549/hash_fnv.o
 .debug_str     0x00001bef       0xd4 build/pic32mx_eth_sk_int_dyn/production/_ext/1164207549/http.o
 .debug_str     0x00001cc3       0x79 build/pic32mx_eth_sk_int_dyn/production/_ext/1164207549/icmp.o
 .debug_str     0x00001d3c       0x41 build/pic32mx_eth_sk_int_dyn/production/_ext/1164207549/icmpv6.o
 .debug_str     0x00001d7d       0xe8 build/pic32mx_eth_sk_int_dyn/production/_ext/1164207549/iperf.o
 .debug_str     0x00001e65       0x64 build/pic32mx_eth_sk_int_dyn/production/_ext/1164207549/ipv4.o
 .debug_str     0x00001ec9       0x41 build/pic32mx_eth_sk_int_dyn/production/_ext/1164207549/ipv6.o
 .debug_str     0x00001f0a       0x60 build/pic32mx_eth_sk_int_dyn/production/_ext/1164207549/nbns.o
 .debug_str     0x00001f6a       0x41 build/pic32mx_eth_sk_int_dyn/production/_ext/1164207549/ndp.o
 .debug_str     0x00001fab        0xa build/pic32mx_eth_sk_int_dyn/production/_ext/1164207549/oahash.o
 .debug_str     0x00001fb5       0x41 build/pic32mx_eth_sk_int_dyn/production/_ext/1164207549/rsa.o
 .debug_str     0x00001ff6       0x60 build/pic32mx_eth_sk_int_dyn/production/_ext/1164207549/smtp.o
 .debug_str     0x00002056      0x353 build/pic32mx_eth_sk_int_dyn/production/_ext/1164207549/snmp.o
 .debug_str     0x000023a9      0x3ad build/pic32mx_eth_sk_int_dyn/production/_ext/1164207549/snmpv3.o
 .debug_str     0x00002756      0x234 build/pic32mx_eth_sk_int_dyn/production/_ext/1164207549/snmpv3_usm.o
 .debug_str     0x0000298a       0x60 build/pic32mx_eth_sk_int_dyn/production/_ext/1164207549/sntp.o
 .debug_str     0x000029ea       0x41 build/pic32mx_eth_sk_int_dyn/production/_ext/1164207549/ssl.o
 .debug_str     0x00002a2b      0x17d build/pic32mx_eth_sk_int_dyn/production/_ext/1164207549/tcp.o
 .debug_str     0x00002ba8       0x67 build/pic32mx_eth_sk_int_dyn/production/_ext/1164207549/tcpip_announce.o
 .debug_str     0x00002c0f      0x145 build/pic32mx_eth_sk_int_dyn/production/_ext/1164207549/tcpip_commands.o
 .debug_str     0x00002d54       0x66 build/pic32mx_eth_sk_int_dyn/production/_ext/1164207549/tcpip_heap_alloc.o
 .debug_str     0x00002dba       0x85 build/pic32mx_eth_sk_int_dyn/production/_ext/1164207549/tcpip_helpers.o
 .debug_str     0x00002e3f       0xda build/pic32mx_eth_sk_int_dyn/production/_ext/1164207549/tcpip_mac_object.o
 .debug_str     0x00002f19      0x30b build/pic32mx_eth_sk_int_dyn/production/_ext/1164207549/tcpip_manager.o
 .debug_str     0x00003224        0xb build/pic32mx_eth_sk_int_dyn/production/_ext/1164207549/tcpip_notify.o
 .debug_str     0x0000322f       0x4b build/pic32mx_eth_sk_int_dyn/production/_ext/1164207549/tcpip_packet.o
 .debug_str     0x0000327a       0x41 build/pic32mx_eth_sk_int_dyn/production/_ext/1164207549/tcpip_reboot.o
 .debug_str     0x000032bb       0x88 build/pic32mx_eth_sk_int_dyn/production/_ext/1164207549/telnet.o
 .debug_str     0x00003343      0x124 build/pic32mx_eth_sk_int_dyn/production/_ext/1164207549/udp.o
 .debug_str     0x00003467       0x41 build/pic32mx_eth_sk_int_dyn/production/_ext/1164207549/zero_conf_helper.o
 .debug_str     0x000034a8       0x41 build/pic32mx_eth_sk_int_dyn/production/_ext/1164207549/zero_conf_link_local.o
 .debug_str     0x000034e9       0x41 build/pic32mx_eth_sk_int_dyn/production/_ext/1164207549/zero_conf_multicast_dns.o
 .debug_str     0x0000352a       0x27 build/pic32mx_eth_sk_int_dyn/production/_ext/1418760511/pic32mz_ports.o
 .debug_str     0x00003551       0x50 build/pic32mx_eth_sk_int_dyn/production/_ext/1418760511/system_command.o
 .debug_str     0x000035a1       0x7f build/pic32mx_eth_sk_int_dyn/production/_ext/1418760511/system_debug.o
 .debug_str     0x00003620       0x30 build/pic32mx_eth_sk_int_dyn/production/_ext/1418760511/system_random.o
 .debug_str     0x00003650       0x3a build/pic32mx_eth_sk_int_dyn/production/_ext/1418760511/system_userio.o
 .debug_str     0x0000368a       0x27 build/pic32mx_eth_sk_int_dyn/production/_ext/1360937237/main.o
 .debug_str     0x000036b1      0x380 ..\..\..\..\..\framework\tcpip\src\crypto\aes_pic32mx.a(AES_CFB.o)
                                0x3e5 (size before relaxing)
 .debug_str     0x00003a31      0x10f ..\..\..\..\..\framework\tcpip\src\crypto\aes_pic32mx.a(AES_ECB_PIC32.o)
                                0x23c (size before relaxing)
 .debug_str     0x00003b40        0x0 c:/program files/microchip/xc32/v1.30-tc9/bin/../lib/gcc/pic32mx/4.5.2/../../../../pic32mx/lib\libmchp_peripheral_32MX795F512L.a(port_set_pins_digital_in_lib.o)
 .debug_str     0x00003b40        0x0 c:/program files/microchip/xc32/v1.30-tc9/bin/../lib/gcc/pic32mx/4.5.2/../../../../pic32mx/lib\libmchp_peripheral_32MX795F512L.a(port_set_pins_digital_out_lib.o)
 .debug_str     0x00003b40        0x0 c:/program files/microchip/xc32/v1.30-tc9/bin/../lib/gcc/pic32mx/4.5.2/../../../../pic32mx/lib\libmchp_peripheral_32MX795F512L.a(_ports_tbl_libp.o)
 .debug_str     0x00003b40        0x0 c:/program files/microchip/xc32/v1.30-tc9/bin/../lib/gcc/pic32mx/4.5.2\libgcc.a(_udivdi3.o)
 .debug_str     0x00003b40        0x0 c:/program files/microchip/xc32/v1.30-tc9/bin/../lib/gcc/pic32mx/4.5.2\libgcc.a(floatunsisf.o)
 .debug_str     0x00003b40        0x0 c:/program files/microchip/xc32/v1.30-tc9/bin/../lib/gcc/pic32mx/4.5.2/../../../../pic32mx/lib\libpic32.a(default-bootstrap-exception-handler.o)
 .debug_str     0x00003b40        0x0 c:/program files/microchip/xc32/v1.30-tc9/bin/../lib/gcc/pic32mx/4.5.2/../../../../pic32mx/lib\libpic32.a(default-on-reset.o)
 .debug_str     0x00003b40        0x0 c:/program files/microchip/xc32/v1.30-tc9/bin/../lib/gcc/pic32mx/4.5.2/../../../../pic32mx/lib\libpic32.a(default-on-bootstrap.o)
 .debug_str     0x00003b40        0x0 c:/program files/microchip/xc32/v1.30-tc9/bin/../lib/gcc/pic32mx/4.5.2/../../../../pic32mx/lib\libpic32.a(defaultinterrupt.o)
 .debug_str     0x00003b40        0x0 c:/program files/microchip/xc32/v1.30-tc9/bin/../lib/gcc/pic32mx/4.5.2/../../../../pic32mx/lib\libc.a(fassert.o)
 .debug_str     0x00003b40        0x0 c:/program files/microchip/xc32/v1.30-tc9/bin/../lib/gcc/pic32mx/4.5.2/../../../../pic32mx/lib\libc.a(atoi.o)
 .debug_str     0x00003b40        0x0 c:/program files/microchip/xc32/v1.30-tc9/bin/../lib/gcc/pic32mx/4.5.2/../../../../pic32mx/lib\libc.a(atol.o)
 .debug_str     0x00003b40        0x0 c:/program files/microchip/xc32/v1.30-tc9/bin/../lib/gcc/pic32mx/4.5.2/../../../../pic32mx/lib\libc.a(calloc.o)
 .debug_str     0x00003b40        0x0 c:/program files/microchip/xc32/v1.30-tc9/bin/../lib/gcc/pic32mx/4.5.2/../../../../pic32mx/lib\libc.a(ctype.o)
 .debug_str     0x00003b40        0x0 c:/program files/microchip/xc32/v1.30-tc9/bin/../lib/gcc/pic32mx/4.5.2/../../../../pic32mx/lib\libc.a(malloc.o)
 .debug_str     0x00003b40        0x0 c:/program files/microchip/xc32/v1.30-tc9/bin/../lib/gcc/pic32mx/4.5.2/../../../../pic32mx/lib\libc.a(rand.o)
 .debug_str     0x00003b40        0x0 c:/program files/microchip/xc32/v1.30-tc9/bin/../lib/gcc/pic32mx/4.5.2/../../../../pic32mx/lib\libc.a(signal.o)
 .debug_str     0x00003b40        0x0 c:/program files/microchip/xc32/v1.30-tc9/bin/../lib/gcc/pic32mx/4.5.2/../../../../pic32mx/lib\libc.a(strchr.o)
 .debug_str     0x00003b40        0x0 c:/program files/microchip/xc32/v1.30-tc9/bin/../lib/gcc/pic32mx/4.5.2/../../../../pic32mx/lib\libc.a(strncat.o)
 .debug_str     0x00003b40        0x0 c:/program files/microchip/xc32/v1.30-tc9/bin/../lib/gcc/pic32mx/4.5.2/../../../../pic32mx/lib\libc.a(strncmp.o)
 .debug_str     0x00003b40        0x0 c:/program files/microchip/xc32/v1.30-tc9/bin/../lib/gcc/pic32mx/4.5.2/../../../../pic32mx/lib\libc.a(strncpy.o)
 .debug_str     0x00003b40        0x0 c:/program files/microchip/xc32/v1.30-tc9/bin/../lib/gcc/pic32mx/4.5.2/../../../../pic32mx/lib\libc.a(strstr.o)
 .debug_str     0x00003b40        0x0 c:/program files/microchip/xc32/v1.30-tc9/bin/../lib/gcc/pic32mx/4.5.2/../../../../pic32mx/lib\libc.a(strtok.o)
 .debug_str     0x00003b40        0x0 c:/program files/microchip/xc32/v1.30-tc9/bin/../lib/gcc/pic32mx/4.5.2/../../../../pic32mx/lib\libc.a(exit.o)
 .debug_str     0x00003b40        0x0 c:/program files/microchip/xc32/v1.30-tc9/bin/../lib/gcc/pic32mx/4.5.2/../../../../pic32mx/lib\libc.a(fprintf_cdnopsuxX.eo)
 .debug_str     0x00003b40        0x0 c:/program files/microchip/xc32/v1.30-tc9/bin/../lib/gcc/pic32mx/4.5.2/../../../../pic32mx/lib\libc.a(snprintf_cdnopsuxX.eo)
 .debug_str     0x00003b40        0x0 c:/program files/microchip/xc32/v1.30-tc9/bin/../lib/gcc/pic32mx/4.5.2/../../../../pic32mx/lib\libc.a(sprintf_cdnopsuxX.eo)
 .debug_str     0x00003b40        0x0 c:/program files/microchip/xc32/v1.30-tc9/bin/../lib/gcc/pic32mx/4.5.2/../../../../pic32mx/lib\libc.a(vsnprintf_cdnopsuxX.eo)
 .debug_str     0x00003b40        0x0 c:/program files/microchip/xc32/v1.30-tc9/bin/../lib/gcc/pic32mx/4.5.2/../../../../pic32mx/lib\libc.a(vsnprintf.o)
 .debug_str     0x00003b40        0x0 c:/program files/microchip/xc32/v1.30-tc9/bin/../lib/gcc/pic32mx/4.5.2/../../../../pic32mx/lib\libc.a(_iob.o)
 .debug_str     0x00003b40        0x0 c:/program files/microchip/xc32/v1.30-tc9/bin/../lib/gcc/pic32mx/4.5.2/../../../../pic32mx/lib\libc.a(stdclean_simple.o)
 .debug_str     0x00003b40        0x0 c:/program files/microchip/xc32/v1.30-tc9/bin/../lib/gcc/pic32mx/4.5.2/../../../../pic32mx/lib\libc.a(strcspn.o)
 .debug_str     0x00003b40        0x0 c:/program files/microchip/xc32/v1.30-tc9/bin/../lib/gcc/pic32mx/4.5.2/../../../../pic32mx/lib\libc.a(strspn.o)
 .debug_str     0x00003b40        0x0 c:/program files/microchip/xc32/v1.30-tc9/bin/../lib/gcc/pic32mx/4.5.2/../../../../pic32mx/lib\libc.a(doprnt_cdnopsuxX.eo)
 .debug_str     0x00003b40        0x0 c:/program files/microchip/xc32/v1.30-tc9/bin/../lib/gcc/pic32mx/4.5.2/../../../../pic32mx/lib\libc.a(doprnt.o)
 .debug_str     0x00003b40        0x0 c:/program files/microchip/xc32/v1.30-tc9/bin/../lib/gcc/pic32mx/4.5.2/../../../../pic32mx/lib\libc.a(_fputc_simple.o)
 .debug_str     0x00003b40        0x0 c:/program files/microchip/xc32/v1.30-tc9/bin/../lib/gcc/pic32mx/4.5.2/../../../../pic32mx/lib\libc.a(powersf.o)
 .debug_str     0x00003b40        0x0 c:/program files/microchip/xc32/v1.30-tc9/bin/../lib/gcc/pic32mx/4.5.2/../../../../pic32mx/lib\libc.a(_flsbuf_simple.o)
 .debug_str     0x00003b40        0x0 c:/program files/microchip/xc32/v1.30-tc9/bin/../lib/gcc/pic32mx/4.5.2/../../../../pic32mx/lib\libpic32.a(sbrk.o)
 .debug_str     0x00003b40        0x0 c:/program files/microchip/xc32/v1.30-tc9/bin/../lib/gcc/pic32mx/4.5.2/../../../../pic32mx/lib\libpic32.a(write.o)
 .debug_str     0x00003b40        0x0 c:/program files/microchip/xc32/v1.30-tc9/bin/../lib/gcc/pic32mx/4.5.2/../../../../pic32mx/lib\libpic32.a(errno.o)
 .debug_str     0x00003b40        0x0 c:/program files/microchip/xc32/v1.30-tc9/bin/../lib/gcc/pic32mx/4.5.2/../../../../pic32mx/lib\libpic32.a(_mon_putc.o)
 .debug_str     0x00003b40        0x0 c:/program files/microchip/xc32/v1.30-tc9/bin/../lib/gcc/pic32mx/4.5.2/../../../../pic32mx/lib\libpic32.a(xc32_uart.o)
 .debug_str     0x00003b40        0x0 c:/program files/microchip/xc32/v1.30-tc9/bin/../lib/gcc/pic32mx/4.5.2/../../../../pic32mx/lib\libe.a(_floatdisf.o)
 .debug_str     0x00003b40        0x0 c:/program files/microchip/xc32/v1.30-tc9/bin/../lib/gcc/pic32mx/4.5.2\libgcc.a(_floatundisf.o)
 .debug_str     0x00003b40        0x0 c:/program files/microchip/xc32/v1.30-tc9/bin/../lib/gcc/pic32mx/4.5.2\libgcc.a(_umoddi3.o)

.debug_loc      0x00000000     0x1440
 *(.debug_loc)
 .debug_loc     0x00000000      0x9f9 c:/program files/microchip/xc32/v1.30-tc9/bin/../lib/gcc/pic32mx/4.5.2\libgcc.a(_udivdi3.o)
 .debug_loc     0x000009f9       0x68 c:/program files/microchip/xc32/v1.30-tc9/bin/../lib/gcc/pic32mx/4.5.2\libgcc.a(floatunsisf.o)
 .debug_loc     0x00000a61       0xc9 c:/program files/microchip/xc32/v1.30-tc9/bin/../lib/gcc/pic32mx/4.5.2\libgcc.a(_floatundisf.o)
 .debug_loc     0x00000b2a      0x916 c:/program files/microchip/xc32/v1.30-tc9/bin/../lib/gcc/pic32mx/4.5.2\libgcc.a(_umoddi3.o)

.debug_macinfo
 *(.debug_macinfo)

.debug_weaknames
 *(.debug_weaknames)

.debug_funcnames
 *(.debug_funcnames)

.debug_typenames
 *(.debug_typenames)

.debug_varnames
 *(.debug_varnames)

.debug_pubtypes
                0x00000000     0x8520
 *(.debug_pubtypes)
 .debug_pubtypes
                0x00000000      0x36f build/pic32mx_eth_sk_int_dyn/production/_ext/1951764757/system_init.o
 .debug_pubtypes
                0x0000036f      0x10a build/pic32mx_eth_sk_int_dyn/production/_ext/1951764757/system_init_private.o
 .debug_pubtypes
                0x00000479       0x5c build/pic32mx_eth_sk_int_dyn/production/_ext/1951764757/system_int.o
 .debug_pubtypes
                0x000004d5       0x1f build/pic32mx_eth_sk_int_dyn/production/_ext/1951764757/system_tasks.o
 .debug_pubtypes
                0x000004f4      0x124 build/pic32mx_eth_sk_int_dyn/production/_ext/1360937237/app.o
 .debug_pubtypes
                0x00000618       0x31 build/pic32mx_eth_sk_int_dyn/production/_ext/1951764757/bsp_sys_init.o
 .debug_pubtypes
                0x00000649       0x38 build/pic32mx_eth_sk_int_dyn/production/_ext/377798159/config_performance.o
 .debug_pubtypes
                0x00000681      0x6bd build/pic32mx_eth_sk_int_dyn/production/_ext/1697634946/drv_ethmac.o
 .debug_pubtypes
                0x00000d3e      0x5da build/pic32mx_eth_sk_int_dyn/production/_ext/1697634946/drv_ethmac_lib.o
 .debug_pubtypes
                0x00001318      0x33a build/pic32mx_eth_sk_int_dyn/production/_ext/521481140/drv_ethphy.o
 .debug_pubtypes
                0x00001652       0xc9 build/pic32mx_eth_sk_int_dyn/production/_ext/521481140/drv_extphy_dp83848.o
 .debug_pubtypes
                0x0000171b      0x231 build/pic32mx_eth_sk_int_dyn/production/_ext/184581597/drv_nvm.o
 .debug_pubtypes
                0x0000194c      0x1b4 build/pic32mx_eth_sk_int_dyn/production/_ext/184581597/drv_nvm_media.o
 .debug_pubtypes
                0x00001b00       0x1f build/pic32mx_eth_sk_int_dyn/production/_ext/2138650627/db_appio.o
 .debug_pubtypes
                0x00001b1f      0x15d build/pic32mx_eth_sk_int_dyn/production/_ext/2138650627/usart.o
 .debug_pubtypes
                0x00001c7c      0x147 build/pic32mx_eth_sk_int_dyn/production/_ext/1104573755/plib_eth_legacy.o
 .debug_pubtypes
                0x00001dc3       0x12 build/pic32mx_eth_sk_int_dyn/production/_ext/198928529/plib_int_pic32.o
 .debug_pubtypes
                0x00001dd5      0x11c build/pic32mx_eth_sk_int_dyn/production/_ext/52938249/sys_clk_pic32.o
 .debug_pubtypes
                0x00001ef1      0x120 build/pic32mx_eth_sk_int_dyn/production/_ext/52938249/sys_clk.o
 .debug_pubtypes
                0x00002011      0x1a3 build/pic32mx_eth_sk_int_dyn/production/_ext/1750042194/sys_fs.o
 .debug_pubtypes
                0x000021b4      0x282 build/pic32mx_eth_sk_int_dyn/production/_ext/1750042194/sys_fs_media_manager.o
 .debug_pubtypes
                0x00002436       0xfb build/pic32mx_eth_sk_int_dyn/production/_ext/614935175/mpfs.o
 .debug_pubtypes
                0x00002531       0xf4 build/pic32mx_eth_sk_int_dyn/production/_ext/1964723635/ff.o
 .debug_pubtypes
                0x00002625       0x6b build/pic32mx_eth_sk_int_dyn/production/_ext/732200470/diskio.o
 .debug_pubtypes
                0x00002690       0x5c build/pic32mx_eth_sk_int_dyn/production/_ext/1042686532/sys_int_pic32.o
 .debug_pubtypes
                0x000026ec      0x1a3 build/pic32mx_eth_sk_int_dyn/production/_ext/826631961/sys_ports.o
 .debug_pubtypes
                0x0000288f       0x57 build/pic32mx_eth_sk_int_dyn/production/_ext/693918571/sys_queue.o
 .debug_pubtypes
                0x000028e6       0x65 build/pic32mx_eth_sk_int_dyn/production/_ext/1886247299/big_int.o
 .debug_pubtypes
                0x0000294b       0x6d build/pic32mx_eth_sk_int_dyn/production/_ext/1886247299/hashes.o
 .debug_pubtypes
                0x000029b8       0x68 build/pic32mx_eth_sk_int_dyn/production/_ext/1886247299/helpers.o
 .debug_pubtypes
                0x00002a20       0x3e build/pic32mx_eth_sk_int_dyn/production/_ext/1886247299/lfsr.o
 .debug_pubtypes
                0x00002a5e       0xb0 build/pic32mx_eth_sk_int_dyn/production/_ext/1886247299/sys_fs_wrapper.o
 .debug_pubtypes
                0x00002b0e       0x1f build/pic32mx_eth_sk_int_dyn/production/_ext/1360937237/assert_to_ide.o
 .debug_pubtypes
                0x00002b2d       0x4e build/pic32mx_eth_sk_int_dyn/production/_ext/1360937237/mpfs_img2.o
 .debug_pubtypes
                0x00002b7b      0x3cb build/pic32mx_eth_sk_int_dyn/production/_ext/1360937237/custom_snmp_app.o
 .debug_pubtypes
                0x00002f46      0x14e build/pic32mx_eth_sk_int_dyn/production/_ext/1360937237/custom_http_app.o
 .debug_pubtypes
                0x00003094       0x57 build/pic32mx_eth_sk_int_dyn/production/_ext/1164207549/arcfour.o
 .debug_pubtypes
                0x000030eb      0x488 build/pic32mx_eth_sk_int_dyn/production/_ext/1164207549/arp.o
 .debug_pubtypes
                0x00003573       0x57 build/pic32mx_eth_sk_int_dyn/production/_ext/1164207549/berkeley_api.o
 .debug_pubtypes
                0x000035ca      0x3f3 build/pic32mx_eth_sk_int_dyn/production/_ext/1164207549/dhcp.o
 .debug_pubtypes
                0x000039bd       0x6c build/pic32mx_eth_sk_int_dyn/production/_ext/1164207549/dhcps.o
 .debug_pubtypes
                0x00003a29      0x258 build/pic32mx_eth_sk_int_dyn/production/_ext/1164207549/dns.o
 .debug_pubtypes
                0x00003c81       0x57 build/pic32mx_eth_sk_int_dyn/production/_ext/1164207549/dnss.o
 .debug_pubtypes
                0x00003cd8      0x31f build/pic32mx_eth_sk_int_dyn/production/_ext/1164207549/ftp.o
 .debug_pubtypes
                0x00003ff7       0x3a build/pic32mx_eth_sk_int_dyn/production/_ext/1164207549/hash_fnv.o
 .debug_pubtypes
                0x00004031      0x277 build/pic32mx_eth_sk_int_dyn/production/_ext/1164207549/http.o
 .debug_pubtypes
                0x000042a8      0x26b build/pic32mx_eth_sk_int_dyn/production/_ext/1164207549/icmp.o
 .debug_pubtypes
                0x00004513       0x57 build/pic32mx_eth_sk_int_dyn/production/_ext/1164207549/icmpv6.o
 .debug_pubtypes
                0x0000456a      0x365 build/pic32mx_eth_sk_int_dyn/production/_ext/1164207549/iperf.o
 .debug_pubtypes
                0x000048cf      0x345 build/pic32mx_eth_sk_int_dyn/production/_ext/1164207549/ipv4.o
 .debug_pubtypes
                0x00004c14       0x57 build/pic32mx_eth_sk_int_dyn/production/_ext/1164207549/ipv6.o
 .debug_pubtypes
                0x00004c6b      0x23a build/pic32mx_eth_sk_int_dyn/production/_ext/1164207549/nbns.o
 .debug_pubtypes
                0x00004ea5       0x57 build/pic32mx_eth_sk_int_dyn/production/_ext/1164207549/ndp.o
 .debug_pubtypes
                0x00004efc       0xe1 build/pic32mx_eth_sk_int_dyn/production/_ext/1164207549/oahash.o
 .debug_pubtypes
                0x00004fdd       0x57 build/pic32mx_eth_sk_int_dyn/production/_ext/1164207549/rsa.o
 .debug_pubtypes
                0x00005034      0x1cf build/pic32mx_eth_sk_int_dyn/production/_ext/1164207549/smtp.o
 .debug_pubtypes
                0x00005203      0x541 build/pic32mx_eth_sk_int_dyn/production/_ext/1164207549/snmp.o
 .debug_pubtypes
                0x00005744      0x41f build/pic32mx_eth_sk_int_dyn/production/_ext/1164207549/snmpv3.o
 .debug_pubtypes
                0x00005b63      0x2a4 build/pic32mx_eth_sk_int_dyn/production/_ext/1164207549/snmpv3_usm.o
 .debug_pubtypes
                0x00005e07      0x21a build/pic32mx_eth_sk_int_dyn/production/_ext/1164207549/sntp.o
 .debug_pubtypes
                0x00006021       0x57 build/pic32mx_eth_sk_int_dyn/production/_ext/1164207549/ssl.o
 .debug_pubtypes
                0x00006078      0x436 build/pic32mx_eth_sk_int_dyn/production/_ext/1164207549/tcp.o
 .debug_pubtypes
                0x000064ae      0x24e build/pic32mx_eth_sk_int_dyn/production/_ext/1164207549/tcpip_announce.o
 .debug_pubtypes
                0x000066fc      0x336 build/pic32mx_eth_sk_int_dyn/production/_ext/1164207549/tcpip_commands.o
 .debug_pubtypes
                0x00006a32      0x154 build/pic32mx_eth_sk_int_dyn/production/_ext/1164207549/tcpip_heap_alloc.o
 .debug_pubtypes
                0x00006b86      0x20e build/pic32mx_eth_sk_int_dyn/production/_ext/1164207549/tcpip_helpers.o
 .debug_pubtypes
                0x00006d94      0x1ab build/pic32mx_eth_sk_int_dyn/production/_ext/1164207549/tcpip_mac_object.o
 .debug_pubtypes
                0x00006f3f      0x670 build/pic32mx_eth_sk_int_dyn/production/_ext/1164207549/tcpip_manager.o
 .debug_pubtypes
                0x000075af       0x6c build/pic32mx_eth_sk_int_dyn/production/_ext/1164207549/tcpip_notify.o
 .debug_pubtypes
                0x0000761b      0x1ab build/pic32mx_eth_sk_int_dyn/production/_ext/1164207549/tcpip_packet.o
 .debug_pubtypes
                0x000077c6       0x57 build/pic32mx_eth_sk_int_dyn/production/_ext/1164207549/tcpip_reboot.o
 .debug_pubtypes
                0x0000781d      0x27b build/pic32mx_eth_sk_int_dyn/production/_ext/1164207549/telnet.o
 .debug_pubtypes
                0x00007a98      0x3f8 build/pic32mx_eth_sk_int_dyn/production/_ext/1164207549/udp.o
 .debug_pubtypes
                0x00007e90       0x57 build/pic32mx_eth_sk_int_dyn/production/_ext/1164207549/zero_conf_helper.o
 .debug_pubtypes
                0x00007ee7       0x6c build/pic32mx_eth_sk_int_dyn/production/_ext/1164207549/zero_conf_link_local.o
 .debug_pubtypes
                0x00007f53       0x57 build/pic32mx_eth_sk_int_dyn/production/_ext/1164207549/zero_conf_multicast_dns.o
 .debug_pubtypes
                0x00007faa       0x1f build/pic32mx_eth_sk_int_dyn/production/_ext/1418760511/pic32mz_ports.o
 .debug_pubtypes
                0x00007fc9      0x151 build/pic32mx_eth_sk_int_dyn/production/_ext/1418760511/system_command.o
 .debug_pubtypes
                0x0000811a      0x133 build/pic32mx_eth_sk_int_dyn/production/_ext/1418760511/system_debug.o
 .debug_pubtypes
                0x0000824d       0x77 build/pic32mx_eth_sk_int_dyn/production/_ext/1418760511/system_random.o
 .debug_pubtypes
                0x000082c4      0x117 build/pic32mx_eth_sk_int_dyn/production/_ext/1418760511/system_userio.o
 .debug_pubtypes
                0x000083db       0x1f build/pic32mx_eth_sk_int_dyn/production/_ext/1360937237/main.o
 .debug_pubtypes
                0x000083fa       0x59 c:/program files/microchip/xc32/v1.30-tc9/bin/../lib/gcc/pic32mx/4.5.2\libgcc.a(_udivdi3.o)
 .debug_pubtypes
                0x00008453       0x34 c:/program files/microchip/xc32/v1.30-tc9/bin/../lib/gcc/pic32mx/4.5.2\libgcc.a(floatunsisf.o)
 .debug_pubtypes
                0x00008487       0x40 c:/program files/microchip/xc32/v1.30-tc9/bin/../lib/gcc/pic32mx/4.5.2\libgcc.a(_floatundisf.o)
 .debug_pubtypes
                0x000084c7       0x59 c:/program files/microchip/xc32/v1.30-tc9/bin/../lib/gcc/pic32mx/4.5.2\libgcc.a(_umoddi3.o)

.debug_ranges   0x00000000       0x20
 *(.debug_ranges)
 .debug_ranges  0x00000000       0x10 c:/program files/microchip/xc32/v1.30-tc9/bin/../lib/gcc/pic32mx/4.5.2/../../../../pic32mx/lib\libmchp_peripheral_32MX795F512L.a(port_set_pins_digital_in_lib.o)
 .debug_ranges  0x00000010       0x10 c:/program files/microchip/xc32/v1.30-tc9/bin/../lib/gcc/pic32mx/4.5.2/../../../../pic32mx/lib\libmchp_peripheral_32MX795F512L.a(port_set_pins_digital_out_lib.o)

.gnu.attributes
                0x00000000       0x10
 *(.gnu.attributes)
 .gnu.attributes
                0x00000000       0x10 build/pic32mx_eth_sk_int_dyn/production/_ext/1951764757/system_init.o
 .gnu.attributes
                0x00000010       0x10 build/pic32mx_eth_sk_int_dyn/production/_ext/1951764757/system_init_private.o
 .gnu.attributes
                0x00000020       0x10 build/pic32mx_eth_sk_int_dyn/production/_ext/1951764757/system_int.o
 .gnu.attributes
                0x00000030       0x10 build/pic32mx_eth_sk_int_dyn/production/_ext/1951764757/system_tasks.o
 .gnu.attributes
                0x00000040       0x10 build/pic32mx_eth_sk_int_dyn/production/_ext/1360937237/app.o
 .gnu.attributes
                0x00000050       0x10 build/pic32mx_eth_sk_int_dyn/production/_ext/1951764757/bsp_sys_init.o
 .gnu.attributes
                0x00000060       0x10 build/pic32mx_eth_sk_int_dyn/production/_ext/377798159/config_performance.o
 .gnu.attributes
                0x00000070       0x10 build/pic32mx_eth_sk_int_dyn/production/_ext/1697634946/drv_ethmac.o
 .gnu.attributes
                0x00000080       0x10 build/pic32mx_eth_sk_int_dyn/production/_ext/1697634946/drv_ethmac_lib.o
 .gnu.attributes
                0x00000090       0x10 build/pic32mx_eth_sk_int_dyn/production/_ext/521481140/drv_ethphy.o
 .gnu.attributes
                0x000000a0       0x10 build/pic32mx_eth_sk_int_dyn/production/_ext/521481140/drv_extphy_dp83848.o
 .gnu.attributes
                0x000000b0       0x10 build/pic32mx_eth_sk_int_dyn/production/_ext/184581597/drv_nvm.o
 .gnu.attributes
                0x000000c0       0x10 build/pic32mx_eth_sk_int_dyn/production/_ext/184581597/drv_nvm_media.o
 .gnu.attributes
                0x000000d0       0x10 build/pic32mx_eth_sk_int_dyn/production/_ext/2138650627/db_appio.o
 .gnu.attributes
                0x000000e0       0x10 build/pic32mx_eth_sk_int_dyn/production/_ext/2138650627/usart.o
 .gnu.attributes
                0x000000f0       0x10 build/pic32mx_eth_sk_int_dyn/production/_ext/1104573755/plib_eth_legacy.o
 .gnu.attributes
                0x00000100       0x10 build/pic32mx_eth_sk_int_dyn/production/_ext/198928529/plib_int_pic32.o
 .gnu.attributes
                0x00000110       0x10 build/pic32mx_eth_sk_int_dyn/production/_ext/52938249/sys_clk_pic32.o
 .gnu.attributes
                0x00000120       0x10 build/pic32mx_eth_sk_int_dyn/production/_ext/52938249/sys_clk.o
 .gnu.attributes
                0x00000130       0x10 build/pic32mx_eth_sk_int_dyn/production/_ext/1750042194/sys_fs.o
 .gnu.attributes
                0x00000140       0x10 build/pic32mx_eth_sk_int_dyn/production/_ext/1750042194/sys_fs_media_manager.o
 .gnu.attributes
                0x00000150       0x10 build/pic32mx_eth_sk_int_dyn/production/_ext/614935175/mpfs.o
 .gnu.attributes
                0x00000160       0x10 build/pic32mx_eth_sk_int_dyn/production/_ext/1964723635/ff.o
 .gnu.attributes
                0x00000170       0x10 build/pic32mx_eth_sk_int_dyn/production/_ext/732200470/diskio.o
 .gnu.attributes
                0x00000180       0x10 build/pic32mx_eth_sk_int_dyn/production/_ext/1042686532/sys_int_pic32.o
 .gnu.attributes
                0x00000190       0x10 build/pic32mx_eth_sk_int_dyn/production/_ext/826631961/sys_ports.o
 .gnu.attributes
                0x000001a0       0x10 build/pic32mx_eth_sk_int_dyn/production/_ext/693918571/sys_queue.o
 .gnu.attributes
                0x000001b0       0x10 build/pic32mx_eth_sk_int_dyn/production/_ext/1886247299/big_int.o
 .gnu.attributes
                0x000001c0       0x10 build/pic32mx_eth_sk_int_dyn/production/_ext/1886247299/hashes.o
 .gnu.attributes
                0x000001d0       0x10 build/pic32mx_eth_sk_int_dyn/production/_ext/1886247299/helpers.o
 .gnu.attributes
                0x000001e0       0x10 build/pic32mx_eth_sk_int_dyn/production/_ext/1886247299/lfsr.o
 .gnu.attributes
                0x000001f0       0x10 build/pic32mx_eth_sk_int_dyn/production/_ext/1886247299/sys_fs_wrapper.o
 .gnu.attributes
                0x00000200       0x10 build/pic32mx_eth_sk_int_dyn/production/_ext/1360937237/assert_to_ide.o
 .gnu.attributes
                0x00000210       0x10 build/pic32mx_eth_sk_int_dyn/production/_ext/1360937237/mpfs_img2.o
 .gnu.attributes
                0x00000220       0x10 build/pic32mx_eth_sk_int_dyn/production/_ext/1360937237/custom_snmp_app.o
 .gnu.attributes
                0x00000230       0x10 build/pic32mx_eth_sk_int_dyn/production/_ext/1360937237/custom_http_app.o
 .gnu.attributes
                0x00000240       0x10 build/pic32mx_eth_sk_int_dyn/production/_ext/1164207549/arcfour.o
 .gnu.attributes
                0x00000250       0x10 build/pic32mx_eth_sk_int_dyn/production/_ext/1164207549/arp.o
 .gnu.attributes
                0x00000260       0x10 build/pic32mx_eth_sk_int_dyn/production/_ext/1164207549/berkeley_api.o
 .gnu.attributes
                0x00000270       0x10 build/pic32mx_eth_sk_int_dyn/production/_ext/1164207549/dhcp.o
 .gnu.attributes
                0x00000280       0x10 build/pic32mx_eth_sk_int_dyn/production/_ext/1164207549/dhcps.o
 .gnu.attributes
                0x00000290       0x10 build/pic32mx_eth_sk_int_dyn/production/_ext/1164207549/dns.o
 .gnu.attributes
                0x000002a0       0x10 build/pic32mx_eth_sk_int_dyn/production/_ext/1164207549/dnss.o
 .gnu.attributes
                0x000002b0       0x10 build/pic32mx_eth_sk_int_dyn/production/_ext/1164207549/ftp.o
 .gnu.attributes
                0x000002c0       0x10 build/pic32mx_eth_sk_int_dyn/production/_ext/1164207549/hash_fnv.o
 .gnu.attributes
                0x000002d0       0x10 build/pic32mx_eth_sk_int_dyn/production/_ext/1164207549/http.o
 .gnu.attributes
                0x000002e0       0x10 build/pic32mx_eth_sk_int_dyn/production/_ext/1164207549/icmp.o
 .gnu.attributes
                0x000002f0       0x10 build/pic32mx_eth_sk_int_dyn/production/_ext/1164207549/icmpv6.o
 .gnu.attributes
                0x00000300       0x10 build/pic32mx_eth_sk_int_dyn/production/_ext/1164207549/iperf.o
 .gnu.attributes
                0x00000310       0x10 build/pic32mx_eth_sk_int_dyn/production/_ext/1164207549/ipv4.o
 .gnu.attributes
                0x00000320       0x10 build/pic32mx_eth_sk_int_dyn/production/_ext/1164207549/ipv6.o
 .gnu.attributes
                0x00000330       0x10 build/pic32mx_eth_sk_int_dyn/production/_ext/1164207549/nbns.o
 .gnu.attributes
                0x00000340       0x10 build/pic32mx_eth_sk_int_dyn/production/_ext/1164207549/ndp.o
 .gnu.attributes
                0x00000350       0x10 build/pic32mx_eth_sk_int_dyn/production/_ext/1164207549/oahash.o
 .gnu.attributes
                0x00000360       0x10 build/pic32mx_eth_sk_int_dyn/production/_ext/1164207549/rsa.o
 .gnu.attributes
                0x00000370       0x10 build/pic32mx_eth_sk_int_dyn/production/_ext/1164207549/smtp.o
 .gnu.attributes
                0x00000380       0x10 build/pic32mx_eth_sk_int_dyn/production/_ext/1164207549/snmp.o
 .gnu.attributes
                0x00000390       0x10 build/pic32mx_eth_sk_int_dyn/production/_ext/1164207549/snmpv3.o
 .gnu.attributes
                0x000003a0       0x10 build/pic32mx_eth_sk_int_dyn/production/_ext/1164207549/snmpv3_usm.o
 .gnu.attributes
                0x000003b0       0x10 build/pic32mx_eth_sk_int_dyn/production/_ext/1164207549/sntp.o
 .gnu.attributes
                0x000003c0       0x10 build/pic32mx_eth_sk_int_dyn/production/_ext/1164207549/ssl.o
 .gnu.attributes
                0x000003d0       0x10 build/pic32mx_eth_sk_int_dyn/production/_ext/1164207549/tcp.o
 .gnu.attributes
                0x000003e0       0x10 build/pic32mx_eth_sk_int_dyn/production/_ext/1164207549/tcpip_announce.o
 .gnu.attributes
                0x000003f0       0x10 build/pic32mx_eth_sk_int_dyn/production/_ext/1164207549/tcpip_commands.o
 .gnu.attributes
                0x00000400       0x10 build/pic32mx_eth_sk_int_dyn/production/_ext/1164207549/tcpip_heap_alloc.o
 .gnu.attributes
                0x00000410       0x10 build/pic32mx_eth_sk_int_dyn/production/_ext/1164207549/tcpip_helpers.o
 .gnu.attributes
                0x00000420       0x10 build/pic32mx_eth_sk_int_dyn/production/_ext/1164207549/tcpip_mac_object.o
 .gnu.attributes
                0x00000430       0x10 build/pic32mx_eth_sk_int_dyn/production/_ext/1164207549/tcpip_manager.o
 .gnu.attributes
                0x00000440       0x10 build/pic32mx_eth_sk_int_dyn/production/_ext/1164207549/tcpip_notify.o
 .gnu.attributes
                0x00000450       0x10 build/pic32mx_eth_sk_int_dyn/production/_ext/1164207549/tcpip_packet.o
 .gnu.attributes
                0x00000460       0x10 build/pic32mx_eth_sk_int_dyn/production/_ext/1164207549/tcpip_reboot.o
 .gnu.attributes
                0x00000470       0x10 build/pic32mx_eth_sk_int_dyn/production/_ext/1164207549/telnet.o
 .gnu.attributes
                0x00000480       0x10 build/pic32mx_eth_sk_int_dyn/production/_ext/1164207549/udp.o
 .gnu.attributes
                0x00000490       0x10 build/pic32mx_eth_sk_int_dyn/production/_ext/1164207549/zero_conf_helper.o
 .gnu.attributes
                0x000004a0       0x10 build/pic32mx_eth_sk_int_dyn/production/_ext/1164207549/zero_conf_link_local.o
 .gnu.attributes
                0x000004b0       0x10 build/pic32mx_eth_sk_int_dyn/production/_ext/1164207549/zero_conf_multicast_dns.o
 .gnu.attributes
                0x000004c0       0x10 build/pic32mx_eth_sk_int_dyn/production/_ext/1418760511/pic32mz_ports.o
 .gnu.attributes
                0x000004d0       0x10 build/pic32mx_eth_sk_int_dyn/production/_ext/1418760511/system_command.o
 .gnu.attributes
                0x000004e0       0x10 build/pic32mx_eth_sk_int_dyn/production/_ext/1418760511/system_debug.o
 .gnu.attributes
                0x000004f0       0x10 build/pic32mx_eth_sk_int_dyn/production/_ext/1418760511/system_random.o
 .gnu.attributes
                0x00000500       0x10 build/pic32mx_eth_sk_int_dyn/production/_ext/1418760511/system_userio.o
 .gnu.attributes
                0x00000510       0x10 build/pic32mx_eth_sk_int_dyn/production/_ext/1360937237/main.o
 .gnu.attributes
                0x00000520       0x10 c:/program files/microchip/xc32/v1.30-tc9/bin/../lib/gcc/pic32mx/4.5.2/../../../../pic32mx/lib\libmchp_peripheral_32MX795F512L.a(port_set_pins_digital_in_lib.o)
 .gnu.attributes
                0x00000530       0x10 c:/program files/microchip/xc32/v1.30-tc9/bin/../lib/gcc/pic32mx/4.5.2/../../../../pic32mx/lib\libmchp_peripheral_32MX795F512L.a(port_set_pins_digital_out_lib.o)
 .gnu.attributes
                0x00000540       0x10 c:/program files/microchip/xc32/v1.30-tc9/bin/../lib/gcc/pic32mx/4.5.2/../../../../pic32mx/lib\libmchp_peripheral_32MX795F512L.a(_ports_tbl_libp.o)
 .gnu.attributes
                0x00000550       0x10 c:/program files/microchip/xc32/v1.30-tc9/bin/../lib/gcc/pic32mx/4.5.2\libgcc.a(_udivdi3.o)
 .gnu.attributes
                0x00000560       0x10 c:/program files/microchip/xc32/v1.30-tc9/bin/../lib/gcc/pic32mx/4.5.2\libgcc.a(floatunsisf.o)
 .gnu.attributes
                0x00000570       0x10 c:/program files/microchip/xc32/v1.30-tc9/bin/../lib/gcc/pic32mx/4.5.2/../../../../pic32mx/lib\libpic32.a(default-bootstrap-exception-handler.o)
 .gnu.attributes
                0x00000580       0x10 c:/program files/microchip/xc32/v1.30-tc9/bin/../lib/gcc/pic32mx/4.5.2/../../../../pic32mx/lib\libpic32.a(default-on-reset.o)
 .gnu.attributes
                0x00000590       0x10 c:/program files/microchip/xc32/v1.30-tc9/bin/../lib/gcc/pic32mx/4.5.2/../../../../pic32mx/lib\libpic32.a(default-on-bootstrap.o)
 .gnu.attributes
                0x000005a0       0x10 c:/program files/microchip/xc32/v1.30-tc9/bin/../lib/gcc/pic32mx/4.5.2/../../../../pic32mx/lib\libpic32.a(defaultinterrupt.o)
 .gnu.attributes
                0x000005b0       0x10 c:/program files/microchip/xc32/v1.30-tc9/bin/../lib/gcc/pic32mx/4.5.2/../../../../pic32mx/lib\libc.a(fassert.o)
 .gnu.attributes
                0x000005c0       0x10 c:/program files/microchip/xc32/v1.30-tc9/bin/../lib/gcc/pic32mx/4.5.2/../../../../pic32mx/lib\libc.a(atoi.o)
 .gnu.attributes
                0x000005d0       0x10 c:/program files/microchip/xc32/v1.30-tc9/bin/../lib/gcc/pic32mx/4.5.2/../../../../pic32mx/lib\libc.a(atol.o)
 .gnu.attributes
                0x000005e0       0x10 c:/program files/microchip/xc32/v1.30-tc9/bin/../lib/gcc/pic32mx/4.5.2/../../../../pic32mx/lib\libc.a(calloc.o)
 .gnu.attributes
                0x000005f0       0x10 c:/program files/microchip/xc32/v1.30-tc9/bin/../lib/gcc/pic32mx/4.5.2/../../../../pic32mx/lib\libc.a(ctype.o)
 .gnu.attributes
                0x00000600       0x10 c:/program files/microchip/xc32/v1.30-tc9/bin/../lib/gcc/pic32mx/4.5.2/../../../../pic32mx/lib\libc.a(malloc.o)
 .gnu.attributes
                0x00000610       0x10 c:/program files/microchip/xc32/v1.30-tc9/bin/../lib/gcc/pic32mx/4.5.2/../../../../pic32mx/lib\libc.a(rand.o)
 .gnu.attributes
                0x00000620       0x10 c:/program files/microchip/xc32/v1.30-tc9/bin/../lib/gcc/pic32mx/4.5.2/../../../../pic32mx/lib\libc.a(signal.o)
 .gnu.attributes
                0x00000630       0x10 c:/program files/microchip/xc32/v1.30-tc9/bin/../lib/gcc/pic32mx/4.5.2/../../../../pic32mx/lib\libc.a(strchr.o)
 .gnu.attributes
                0x00000640       0x10 c:/program files/microchip/xc32/v1.30-tc9/bin/../lib/gcc/pic32mx/4.5.2/../../../../pic32mx/lib\libc.a(strncat.o)
 .gnu.attributes
                0x00000650       0x10 c:/program files/microchip/xc32/v1.30-tc9/bin/../lib/gcc/pic32mx/4.5.2/../../../../pic32mx/lib\libc.a(strncmp.o)
 .gnu.attributes
                0x00000660       0x10 c:/program files/microchip/xc32/v1.30-tc9/bin/../lib/gcc/pic32mx/4.5.2/../../../../pic32mx/lib\libc.a(strncpy.o)
 .gnu.attributes
                0x00000670       0x10 c:/program files/microchip/xc32/v1.30-tc9/bin/../lib/gcc/pic32mx/4.5.2/../../../../pic32mx/lib\libc.a(strstr.o)
 .gnu.attributes
                0x00000680       0x10 c:/program files/microchip/xc32/v1.30-tc9/bin/../lib/gcc/pic32mx/4.5.2/../../../../pic32mx/lib\libc.a(strtok.o)
 .gnu.attributes
                0x00000690       0x10 c:/program files/microchip/xc32/v1.30-tc9/bin/../lib/gcc/pic32mx/4.5.2/../../../../pic32mx/lib\libc.a(exit.o)
 .gnu.attributes
                0x000006a0       0x10 c:/program files/microchip/xc32/v1.30-tc9/bin/../lib/gcc/pic32mx/4.5.2/../../../../pic32mx/lib\libc.a(fprintf_cdnopsuxX.eo)
 .gnu.attributes
                0x000006b0       0x10 c:/program files/microchip/xc32/v1.30-tc9/bin/../lib/gcc/pic32mx/4.5.2/../../../../pic32mx/lib\libc.a(snprintf_cdnopsuxX.eo)
 .gnu.attributes
                0x000006c0       0x10 c:/program files/microchip/xc32/v1.30-tc9/bin/../lib/gcc/pic32mx/4.5.2/../../../../pic32mx/lib\libc.a(sprintf_cdnopsuxX.eo)
 .gnu.attributes
                0x000006d0       0x10 c:/program files/microchip/xc32/v1.30-tc9/bin/../lib/gcc/pic32mx/4.5.2/../../../../pic32mx/lib\libc.a(vsnprintf_cdnopsuxX.eo)
 .gnu.attributes
                0x000006e0       0x10 c:/program files/microchip/xc32/v1.30-tc9/bin/../lib/gcc/pic32mx/4.5.2/../../../../pic32mx/lib\libc.a(vsnprintf.o)
 .gnu.attributes
                0x000006f0       0x10 c:/program files/microchip/xc32/v1.30-tc9/bin/../lib/gcc/pic32mx/4.5.2/../../../../pic32mx/lib\libc.a(_iob.o)
 .gnu.attributes
                0x00000700       0x10 c:/program files/microchip/xc32/v1.30-tc9/bin/../lib/gcc/pic32mx/4.5.2/../../../../pic32mx/lib\libc.a(stdclean_simple.o)
 .gnu.attributes
                0x00000710       0x10 c:/program files/microchip/xc32/v1.30-tc9/bin/../lib/gcc/pic32mx/4.5.2/../../../../pic32mx/lib\libc.a(strcspn.o)
 .gnu.attributes
                0x00000720       0x10 c:/program files/microchip/xc32/v1.30-tc9/bin/../lib/gcc/pic32mx/4.5.2/../../../../pic32mx/lib\libc.a(strspn.o)
 .gnu.attributes
                0x00000730       0x10 c:/program files/microchip/xc32/v1.30-tc9/bin/../lib/gcc/pic32mx/4.5.2/../../../../pic32mx/lib\libc.a(doprnt_cdnopsuxX.eo)
 .gnu.attributes
                0x00000740       0x10 c:/program files/microchip/xc32/v1.30-tc9/bin/../lib/gcc/pic32mx/4.5.2/../../../../pic32mx/lib\libc.a(doprnt.o)
 .gnu.attributes
                0x00000750       0x10 c:/program files/microchip/xc32/v1.30-tc9/bin/../lib/gcc/pic32mx/4.5.2/../../../../pic32mx/lib\libc.a(_fputc_simple.o)
 .gnu.attributes
                0x00000760       0x10 c:/program files/microchip/xc32/v1.30-tc9/bin/../lib/gcc/pic32mx/4.5.2/../../../../pic32mx/lib\libc.a(powersf.o)
 .gnu.attributes
                0x00000770       0x10 c:/program files/microchip/xc32/v1.30-tc9/bin/../lib/gcc/pic32mx/4.5.2/../../../../pic32mx/lib\libc.a(_flsbuf_simple.o)
 .gnu.attributes
                0x00000780       0x10 c:/program files/microchip/xc32/v1.30-tc9/bin/../lib/gcc/pic32mx/4.5.2/../../../../pic32mx/lib\libpic32.a(sbrk.o)
 .gnu.attributes
                0x00000790       0x10 c:/program files/microchip/xc32/v1.30-tc9/bin/../lib/gcc/pic32mx/4.5.2/../../../../pic32mx/lib\libpic32.a(write.o)
 .gnu.attributes
                0x000007a0       0x10 c:/program files/microchip/xc32/v1.30-tc9/bin/../lib/gcc/pic32mx/4.5.2/../../../../pic32mx/lib\libpic32.a(errno.o)
 .gnu.attributes
                0x000007b0       0x10 c:/program files/microchip/xc32/v1.30-tc9/bin/../lib/gcc/pic32mx/4.5.2/../../../../pic32mx/lib\libpic32.a(_mon_putc.o)
 .gnu.attributes
                0x000007c0       0x10 c:/program files/microchip/xc32/v1.30-tc9/bin/../lib/gcc/pic32mx/4.5.2/../../../../pic32mx/lib\libpic32.a(xc32_uart.o)
 .gnu.attributes
                0x000007d0       0x10 c:/program files/microchip/xc32/v1.30-tc9/bin/../lib/gcc/pic32mx/4.5.2/../../../../pic32mx/lib\libe.a(_floatdisf.o)
 .gnu.attributes
                0x000007e0       0x10 c:/program files/microchip/xc32/v1.30-tc9/bin/../lib/gcc/pic32mx/4.5.2\libgcc.a(_floatundisf.o)
 .gnu.attributes
                0x000007f0       0x10 c:/program files/microchip/xc32/v1.30-tc9/bin/../lib/gcc/pic32mx/4.5.2\libgcc.a(_umoddi3.o)
LOAD c:/program files/microchip/xc32/v1.30-tc9/bin/../lib/gcc/pic32mx/4.5.2\libgcc.a
START GROUP
LOAD c:/program files/microchip/xc32/v1.30-tc9/bin/../lib/gcc/pic32mx/4.5.2/../../../../pic32mx/lib\libpic32.a
LOAD c:/program files/microchip/xc32/v1.30-tc9/bin/../lib/gcc/pic32mx/4.5.2/../../../../pic32mx/lib\libdebug.a
LOAD c:/program files/microchip/xc32/v1.30-tc9/bin/../lib/gcc/pic32mx/4.5.2/../../../../pic32mx/lib\libm.a
LOAD c:/program files/microchip/xc32/v1.30-tc9/bin/../lib/gcc/pic32mx/4.5.2/../../../../pic32mx/lib\libe.a
LOAD c:/program files/microchip/xc32/v1.30-tc9/bin/../lib/gcc/pic32mx/4.5.2/../../../../pic32mx/lib\libdsp.a
LOAD c:/program files/microchip/xc32/v1.30-tc9/bin/../lib/gcc/pic32mx/4.5.2\libgcc.a
LOAD c:/program files/microchip/xc32/v1.30-tc9/bin/../lib/gcc/pic32mx/4.5.2/../../../../pic32mx/lib\libpic32.a
LOAD c:/program files/microchip/xc32/v1.30-tc9/bin/../lib/gcc/pic32mx/4.5.2/../../../../pic32mx/lib\libc.a
LOAD c:/program files/microchip/xc32/v1.30-tc9/bin/../lib/gcc/pic32mx/4.5.2/../../../../pic32mx/lib\libpic32.a
END GROUP
LOAD c:/program files/microchip/xc32/v1.30-tc9/bin/../lib/gcc/pic32mx/4.5.2\libgcc.a
OUTPUT(dist/pic32mx_eth_sk_int_dyn/production/pic32_esk.X.production.elf elf32-tradlittlemips)
LOAD stack
LOAD data_init

.reginfo        0x00000000       0x18
 .reginfo       0x00000000       0x18 c:/program files/microchip/xc32/v1.30-tc9/bin/../lib/gcc/pic32mx/4.5.2/../../../../pic32mx/lib/./proc/32MX795F512L/crt0_mips32r2.o

.stack          0xa00132f0      0x800
 .stack         0xa00132f0      0x800 stack

.bss            0xa0007154      0x358
 .bss           0xa0007154      0x358 build/pic32mx_eth_sk_int_dyn/production/_ext/1164207549/snmpv3_usm.o

.data           0xa00074ac      0x22c
 .data          0xa00074ac      0x22c build/pic32mx_eth_sk_int_dyn/production/_ext/1750042194/sys_fs_media_manager.o
                0xa00074ac                gSYSFSMediaManagerVar

.bss            0xa00076d8      0x220
 .bss           0xa00076d8      0x220 build/pic32mx_eth_sk_int_dyn/production/_ext/614935175/mpfs.o

.data           0xa00078f8      0x200
 .data          0xa00078f8      0x200 ..\..\..\..\..\framework\tcpip\src\crypto\aes_pic32mx.a(AES_ECB_PIC32.o)
                0xa00078f8                InvSbox
                0xa00079f8                Sbox

.bss            0xa0007af8      0x350
 .bss           0xa0007af8      0x134 build/pic32mx_eth_sk_int_dyn/production/_ext/1360937237/custom_http_app.o
 .bss           0xa0007c2c       0xc8 build/pic32mx_eth_sk_int_dyn/production/_ext/1164207549/iperf.o
 .bss           0xa0007cf4       0xb4 build/pic32mx_eth_sk_int_dyn/production/_ext/1418760511/system_command.o
 .bss           0xa0007da8       0xa0 build/pic32mx_eth_sk_int_dyn/production/_ext/1164207549/tcpip_manager.o

.data           0xa0007e48      0x134
 .data          0xa0007e48       0xa0 c:/program files/microchip/xc32/v1.30-tc9/bin/../lib/gcc/pic32mx/4.5.2/../../../../pic32mx/lib\libc.a(_iob.o)
                0xa0007e48                _iob
 .data          0xa0007ee8       0x94 build/pic32mx_eth_sk_int_dyn/production/_ext/1697634946/drv_ethmac.o

.bss            0xa0007f7c       0xf0
 .bss           0xa0007f7c       0x80 build/pic32mx_eth_sk_int_dyn/production/_ext/1418760511/system_userio.o
 .bss           0xa0007ffc       0x70 build/pic32mx_eth_sk_int_dyn/production/_ext/1418760511/system_random.o

.data           0xa000806c       0xc0
 .data          0xa000806c       0x60 build/pic32mx_eth_sk_int_dyn/production/_ext/1360937237/custom_snmp_app.o
 .data          0xa00080cc       0x60 build/pic32mx_eth_sk_int_dyn/production/_ext/1418760511/system_debug.o

.bss            0xa000812c       0x7c
 .bss           0xa000812c       0x40 c:/program files/microchip/xc32/v1.30-tc9/bin/../lib/gcc/pic32mx/4.5.2/../../../../pic32mx/lib\libc.a(_iob.o)
                0xa000812c                _sibuf
                0xa000814c                _sobuf
 .bss           0xa000816c       0x3c build/pic32mx_eth_sk_int_dyn/production/_ext/1164207549/arp.o

.data           0xa00081a8       0x30
 .data          0xa00081a8       0x30 build/pic32mx_eth_sk_int_dyn/production/_ext/52938249/sys_clk_pic32.o
                0xa00081a8                referenceClockSource
                0xa00081b8                systemClockSource
                0xa00081c8                usbClockSource

.bss            0xa00081d8       0x2c
 .bss           0xa00081d8       0x2c build/pic32mx_eth_sk_int_dyn/production/_ext/1164207549/smtp.o

.data           0xa0008204       0x38
 .data          0xa0008204       0x1c build/pic32mx_eth_sk_int_dyn/production/_ext/2138650627/usart.o
                0xa0008204                _usart_cdev_obj
 .data          0xa0008220       0x1c build/pic32mx_eth_sk_int_dyn/production/_ext/1164207549/ftp.o

.bss            0xa000823c       0x34
 .bss           0xa000823c       0x1c c:/program files/microchip/xc32/v1.30-tc9/bin/../lib/gcc/pic32mx/4.5.2/../../../../pic32mx/lib\libpic32.a(sbrk.o)
 .bss           0xa0008258       0x18 build/pic32mx_eth_sk_int_dyn/production/_ext/1164207549/ipv4.o

.data           0xa0008270       0x18
 .data          0xa0008270       0x18 build/pic32mx_eth_sk_int_dyn/production/_ext/1164207549/snmp.o

.bss            0xa0008288       0x74
 .bss           0xa0008288       0x18 build/pic32mx_eth_sk_int_dyn/production/_ext/1164207549/telnet.o
 .bss           0xa00082a0       0x18 c:/program files/microchip/xc32/v1.30-tc9/bin/../lib/gcc/pic32mx/4.5.2/../../../../pic32mx/lib\libc.a(signal.o)
 .bss           0xa00082b8       0x14 build/pic32mx_eth_sk_int_dyn/production/_ext/1360937237/custom_snmp_app.o
 .bss           0xa00082cc       0x10 build/pic32mx_eth_sk_int_dyn/production/_ext/1164207549/dns.o
 .bss           0xa00082dc       0x10 build/pic32mx_eth_sk_int_dyn/production/_ext/1164207549/sntp.o
 .bss           0xa00082ec       0x10 c:/program files/microchip/xc32/v1.30-tc9/bin/../lib/gcc/pic32mx/4.5.2/../../../../pic32mx/lib\libc.a(malloc.o)
                0xa00082ec                __allocs

.bss            0xa0008300       0x34
 .bss           0xa0008300       0x10 c:/program files/microchip/xc32/v1.30-tc9/bin/../lib/gcc/pic32mx/4.5.2/../../../../pic32mx/lib\libc.a(rand.o)
 .bss           0xa0008310        0xc build/pic32mx_eth_sk_int_dyn/production/_ext/1164207549/dhcp.o
 .bss           0xa000831c        0xc build/pic32mx_eth_sk_int_dyn/production/_ext/1164207549/snmp.o
 .bss           0xa0008328        0xc build/pic32mx_eth_sk_int_dyn/production/_ext/1164207549/udp.o

.bss            0xa00082fc        0x4
 .bss           0xa00082fc        0x4 c:/program files/microchip/xc32/v1.30-tc9/bin/../lib/gcc/pic32mx/4.5.2/../../../../pic32mx/lib\libc.a(strtok.o)

.rodata         0x9d000000     0xa134
 .rodata        0x9d000000     0x7114 build/pic32mx_eth_sk_int_dyn/production/_ext/1360937237/mpfs_img2.o
                0x9d000000                MPFS_IMAGE_DATA
 .rodata        0x9d007114     0x3020 ..\..\..\..\..\framework\tcpip\src\crypto\aes_pic32mx.a(AES_ECB_PIC32.o)

.text.TCPIP_SNMPv3_V3MsgDataProcess
                0x9d00a134     0x2804
 .text.TCPIP_SNMPv3_V3MsgDataProcess
                0x9d00a134     0x2804 build/pic32mx_eth_sk_int_dyn/production/_ext/1164207549/snmpv3.o
                0x9d00a134                TCPIP_SNMPv3_V3MsgDataProcess

.text.TCPIP_SNMP_ProcessVariables
                0x9d00c938     0x229c
 .text.TCPIP_SNMP_ProcessVariables
                0x9d00c938     0x229c build/pic32mx_eth_sk_int_dyn/production/_ext/1164207549/snmp.o

.text.vfprintf  0x9d00ebd4     0x1bb0
 .text.vfprintf
                0x9d00ebd4     0x1bb0 c:/program files/microchip/xc32/v1.30-tc9/bin/../lib/gcc/pic32mx/4.5.2/../../../../pic32mx/lib\libc.a(doprnt.o)
                0x9d00ebd4                vfprintf

.text._TcpHandleSeg
                0x9d010784     0x16f0
 .text._TcpHandleSeg
                0x9d010784     0x16f0 build/pic32mx_eth_sk_int_dyn/production/_ext/1164207549/tcp.o

.text.TCPIP_SMTP_ClientTask
                0x9d011e74     0x1674
 .text.TCPIP_SMTP_ClientTask
                0x9d011e74     0x1674 build/pic32mx_eth_sk_int_dyn/production/_ext/1164207549/smtp.o
                0x9d011e74                TCPIP_SMTP_ClientTask

.text.TCPIP_HTTP_Process
                0x9d0134e8     0x163c
 .text.TCPIP_HTTP_Process
                0x9d0134e8     0x163c build/pic32mx_eth_sk_int_dyn/production/_ext/1164207549/http.o

.text.TCPIP_DNS_ClientTask
                0x9d014b24     0x1180
 .text.TCPIP_DNS_ClientTask
                0x9d014b24     0x1180 build/pic32mx_eth_sk_int_dyn/production/_ext/1164207549/dns.o
                0x9d014b24                TCPIP_DNS_ClientTask

.text.TCPIP_SNMP_Notify
                0x9d015ca4     0x1098
 .text.TCPIP_SNMP_Notify
                0x9d015ca4     0x1098 build/pic32mx_eth_sk_int_dyn/production/_ext/1164207549/snmp.o
                0x9d015ca4                TCPIP_SNMP_Notify

.text.SYS_FS_MEDIA_MANAGER_Tasks
                0x9d016d3c      0xf64
 .text.SYS_FS_MEDIA_MANAGER_Tasks
                0x9d016d3c      0xf64 build/pic32mx_eth_sk_int_dyn/production/_ext/1750042194/sys_fs_media_manager.o
                0x9d016d3c                SYS_FS_MEDIA_MANAGER_Tasks

.text.TCPIP_SNMPv3_TrapScopedPDU
                0x9d017ca0      0xf60
 .text.TCPIP_SNMPv3_TrapScopedPDU
                0x9d017ca0      0xf60 build/pic32mx_eth_sk_int_dyn/production/_ext/1164207549/snmpv3.o
                0x9d017ca0                TCPIP_SNMPv3_TrapScopedPDU

.text.TCPIP_SNMPv3_Notify
                0x9d018c00      0xec0
 .text.TCPIP_SNMPv3_Notify
                0x9d018c00      0xec0 build/pic32mx_eth_sk_int_dyn/production/_ext/1164207549/snmpv3.o
                0x9d018c00                TCPIP_SNMPv3_Notify

.text.TCPIP_HTTP_FileSend
                0x9d019ac0      0xe38
 .text.TCPIP_HTTP_FileSend
                0x9d019ac0      0xe38 build/pic32mx_eth_sk_int_dyn/production/_ext/1164207549/http.o

.rodata         0x9d01a8f8      0xe1c
 .rodata        0x9d01a8f8      0xe1c build/pic32mx_eth_sk_int_dyn/production/_ext/1164207549/tcpip_commands.o

.text           0x9d01b714      0xe10
 .text          0x9d01b714      0xe10 ..\..\..\..\..\framework\tcpip\src\crypto\aes_pic32mx.a(AES_ECB_PIC32.o)
                0x9d01b714                AESCreateSessionKey
                0x9d01bbb0                AESCreateRoundKeys
                0x9d01bbc4                AESECBEncryptBlock
                0x9d01c074                AESECBDecryptBlock

.text.TCPIP_SNMPv3_UserSecurityModelProcessPDU
                0x9d01c524      0xd8c
 .text.TCPIP_SNMPv3_UserSecurityModelProcessPDU
                0x9d01c524      0xd8c build/pic32mx_eth_sk_int_dyn/production/_ext/1164207549/snmpv3.o
                0x9d01c524                TCPIP_SNMPv3_UserSecurityModelProcessPDU

.text.SNMPGetVar
                0x9d01d2b0      0xb9c
 .text.SNMPGetVar
                0x9d01d2b0      0xb9c build/pic32mx_eth_sk_int_dyn/production/_ext/1360937237/custom_snmp_app.o
                0x9d01d2b0                SNMPGetVar

.text.TCPIP_DHCP_Task
                0x9d01de4c      0xb90
 .text.TCPIP_DHCP_Task
                0x9d01de4c      0xb90 build/pic32mx_eth_sk_int_dyn/production/_ext/1164207549/dhcp.o
                0x9d01de4c                TCPIP_DHCP_Task

.text.CommandIperfStart
                0x9d01e9dc      0xb74
 .text.CommandIperfStart
                0x9d01e9dc      0xb74 build/pic32mx_eth_sk_int_dyn/production/_ext/1164207549/iperf.o

.text.HTTPPostEmail
                0x9d01f550      0xb60
 .text.HTTPPostEmail
                0x9d01f550      0xb60 build/pic32mx_eth_sk_int_dyn/production/_ext/1360937237/custom_http_app.o

.dinit          0x9d0200b0      0xb50
 .dinit         0x9d0200b0      0xb50 data_init

.text.SNMPSetVar
                0x9d020c00      0xb4c
 .text.SNMPSetVar
                0x9d020c00      0xb4c build/pic32mx_eth_sk_int_dyn/production/_ext/1360937237/custom_snmp_app.o
                0x9d020c00                SNMPSetVar

.text.TCPIP_SNMPv3_TrapMsgHeaderPDU
                0x9d02174c      0xaf8
 .text.TCPIP_SNMPv3_TrapMsgHeaderPDU
                0x9d02174c      0xaf8 build/pic32mx_eth_sk_int_dyn/production/_ext/1164207549/snmpv3.o
                0x9d02174c                TCPIP_SNMPv3_TrapMsgHeaderPDU

.text._vfprintf_cdnopsuxX
                0x9d022244      0xad0
 .text._vfprintf_cdnopsuxX
                0x9d022244      0xad0 c:/program files/microchip/xc32/v1.30-tc9/bin/../lib/gcc/pic32mx/4.5.2/../../../../pic32mx/lib\libc.a(doprnt_cdnopsuxX.eo)
                0x9d022244                _vfprintf_cdnopsuxX
                0x9d022244                _vfprintf_cdnopuxX

.text.TCPIP_SNMP_ProcessGetBulkVar
                0x9d022d14      0xa84
 .text.TCPIP_SNMP_ProcessGetBulkVar
                0x9d022d14      0xa84 build/pic32mx_eth_sk_int_dyn/production/_ext/1164207549/snmp.o
                0x9d022d14                TCPIP_SNMP_ProcessGetBulkVar

.text._TcpSend  0x9d023798      0xa08
 .text._TcpSend
                0x9d023798      0xa08 build/pic32mx_eth_sk_int_dyn/production/_ext/1164207549/tcp.o

.text.TCPIP_FTP_CmdsExecute
                0x9d0241a0      0x9c4
 .text.TCPIP_FTP_CmdsExecute
                0x9d0241a0      0x9c4 build/pic32mx_eth_sk_int_dyn/production/_ext/1164207549/ftp.o

.text.TCPIP_TCP_FifoSizeAdjust
                0x9d024b64      0x974
 .text.TCPIP_TCP_FifoSizeAdjust
                0x9d024b64      0x974 build/pic32mx_eth_sk_int_dyn/production/_ext/1164207549/tcp.o
                0x9d024b64                TCPIP_TCP_FifoSizeAdjust

.text.DRV_ETHMAC_PIC32MACSetup
                0x9d0254d8      0x964
 .text.DRV_ETHMAC_PIC32MACSetup
                0x9d0254d8      0x964 build/pic32mx_eth_sk_int_dyn/production/_ext/1697634946/drv_ethmac.o
                0x9d0254d8                DRV_ETHMAC_PIC32MACSetup

.rodata         0x9d025e3c      0x928
 .rodata        0x9d025e3c      0x928 build/pic32mx_eth_sk_int_dyn/production/_ext/1164207549/iperf.o

.text.TCPIP_SNMP_ProcessGetNextVar
                0x9d026764      0x928
 .text.TCPIP_SNMP_ProcessGetNextVar
                0x9d026764      0x928 build/pic32mx_eth_sk_int_dyn/production/_ext/1164207549/snmp.o
                0x9d026764                TCPIP_SNMP_ProcessGetNextVar

.text           0x9d02708c      0x8ec
 .text          0x9d02708c      0x8ec c:/program files/microchip/xc32/v1.30-tc9/bin/../lib/gcc/pic32mx/4.5.2/../../../../pic32mx/lib\libm.a(fp32.o)
                0x9d02708c                __subsf3
                0x9d02708c                fpsub
                0x9d027094                fpadd
                0x9d027094                __addsf3
                0x9d027300                fpmul
                0x9d027300                __mulsf3
                0x9d0274b8                __divsf3
                0x9d0274b8                fpdiv
                0x9d0276e4                litofp
                0x9d0276e4                sitofp
                0x9d0276e4                __floatsisf
                0x9d027740                ultofp
                0x9d027740                uitofp
                0x9d02778c                fptosi
                0x9d02778c                fptoli
                0x9d02778c                __fixsfsi
                0x9d027804                fptoui
                0x9d027804                fptoul
                0x9d027804                __fixunssfsi
                0x9d027878                __nesf2
                0x9d027878                fpcmp
                0x9d027878                __lesf2
                0x9d027878                __ltsf2
                0x9d027878                __gesf2
                0x9d027878                __eqsf2
                0x9d027878                __gtsf2
                0x9d02790c                fabsf
                0x9d02790c                fpfabs
                0x9d02791c                __negsf2
                0x9d02792c                fpnan
                0x9d02792c                nanf

.text.TCPIP_SNMP_ProcessSetVar
                0x9d027978      0x888
 .text.TCPIP_SNMP_ProcessSetVar
                0x9d027978      0x888 build/pic32mx_eth_sk_int_dyn/production/_ext/1164207549/snmp.o
                0x9d027978                TCPIP_SNMP_ProcessSetVar

.text.SNMPV2TrapDemo
                0x9d028200      0x7bc
 .text.SNMPV2TrapDemo
                0x9d028200      0x7bc build/pic32mx_eth_sk_int_dyn/production/_ext/1360937237/custom_snmp_app.o
                0x9d028200                SNMPV2TrapDemo

.text.TCPIP_SNMP_ProcessPDUHeader
                0x9d0289bc      0x7ac
 .text.TCPIP_SNMP_ProcessPDUHeader
                0x9d0289bc      0x7ac build/pic32mx_eth_sk_int_dyn/production/_ext/1164207549/snmp.o

.text.TCPIP_SNMP_OIDFindInMgmtInfoBase
                0x9d029168      0x7a4
 .text.TCPIP_SNMP_OIDFindInMgmtInfoBase
                0x9d029168      0x7a4 build/pic32mx_eth_sk_int_dyn/production/_ext/1164207549/snmp.o
                0x9d029168                TCPIP_SNMP_OIDFindInMgmtInfoBase

.text.StateMachineUdpRx
                0x9d02990c      0x758
 .text.StateMachineUdpRx
                0x9d02990c      0x758 build/pic32mx_eth_sk_int_dyn/production/_ext/1164207549/iperf.o

.text.TCPIP_TCP_Tick
                0x9d02a064      0x758
 .text.TCPIP_TCP_Tick
                0x9d02a064      0x758 build/pic32mx_eth_sk_int_dyn/production/_ext/1164207549/tcp.o
                0x9d02a064                TCPIP_TCP_Tick

.text.TCPIP_NBNS_Task
                0x9d02a7bc      0x750
 .text.TCPIP_NBNS_Task
                0x9d02a7bc      0x750 build/pic32mx_eth_sk_int_dyn/production/_ext/1164207549/nbns.o
                0x9d02a7bc                TCPIP_NBNS_Task

.text._DHCPReceive
                0x9d02af0c      0x748
 .text._DHCPReceive
                0x9d02af0c      0x748 build/pic32mx_eth_sk_int_dyn/production/_ext/1164207549/dhcp.o

.text.TCPIP_FTP_FilePut
                0x9d02b654      0x6e4
 .text.TCPIP_FTP_FilePut
                0x9d02b654      0x6e4 build/pic32mx_eth_sk_int_dyn/production/_ext/1164207549/ftp.o

.text.TCPIP_SNMPv3_MsgProcessingModelProcessPDU
                0x9d02bd38      0x6bc
 .text.TCPIP_SNMPv3_MsgProcessingModelProcessPDU
                0x9d02bd38      0x6bc build/pic32mx_eth_sk_int_dyn/production/_ext/1164207549/snmpv3.o
                0x9d02bd38                TCPIP_SNMPv3_MsgProcessingModelProcessPDU

.text.GenericTxStart
                0x9d02c3f4      0x680
 .text.GenericTxStart
                0x9d02c3f4      0x680 build/pic32mx_eth_sk_int_dyn/production/_ext/1164207549/iperf.o

.text.HTTPPostConfig
                0x9d02ca74      0x67c
 .text.HTTPPostConfig
                0x9d02ca74      0x67c build/pic32mx_eth_sk_int_dyn/production/_ext/1360937237/custom_http_app.o

.text._DHCPSend
                0x9d02d0f0      0x668
 .text._DHCPSend
                0x9d02d0f0      0x668 build/pic32mx_eth_sk_int_dyn/production/_ext/1164207549/dhcp.o

.text.TCPIP_SNTP_Client
                0x9d02d758      0x65c
 .text.TCPIP_SNTP_Client
                0x9d02d758      0x65c build/pic32mx_eth_sk_int_dyn/production/_ext/1164207549/sntp.o
                0x9d02d758                TCPIP_SNTP_Client

.text.CommandArp
                0x9d02ddb4      0x650
 .text.CommandArp
                0x9d02ddb4      0x650 build/pic32mx_eth_sk_int_dyn/production/_ext/1164207549/tcpip_commands.o

.text.TCPIP_SNMPv3_ScopedPDUProcessing
                0x9d02e404      0x624
 .text.TCPIP_SNMPv3_ScopedPDUProcessing
                0x9d02e404      0x624 build/pic32mx_eth_sk_int_dyn/production/_ext/1164207549/snmpv3.o
                0x9d02e404                TCPIP_SNMPv3_ScopedPDUProcessing

.rodata         0x9d02ea28      0x61c
 .rodata        0x9d02ea28      0x61c build/pic32mx_eth_sk_int_dyn/production/_ext/1164207549/http.o

.text.ReportBW_Jitter_Loss
                0x9d02f044      0x614
 .text.ReportBW_Jitter_Loss
                0x9d02f044      0x614 build/pic32mx_eth_sk_int_dyn/production/_ext/1164207549/iperf.o

.text.SYS_FS_FileOpen
                0x9d02f658      0x5e8
 .text.SYS_FS_FileOpen
                0x9d02f658      0x5e8 build/pic32mx_eth_sk_int_dyn/production/_ext/1750042194/sys_fs.o
                0x9d02f658                SYS_FS_FileOpen

.text.DRV_ETHPHY_Setup
                0x9d02fc40      0x5e0
 .text.DRV_ETHPHY_Setup
                0x9d02fc40      0x5e0 build/pic32mx_eth_sk_int_dyn/production/_ext/521481140/drv_ethphy.o
                0x9d02fc40                DRV_ETHPHY_Setup

.text.TCPIP_SNMP_ProcessGetVar
                0x9d030220      0x5e0
 .text.TCPIP_SNMP_ProcessGetVar
                0x9d030220      0x5e0 build/pic32mx_eth_sk_int_dyn/production/_ext/1164207549/snmp.o
                0x9d030220                TCPIP_SNMP_ProcessGetVar

.text.HTTPPrint
                0x9d030800      0x5b8
 .text.HTTPPrint
                0x9d030800      0x5b8 build/pic32mx_eth_sk_int_dyn/production/_ext/1164207549/http.o
                0x9d030800                HTTPPrint

.text.TCPIP_TCP_ArrayFind
                0x9d030db8      0x578
 .text.TCPIP_TCP_ArrayFind
                0x9d030db8      0x578 build/pic32mx_eth_sk_int_dyn/production/_ext/1164207549/tcp.o
                0x9d030db8                TCPIP_TCP_ArrayFind

.text.TCPIP_SNMP_Task
                0x9d031330      0x544
 .text.TCPIP_SNMP_Task
                0x9d031330      0x544 build/pic32mx_eth_sk_int_dyn/production/_ext/1164207549/snmp.o
                0x9d031330                TCPIP_SNMP_Task

.text.SHA1Calculate
                0x9d031874      0x510
 .text.SHA1Calculate
                0x9d031874      0x510 build/pic32mx_eth_sk_int_dyn/production/_ext/1886247299/hashes.o
                0x9d031874                SHA1Calculate

.text           0x9d031d84      0x510
 .text          0x9d031d84      0x510 ..\..\..\..\..\framework\tcpip\src\crypto\aes_pic32mx.a(AES_CFB.o)
                0x9d031d84                AESCFBEncrypt
                0x9d032014                AESCFBDecrypt

.text.SHA1HashBlock
                0x9d032294      0x504
 .text.SHA1HashBlock
                0x9d032294      0x504 build/pic32mx_eth_sk_int_dyn/production/_ext/1886247299/hashes.o

.text.TCPIP_STACK_Initialize
                0x9d032798      0x4fc
 .text.TCPIP_STACK_Initialize
                0x9d032798      0x4fc build/pic32mx_eth_sk_int_dyn/production/_ext/1164207549/tcpip_manager.o
                0x9d032798                TCPIP_STACK_Initialize

.text.TCPIP_ARP_Initialize
                0x9d032c94      0x4ec
 .text.TCPIP_ARP_Initialize
                0x9d032c94      0x4ec build/pic32mx_eth_sk_int_dyn/production/_ext/1164207549/arp.o
                0x9d032c94                TCPIP_ARP_Initialize

.text.TCPIP_STACK_NetConfigSet
                0x9d033180      0x4d8
 .text.TCPIP_STACK_NetConfigSet
                0x9d033180      0x4d8 build/pic32mx_eth_sk_int_dyn/production/_ext/1164207549/tcpip_manager.o
                0x9d033180                TCPIP_STACK_NetConfigSet

.text.TCPIP_ANNOUNCE_Send
                0x9d033658      0x4c0
 .text.TCPIP_ANNOUNCE_Send
                0x9d033658      0x4c0 build/pic32mx_eth_sk_int_dyn/production/_ext/1164207549/tcpip_announce.o
                0x9d033658                TCPIP_ANNOUNCE_Send

.text.GenericTxEnd
                0x9d033b18      0x4b4
 .text.GenericTxEnd
                0x9d033b18      0x4b4 build/pic32mx_eth_sk_int_dyn/production/_ext/1164207549/iperf.o

driver          0x9d033fcc      0x488
 driver         0x9d033fcc      0x488 build/pic32mx_eth_sk_int_dyn/production/_ext/184581597/drv_nvm.o
                0x9d034030                _DRV_NVM_UnlockSequence
                0x9d0340c8                DRV_NVM_Initialize
                0x9d03420c                DRV_NVM_Deinitialize
                0x9d034278                DRV_NVM_Status
                0x9d0342a4                DRV_NVM_Open
                0x9d03441c                DRV_NVM_BufferStatus

.text.TCPIP_FTP_Server
                0x9d034454      0x478
 .text.TCPIP_FTP_Server
                0x9d034454      0x478 build/pic32mx_eth_sk_int_dyn/production/_ext/1164207549/ftp.o
                0x9d034454                TCPIP_FTP_Server

.text._TCPIP_HEAP_Free
                0x9d0348cc      0x474
 .text._TCPIP_HEAP_Free
                0x9d0348cc      0x474 build/pic32mx_eth_sk_int_dyn/production/_ext/1164207549/tcpip_heap_alloc.o
                0x9d0348cc                _TCPIP_HEAP_Free

.text.SNMPv3AuthenticateRxedPduForDataIntegrity
                0x9d034d40      0x468
 .text.SNMPv3AuthenticateRxedPduForDataIntegrity
                0x9d034d40      0x468 build/pic32mx_eth_sk_int_dyn/production/_ext/1164207549/snmpv3_usm.o
                0x9d034d40                SNMPv3AuthenticateRxedPduForDataIntegrity

.text           0x9d0351a8      0x464
 .text          0x9d0351a8      0x464 c:/program files/microchip/xc32/v1.30-tc9/bin/../lib/gcc/pic32mx/4.5.2\libgcc.a(_umoddi3.o)
                0x9d0351a8                __umoddi3

.text.DRV_ETHMAC_LibRxBuffersAppend
                0x9d03560c      0x460
 .text.DRV_ETHMAC_LibRxBuffersAppend
                0x9d03560c      0x460 build/pic32mx_eth_sk_int_dyn/production/_ext/1697634946/drv_ethmac_lib.o
                0x9d03560c                DRV_ETHMAC_LibRxBuffersAppend

.text.TCPIP_FTP_CmdList
                0x9d035a6c      0x45c
 .text.TCPIP_FTP_CmdList
                0x9d035a6c      0x45c build/pic32mx_eth_sk_int_dyn/production/_ext/1164207549/ftp.o

.text           0x9d035ec8      0x448
 .text          0x9d035ec8      0x448 c:/program files/microchip/xc32/v1.30-tc9/bin/../lib/gcc/pic32mx/4.5.2\libgcc.a(_udivdi3.o)
                0x9d035ec8                __udivdi3

.text.SNMPSendNotification
                0x9d036310      0x444
 .text.SNMPSendNotification
                0x9d036310      0x444 build/pic32mx_eth_sk_int_dyn/production/_ext/1360937237/custom_snmp_app.o

.text._Command_NetInfo
                0x9d036754      0x444
 .text._Command_NetInfo
                0x9d036754      0x444 build/pic32mx_eth_sk_int_dyn/production/_ext/1164207549/tcpip_commands.o

.text.CommandHelp
                0x9d036b98      0x430
 .text.CommandHelp
                0x9d036b98      0x430 build/pic32mx_eth_sk_int_dyn/production/_ext/1418760511/system_command.o

.text.TCPIP_HTTP_FileInclude
                0x9d036fc8      0x42c
 .text.TCPIP_HTTP_FileInclude
                0x9d036fc8      0x42c build/pic32mx_eth_sk_int_dyn/production/_ext/1164207549/http.o
                0x9d036fc8                TCPIP_HTTP_FileInclude

.rodata         0x9d0373f4      0x84c
 .rodata        0x9d0373f4      0x428 build/pic32mx_eth_sk_int_dyn/production/_ext/1104573755/plib_eth_legacy.o
 .rodata        0x9d03781c      0x424 build/pic32mx_eth_sk_int_dyn/production/_ext/1164207549/ftp.o

.text.TCPIP_FTP_ExecuteCmdGet
                0x9d037c40      0x418
 .text.TCPIP_FTP_ExecuteCmdGet
                0x9d037c40      0x418 build/pic32mx_eth_sk_int_dyn/production/_ext/1164207549/ftp.o

.rodata         0x9d038058      0x410
 .rodata        0x9d038058      0x410 build/pic32mx_eth_sk_int_dyn/production/_ext/1164207549/tcpip_manager.o

.text.DRV_ETHMAC_PIC32MACPacketRx
                0x9d038468      0x3fc
 .text.DRV_ETHMAC_PIC32MACPacketRx
                0x9d038468      0x3fc build/pic32mx_eth_sk_int_dyn/production/_ext/1697634946/drv_ethmac.o
                0x9d038468                DRV_ETHMAC_PIC32MACPacketRx

.text._TCP_Open
                0x9d038864      0x3fc
 .text._TCP_Open
                0x9d038864      0x3fc build/pic32mx_eth_sk_int_dyn/production/_ext/1164207549/tcp.o

.text._Command_StackOnOff
                0x9d038c60      0x3e4
 .text._Command_StackOnOff
                0x9d038c60      0x3e4 build/pic32mx_eth_sk_int_dyn/production/_ext/1164207549/tcpip_commands.o

.rodata         0x9d039044      0x3e0
 .rodata        0x9d039044      0x3e0 build/pic32mx_eth_sk_int_dyn/production/_ext/1360937237/custom_http_app.o
                0x9d039354                HTML_UP_ARROW
                0x9d039358                HTML_DOWN_ARROW

.text           0x9d039424      0x3dc
 .text          0x9d039424      0x3dc c:/program files/microchip/xc32/v1.30-tc9/bin/../lib/gcc/pic32mx/4.5.2/../../../../pic32mx/lib\libm.a(fpmod32.o)
                0x9d039424                fpfmod
                0x9d039424                fmodf
                0x9d039568                fpfrexp
                0x9d039568                frexpf
                0x9d0395ec                fpldexp
                0x9d0395ec                __mchp_ldexpf
                0x9d039730                modff
                0x9d039730                fpmodf

.text.StateMachineTcpRx
                0x9d039800      0x3cc
 .text.StateMachineTcpRx
                0x9d039800      0x3cc build/pic32mx_eth_sk_int_dyn/production/_ext/1164207549/iperf.o

.text.MPFS_Open
                0x9d039bcc      0x3c4
 .text.MPFS_Open
                0x9d039bcc      0x3c4 build/pic32mx_eth_sk_int_dyn/production/_ext/614935175/mpfs.o
                0x9d039bcc                MPFS_Open

.text.CommandDhcpOptions
                0x9d039f90      0x3c4
 .text.CommandDhcpOptions
                0x9d039f90      0x3c4 build/pic32mx_eth_sk_int_dyn/production/_ext/1164207549/tcpip_commands.o

.text.TCPIP_ARP_Task
                0x9d03a354      0x3ac
 .text.TCPIP_ARP_Task
                0x9d03a354      0x3ac build/pic32mx_eth_sk_int_dyn/production/_ext/1164207549/arp.o
                0x9d03a354                TCPIP_ARP_Task

.text.SYS_FS_Mount
                0x9d03a700      0x3a8
 .text.SYS_FS_Mount
                0x9d03a700      0x3a8 build/pic32mx_eth_sk_int_dyn/production/_ext/1750042194/sys_fs.o
                0x9d03a700                SYS_FS_Mount

.text.StateMachineUdpRxDone
                0x9d03aaa8      0x3a8
 .text.StateMachineUdpRxDone
                0x9d03aaa8      0x3a8 build/pic32mx_eth_sk_int_dyn/production/_ext/1164207549/iperf.o

.text._Command_NetworkOnOff
                0x9d03ae50      0x394
 .text._Command_NetworkOnOff
                0x9d03ae50      0x394 build/pic32mx_eth_sk_int_dyn/production/_ext/1164207549/tcpip_commands.o

.text.TCPIP_Helper_Base64Decode
                0x9d03b1e4      0x394
 .text.TCPIP_Helper_Base64Decode
                0x9d03b1e4      0x394 build/pic32mx_eth_sk_int_dyn/production/_ext/1164207549/tcpip_helpers.o
                0x9d03b1e4                TCPIP_Helper_Base64Decode

.text.TCPIP_STACK_BringNetUp
                0x9d03b578      0x380
 .text.TCPIP_STACK_BringNetUp
                0x9d03b578      0x380 build/pic32mx_eth_sk_int_dyn/production/_ext/1164207549/tcpip_manager.o

.text.TCPIP_IPV4_SelectSourceInterface
                0x9d03b8f8      0x37c
 .text.TCPIP_IPV4_SelectSourceInterface
                0x9d03b8f8      0x37c build/pic32mx_eth_sk_int_dyn/production/_ext/1164207549/ipv4.o
                0x9d03b8f8                TCPIP_IPV4_SelectSourceInterface

.text._TcpFindMatchingSocket
                0x9d03bc74      0x368
 .text._TcpFindMatchingSocket
                0x9d03bc74      0x368 build/pic32mx_eth_sk_int_dyn/production/_ext/1164207549/tcp.o

.text._SYS_COMMAND_TASK
                0x9d03bfdc      0x358
 .text._SYS_COMMAND_TASK
                0x9d03bfdc      0x358 build/pic32mx_eth_sk_int_dyn/production/_ext/1418760511/system_command.o
                0x9d03bfdc                _SYS_COMMAND_TASK

.text._Command_AddressService
                0x9d03c334      0x354
 .text._Command_AddressService
                0x9d03c334      0x354 build/pic32mx_eth_sk_int_dyn/production/_ext/1164207549/tcpip_commands.o

.text._UDPv4Flush
                0x9d03c688      0x354
 .text._UDPv4Flush
                0x9d03c688      0x354 build/pic32mx_eth_sk_int_dyn/production/_ext/1164207549/udp.o

.text.SNMPv3AuthenticateTxPduForDataIntegrity
                0x9d03c9dc      0x344
 .text.SNMPv3AuthenticateTxPduForDataIntegrity
                0x9d03c9dc      0x344 build/pic32mx_eth_sk_int_dyn/production/_ext/1164207549/snmpv3_usm.o
                0x9d03c9dc                SNMPv3AuthenticateTxPduForDataIntegrity

.text.HTTPPostMD5
                0x9d03cd20      0x340
 .text.HTTPPostMD5
                0x9d03cd20      0x340 build/pic32mx_eth_sk_int_dyn/production/_ext/1360937237/custom_http_app.o

.text._EthRxAckBuffer
                0x9d03d060      0x334
 .text._EthRxAckBuffer
                0x9d03d060      0x334 build/pic32mx_eth_sk_int_dyn/production/_ext/1697634946/drv_ethmac_lib.o

.text.MPFS_Stat
                0x9d03d394      0x330
 .text.MPFS_Stat
                0x9d03d394      0x330 build/pic32mx_eth_sk_int_dyn/production/_ext/614935175/mpfs.o
                0x9d03d394                MPFS_Stat

.text._EthAppendBusyList
                0x9d03d6c4      0x328
 .text._EthAppendBusyList
                0x9d03d6c4      0x328 build/pic32mx_eth_sk_int_dyn/production/_ext/1697634946/drv_ethmac_lib.o

.text.ETH_StationAddressSet_Default
                0x9d03d9ec      0x328
 .text.ETH_StationAddressSet_Default
                0x9d03d9ec      0x328 build/pic32mx_eth_sk_int_dyn/production/_ext/1104573755/plib_eth_legacy.o

.text.TCPIP_HTTP_Initialize
                0x9d03dd14      0x31c
 .text.TCPIP_HTTP_Initialize
                0x9d03dd14      0x31c build/pic32mx_eth_sk_int_dyn/production/_ext/1164207549/http.o
                0x9d03dd14                TCPIP_HTTP_Initialize

.text.TCPIP_Helper_StringToIPAddress
                0x9d03e030      0x31c
 .text.TCPIP_Helper_StringToIPAddress
                0x9d03e030      0x31c build/pic32mx_eth_sk_int_dyn/production/_ext/1164207549/tcpip_helpers.o
                0x9d03e030                TCPIP_Helper_StringToIPAddress

.text.SNMPv3UsmAesEncryptDecrptInitVector
                0x9d03e34c      0x314
 .text.SNMPv3UsmAesEncryptDecrptInitVector
                0x9d03e34c      0x314 build/pic32mx_eth_sk_int_dyn/production/_ext/1164207549/snmpv3_usm.o
                0x9d03e34c                SNMPv3UsmAesEncryptDecrptInitVector

.text.TCPIP_STACK_Task
                0x9d03e660      0x314
 .text.TCPIP_STACK_Task
                0x9d03e660      0x314 build/pic32mx_eth_sk_int_dyn/production/_ext/1164207549/tcpip_manager.o
                0x9d03e660                TCPIP_STACK_Task

.text._Command_IPAddressSet
                0x9d03e974      0x310
 .text._Command_IPAddressSet
                0x9d03e974      0x310 build/pic32mx_eth_sk_int_dyn/production/_ext/1164207549/tcpip_commands.o

.text.DRV_ETHPHY_NegotiationResultGet
                0x9d03ec84      0x308
 .text.DRV_ETHPHY_NegotiationResultGet
                0x9d03ec84      0x308 build/pic32mx_eth_sk_int_dyn/production/_ext/521481140/drv_ethphy.o
                0x9d03ec84                DRV_ETHPHY_NegotiationResultGet

.text.SNMPv3InitializeUserDataBase
                0x9d03ef8c      0x308
 .text.SNMPv3InitializeUserDataBase
                0x9d03ef8c      0x308 build/pic32mx_eth_sk_int_dyn/production/_ext/1164207549/snmpv3_usm.o
                0x9d03ef8c                SNMPv3InitializeUserDataBase

.text.DRV_ETHMAC_LibRxGetPacket
                0x9d03f294      0x300
 .text.DRV_ETHMAC_LibRxGetPacket
                0x9d03f294      0x300 build/pic32mx_eth_sk_int_dyn/production/_ext/1697634946/drv_ethmac_lib.o
                0x9d03f294                DRV_ETHMAC_LibRxGetPacket

.text.MD5Calculate
                0x9d03f594      0x300
 .text.MD5Calculate
                0x9d03f594      0x300 build/pic32mx_eth_sk_int_dyn/production/_ext/1886247299/hashes.o
                0x9d03f594                MD5Calculate

.text.SNMPv3USMAuthPrivPswdLocalization
                0x9d03f894      0x2f0
 .text.SNMPv3USMAuthPrivPswdLocalization
                0x9d03f894      0x2f0 build/pic32mx_eth_sk_int_dyn/production/_ext/1164207549/snmpv3_usm.o
                0x9d03f894                SNMPv3USMAuthPrivPswdLocalization

.text.TCPIP_TELNET_Task
                0x9d03fb84      0x2f0
 .text.TCPIP_TELNET_Task
                0x9d03fb84      0x2f0 build/pic32mx_eth_sk_int_dyn/production/_ext/1164207549/telnet.o
                0x9d03fb84                TCPIP_TELNET_Task

.text.TCPIP_SNMP_NextLeafGet
                0x9d03fe74      0x2ec
 .text.TCPIP_SNMP_NextLeafGet
                0x9d03fe74      0x2ec build/pic32mx_eth_sk_int_dyn/production/_ext/1164207549/snmp.o
                0x9d03fe74                TCPIP_SNMP_NextLeafGet

.rodata         0x9d040160      0x2e0
 .rodata        0x9d040160      0x2e0 build/pic32mx_eth_sk_int_dyn/production/_ext/52938249/sys_clk_pic32.o

.text._UDPOpen  0x9d040440      0x2e0
 .text._UDPOpen
                0x9d040440      0x2e0 build/pic32mx_eth_sk_int_dyn/production/_ext/1164207549/udp.o

.text.SYS_FS_FileStat
                0x9d040720      0x2dc
 .text.SYS_FS_FileStat
                0x9d040720      0x2dc build/pic32mx_eth_sk_int_dyn/production/_ext/1750042194/sys_fs.o
                0x9d040720                SYS_FS_FileStat

.text.StateMachineUDPTxOpen
                0x9d0409fc      0x2dc
 .text.StateMachineUDPTxOpen
                0x9d0409fc      0x2dc build/pic32mx_eth_sk_int_dyn/production/_ext/1164207549/iperf.o

.text.GenericTxHeaderPreparation
                0x9d040cd8      0x2d8
 .text.GenericTxHeaderPreparation
                0x9d040cd8      0x2d8 build/pic32mx_eth_sk_int_dyn/production/_ext/1164207549/iperf.o

.text.SNMPIdRecrdValidation
                0x9d040fb0      0x2d4
 .text.SNMPIdRecrdValidation
                0x9d040fb0      0x2d4 build/pic32mx_eth_sk_int_dyn/production/_ext/1360937237/custom_snmp_app.o
                0x9d040fb0                SNMPIdRecrdValidation

.text.StateMachineRxStart
                0x9d041284      0x2d0
 .text.StateMachineRxStart
                0x9d041284      0x2d0 build/pic32mx_eth_sk_int_dyn/production/_ext/1164207549/iperf.o

.text.ProcessEscSequence
                0x9d041554      0x2c8
 .text.ProcessEscSequence
                0x9d041554      0x2c8 build/pic32mx_eth_sk_int_dyn/production/_ext/1418760511/system_command.o

.text._EthAckPacket
                0x9d04181c      0x2c4
 .text._EthAckPacket
                0x9d04181c      0x2c4 build/pic32mx_eth_sk_int_dyn/production/_ext/1697634946/drv_ethmac_lib.o

.text._HTTP_ReadTo
                0x9d041ae0      0x2c4
 .text._HTTP_ReadTo
                0x9d041ae0      0x2c4 build/pic32mx_eth_sk_int_dyn/production/_ext/1164207549/http.o

.text.TCPIP_SNMP_MIBRecordRead
                0x9d041da4      0x2c4
 .text.TCPIP_SNMP_MIBRecordRead
                0x9d041da4      0x2c4 build/pic32mx_eth_sk_int_dyn/production/_ext/1164207549/snmp.o

.text.MD5HashBlock
                0x9d042068      0x2bc
 .text.MD5HashBlock
                0x9d042068      0x2bc build/pic32mx_eth_sk_int_dyn/production/_ext/1886247299/hashes.o

.text.TCPIP_Helper_Base64Encode
                0x9d042324      0x2b8
 .text.TCPIP_Helper_Base64Encode
                0x9d042324      0x2b8 build/pic32mx_eth_sk_int_dyn/production/_ext/1164207549/tcpip_helpers.o
                0x9d042324                TCPIP_Helper_Base64Encode

.text.ParseCmdBuffer
                0x9d0425dc      0x2b0
 .text.ParseCmdBuffer
                0x9d0425dc      0x2b0 build/pic32mx_eth_sk_int_dyn/production/_ext/1418760511/system_command.o

.text.TCPIP_TCP_ArrayPut
                0x9d04288c      0x2ac
 .text.TCPIP_TCP_ArrayPut
                0x9d04288c      0x2ac build/pic32mx_eth_sk_int_dyn/production/_ext/1164207549/tcp.o
                0x9d04288c                TCPIP_TCP_ArrayPut

.text.DRV_NVM_MEDIA_SectorWrite
                0x9d042b38      0x2a0
 .text.DRV_NVM_MEDIA_SectorWrite
                0x9d042b38      0x2a0 build/pic32mx_eth_sk_int_dyn/production/_ext/184581597/drv_nvm_media.o
                0x9d042b38                DRV_NVM_MEDIA_SectorWrite

.text.scale     0x9d042dd8      0x2a0
 .text.scale    0x9d042dd8      0x2a0 c:/program files/microchip/xc32/v1.30-tc9/bin/../lib/gcc/pic32mx/4.5.2/../../../../pic32mx/lib\libc.a(doprnt.o)

.text.StateMachineTCPTxOpen
                0x9d043078      0x298
 .text.StateMachineTCPTxOpen
                0x9d043078      0x298 build/pic32mx_eth_sk_int_dyn/production/_ext/1164207549/iperf.o

.text.TCPIP_IPV4_Process
                0x9d043310      0x298
 .text.TCPIP_IPV4_Process
                0x9d043310      0x298 build/pic32mx_eth_sk_int_dyn/production/_ext/1164207549/ipv4.o
                0x9d043310                TCPIP_IPV4_Process

.text._Command_HeapInfo
                0x9d0435a8      0x290
 .text._Command_HeapInfo
                0x9d0435a8      0x290 build/pic32mx_eth_sk_int_dyn/production/_ext/1164207549/tcpip_commands.o

.text.TCPIP_ARP_EntryRemoveNet
                0x9d043838      0x28c
 .text.TCPIP_ARP_EntryRemoveNet
                0x9d043838      0x28c build/pic32mx_eth_sk_int_dyn/production/_ext/1164207549/arp.o
                0x9d043838                TCPIP_ARP_EntryRemoveNet

.rodata         0x9d043ac4      0x28c
 .rodata        0x9d043ac4      0x28c build/pic32mx_eth_sk_int_dyn/production/_ext/1418760511/system_command.o
                0x9d043ad4                sysConsoleApi

.text.malloc    0x9d043d50      0x288
 .text.malloc   0x9d043d50      0x288 c:/program files/microchip/xc32/v1.30-tc9/bin/../lib/gcc/pic32mx/4.5.2/../../../../pic32mx/lib\libc.a(malloc.o)
                0x9d043d50                malloc

.text.DRV_NVM_Write
                0x9d043fd8      0x280
 .text.DRV_NVM_Write
                0x9d043fd8      0x280 build/pic32mx_eth_sk_int_dyn/production/_ext/184581597/drv_nvm.o
                0x9d043fd8                DRV_NVM_Write

.text.TCPIP_UDP_ProcessIPv4
                0x9d044258      0x278
 .text.TCPIP_UDP_ProcessIPv4
                0x9d044258      0x278 build/pic32mx_eth_sk_int_dyn/production/_ext/1164207549/udp.o
                0x9d044258                TCPIP_UDP_ProcessIPv4

.text.DRV_NVM_Erase
                0x9d0444d0      0x274
 .text.DRV_NVM_Erase
                0x9d0444d0      0x274 build/pic32mx_eth_sk_int_dyn/production/_ext/184581597/drv_nvm.o
                0x9d0444d0                DRV_NVM_Erase

.text.TCPIP_IPV4_PacketTransmit
                0x9d044744      0x268
 .text.TCPIP_IPV4_PacketTransmit
                0x9d044744      0x268 build/pic32mx_eth_sk_int_dyn/production/_ext/1164207549/ipv4.o
                0x9d044744                TCPIP_IPV4_PacketTransmit

.text._LoadDefaultConfig
                0x9d0449ac      0x268
 .text._LoadDefaultConfig
                0x9d0449ac      0x268 build/pic32mx_eth_sk_int_dyn/production/_ext/1164207549/tcpip_manager.o

.text.DRV_ETHMAC_LibTxSendPacket
                0x9d044c14      0x264
 .text.DRV_ETHMAC_LibTxSendPacket
                0x9d044c14      0x264 build/pic32mx_eth_sk_int_dyn/production/_ext/1697634946/drv_ethmac_lib.o
                0x9d044c14                DRV_ETHMAC_LibTxSendPacket

.text.MPFSGetArray
                0x9d044e78      0x260
 .text.MPFSGetArray
                0x9d044e78      0x260 build/pic32mx_eth_sk_int_dyn/production/_ext/614935175/mpfs.o
                0x9d044e78                MPFSGetArray

.text._DHCPStartOperation
                0x9d0450d8      0x260
 .text._DHCPStartOperation
                0x9d0450d8      0x260 build/pic32mx_eth_sk_int_dyn/production/_ext/1164207549/dhcp.o

.text.TCPIP_TCP_ArrayGet
                0x9d045338      0x260
 .text.TCPIP_TCP_ArrayGet
                0x9d045338      0x260 build/pic32mx_eth_sk_int_dyn/production/_ext/1164207549/tcp.o
                0x9d045338                TCPIP_TCP_ArrayGet

.text._UDPv4PAllocateSktTxBuffer
                0x9d045598      0x260
 .text._UDPv4PAllocateSktTxBuffer
                0x9d045598      0x260 build/pic32mx_eth_sk_int_dyn/production/_ext/1164207549/udp.o

.text.SYS_GENERATE_RANDOM_DWORD
                0x9d0457f8      0x25c
 .text.SYS_GENERATE_RANDOM_DWORD
                0x9d0457f8      0x25c build/pic32mx_eth_sk_int_dyn/production/_ext/1418760511/system_random.o
                0x9d0457f8                SYS_GENERATE_RANDOM_DWORD

.text.DRV_ETHMAC_LibDescriptorsPoolAdd
                0x9d045a54      0x258
 .text.DRV_ETHMAC_LibDescriptorsPoolAdd
                0x9d045a54      0x258 build/pic32mx_eth_sk_int_dyn/production/_ext/1697634946/drv_ethmac_lib.o
                0x9d045a54                DRV_ETHMAC_LibDescriptorsPoolAdd

.text.SYS_CLK_SystemClockSet
                0x9d045cac      0x258
 .text.SYS_CLK_SystemClockSet
                0x9d045cac      0x258 build/pic32mx_eth_sk_int_dyn/production/_ext/52938249/sys_clk_pic32.o
                0x9d045cac                SYS_CLK_SystemClockSet

.text.SYS_FS_FileSeek
                0x9d045f04      0x258
 .text.SYS_FS_FileSeek
                0x9d045f04      0x258 build/pic32mx_eth_sk_int_dyn/production/_ext/1750042194/sys_fs.o
                0x9d045f04                SYS_FS_FileSeek

.text.SYS_CLK_ReferenceClockSet
                0x9d04615c      0x254
 .text.SYS_CLK_ReferenceClockSet
                0x9d04615c      0x254 build/pic32mx_eth_sk_int_dyn/production/_ext/52938249/sys_clk_pic32.o
                0x9d04615c                SYS_CLK_ReferenceClockSet

.text._UDPFindMatchingSocket
                0x9d0463b0      0x254
 .text._UDPFindMatchingSocket
                0x9d0463b0      0x254 build/pic32mx_eth_sk_int_dyn/production/_ext/1164207549/udp.o

.text.TCPIP_ARP_Process
                0x9d046604      0x250
 .text.TCPIP_ARP_Process
                0x9d046604      0x250 build/pic32mx_eth_sk_int_dyn/production/_ext/1164207549/arp.o
                0x9d046604                TCPIP_ARP_Process

.text.TCPIP_SNMPv3_DynAllocMemFree
                0x9d046854      0x250
 .text.TCPIP_SNMPv3_DynAllocMemFree
                0x9d046854      0x250 build/pic32mx_eth_sk_int_dyn/production/_ext/1164207549/snmpv3.o
                0x9d046854                TCPIP_SNMPv3_DynAllocMemFree

.text.HTTPPostSNMPCommunity
                0x9d046aa4      0x24c
 .text.HTTPPostSNMPCommunity
                0x9d046aa4      0x24c build/pic32mx_eth_sk_int_dyn/production/_ext/1360937237/custom_http_app.o

.text           0x9d046cf0      0x248
 .text          0x9d046cf0      0x248 build/pic32mx_eth_sk_int_dyn/production/_ext/1164207549/tcpip_helper_c32.o
                0x9d046cf0                TCPIP_Helper_htonl
                0x9d046cfc                TCPIP_Helper_htons
                0x9d046d08                TCPIP_Helper_CalcIPChecksum

.text.TCPIP_UDP_Initialize
                0x9d046f38      0x248
 .text.TCPIP_UDP_Initialize
                0x9d046f38      0x248 build/pic32mx_eth_sk_int_dyn/production/_ext/1164207549/udp.o
                0x9d046f38                TCPIP_UDP_Initialize

.text.SYS_FS_MEDIA_MANAGER_Register
                0x9d047180      0x240
 .text.SYS_FS_MEDIA_MANAGER_Register
                0x9d047180      0x240 build/pic32mx_eth_sk_int_dyn/production/_ext/1750042194/sys_fs_media_manager.o
                0x9d047180                SYS_FS_MEDIA_MANAGER_Register

.text.DRV_ETHPHY_NegotiationIsComplete
                0x9d0473c0      0x23c
 .text.DRV_ETHPHY_NegotiationIsComplete
                0x9d0473c0      0x23c build/pic32mx_eth_sk_int_dyn/production/_ext/521481140/drv_ethphy.o
                0x9d0473c0                DRV_ETHPHY_NegotiationIsComplete

.text.HTTPExecuteGet
                0x9d0475fc      0x23c
 .text.HTTPExecuteGet
                0x9d0475fc      0x23c build/pic32mx_eth_sk_int_dyn/production/_ext/1360937237/custom_http_app.o
                0x9d0475fc                HTTPExecuteGet

.text.TCPIP_DHCP_Initialize
                0x9d047838      0x23c
 .text.TCPIP_DHCP_Initialize
                0x9d047838      0x23c build/pic32mx_eth_sk_int_dyn/production/_ext/1164207549/dhcp.o
                0x9d047838                TCPIP_DHCP_Initialize

.text.TCPIP_IPV4_PktMacDestination
                0x9d047a74      0x23c
 .text.TCPIP_IPV4_PktMacDestination
                0x9d047a74      0x23c build/pic32mx_eth_sk_int_dyn/production/_ext/1164207549/ipv4.o

.text.DRV_ETHMAC_PIC32MACRxFilterHashTableEntrySet
                0x9d047cb0      0x238
 .text.DRV_ETHMAC_PIC32MACRxFilterHashTableEntrySet
                0x9d047cb0      0x238 build/pic32mx_eth_sk_int_dyn/production/_ext/1697634946/drv_ethmac.o
                0x9d047cb0                DRV_ETHMAC_PIC32MACRxFilterHashTableEntrySet

.text.TCPIP_FTP_ServerInit
                0x9d047ee8      0x234
 .text.TCPIP_FTP_ServerInit
                0x9d047ee8      0x234 build/pic32mx_eth_sk_int_dyn/production/_ext/1164207549/ftp.o
                0x9d047ee8                TCPIP_FTP_ServerInit

.text.SNMPv3ComputeHMACIpadOpadForAuthLoclzedKey
                0x9d04811c      0x234
 .text.SNMPv3ComputeHMACIpadOpadForAuthLoclzedKey
                0x9d04811c      0x234 build/pic32mx_eth_sk_int_dyn/production/_ext/1164207549/snmpv3_usm.o
                0x9d04811c                SNMPv3ComputeHMACIpadOpadForAuthLoclzedKey

.text.SYS_USERIO_ReadIO
                0x9d048350      0x234
 .text.SYS_USERIO_ReadIO
                0x9d048350      0x234 build/pic32mx_eth_sk_int_dyn/production/_ext/1418760511/system_userio.o

.text.StateMachineTxArpResolve
                0x9d048584      0x230
 .text.StateMachineTxArpResolve
                0x9d048584      0x230 build/pic32mx_eth_sk_int_dyn/production/_ext/1164207549/iperf.o

.text.TCPIP_UDP_ArrayGet
                0x9d0487b4      0x230
 .text.TCPIP_UDP_ArrayGet
                0x9d0487b4      0x230 build/pic32mx_eth_sk_int_dyn/production/_ext/1164207549/udp.o
                0x9d0487b4                TCPIP_UDP_ArrayGet

.text._TcpSocketSetIdleState
                0x9d0489e4      0x22c
 .text._TcpSocketSetIdleState
                0x9d0489e4      0x22c build/pic32mx_eth_sk_int_dyn/production/_ext/1164207549/tcp.o

.text._GetMaxSegSizeOption
                0x9d048c10      0x22c
 .text._GetMaxSegSizeOption
                0x9d048c10      0x22c build/pic32mx_eth_sk_int_dyn/production/_ext/1164207549/tcp.o

.text.TCPIP_TCP_ProcessIPv4
                0x9d048e3c      0x228
 .text.TCPIP_TCP_ProcessIPv4
                0x9d048e3c      0x228 build/pic32mx_eth_sk_int_dyn/production/_ext/1164207549/tcp.o
                0x9d048e3c                TCPIP_TCP_ProcessIPv4

.text.SYS_FS_MEDIA_MANAGER_VolumePropertyGet
                0x9d049064      0x220
 .text.SYS_FS_MEDIA_MANAGER_VolumePropertyGet
                0x9d049064      0x220 build/pic32mx_eth_sk_int_dyn/production/_ext/1750042194/sys_fs_media_manager.o
                0x9d049064                SYS_FS_MEDIA_MANAGER_VolumePropertyGet

.text.__floatdisf
                0x9d049284      0x220
 .text.__floatdisf
                0x9d049284      0x220 c:/program files/microchip/xc32/v1.30-tc9/bin/../lib/gcc/pic32mx/4.5.2/../../../../pic32mx/lib\libe.a(_floatdisf.o)
                0x9d049284                __floatdisf

.text.SYS_CLK_HardwareRegisterUpdate
                0x9d0494a4      0x21c
 .text.SYS_CLK_HardwareRegisterUpdate
                0x9d0494a4      0x21c build/pic32mx_eth_sk_int_dyn/production/_ext/52938249/sys_clk_pic32.o
                0x9d0494a4                SYS_CLK_HardwareRegisterUpdate

.text.SNMPIsValidSetLen
                0x9d0496c0      0x21c
 .text.SNMPIsValidSetLen
                0x9d0496c0      0x21c build/pic32mx_eth_sk_int_dyn/production/_ext/1360937237/custom_snmp_app.o
                0x9d0496c0                SNMPIsValidSetLen

.text.MPFSGet   0x9d0498dc      0x218
 .text.MPFSGet  0x9d0498dc      0x218 build/pic32mx_eth_sk_int_dyn/production/_ext/614935175/mpfs.o
                0x9d0498dc                MPFSGet

.text.SYS_Initialize
                0x9d049af4      0x214
 .text.SYS_Initialize
                0x9d049af4      0x214 build/pic32mx_eth_sk_int_dyn/production/_ext/1951764757/system_init.o
                0x9d049af4                SYS_Initialize

.text._HTTP_HeaderParseCookie
                0x9d049d08      0x214
 .text._HTTP_HeaderParseCookie
                0x9d049d08      0x214 build/pic32mx_eth_sk_int_dyn/production/_ext/1164207549/http.o

.text.TCPIP_ARP_EntryQuery
                0x9d049f1c      0x210
 .text.TCPIP_ARP_EntryQuery
                0x9d049f1c      0x210 build/pic32mx_eth_sk_int_dyn/production/_ext/1164207549/arp.o
                0x9d049f1c                TCPIP_ARP_EntryQuery

.text._SNMPv3_PswdToLocalizedAuthKeyMD5Hashing
                0x9d04a12c      0x20c
 .text._SNMPv3_PswdToLocalizedAuthKeyMD5Hashing
                0x9d04a12c      0x20c build/pic32mx_eth_sk_int_dyn/production/_ext/1164207549/snmpv3_usm.o

.text._SNMPv3_PswdToLocalizedAuthKeySHAHashing
                0x9d04a338      0x20c
 .text._SNMPv3_PswdToLocalizedAuthKeySHAHashing
                0x9d04a338      0x20c build/pic32mx_eth_sk_int_dyn/production/_ext/1164207549/snmpv3_usm.o

.text._TCPv4Flush
                0x9d04a544      0x208
 .text._TCPv4Flush
                0x9d04a544      0x208 build/pic32mx_eth_sk_int_dyn/production/_ext/1164207549/tcp.o

.text._TcpDisconnect
                0x9d04a74c      0x204
 .text._TcpDisconnect
                0x9d04a74c      0x204 build/pic32mx_eth_sk_int_dyn/production/_ext/1164207549/tcp.o

.text.DRV_ETHMAC_LibInit
                0x9d04a950      0x200
 .text.DRV_ETHMAC_LibInit
                0x9d04a950      0x200 build/pic32mx_eth_sk_int_dyn/production/_ext/1697634946/drv_ethmac_lib.o
                0x9d04a950                DRV_ETHMAC_LibInit

.text._ICMPProcessEchoRequest
                0x9d04ab50      0x200
 .text._ICMPProcessEchoRequest
                0x9d04ab50      0x200 build/pic32mx_eth_sk_int_dyn/production/_ext/1164207549/icmp.o

.text._PhyDetectReset
                0x9d04ad50      0x1fc
 .text._PhyDetectReset
                0x9d04ad50      0x1fc build/pic32mx_eth_sk_int_dyn/production/_ext/521481140/drv_ethphy.o

.text.ascii_to_u32s
                0x9d04af4c      0x1fc
 .text.ascii_to_u32s
                0x9d04af4c      0x1fc build/pic32mx_eth_sk_int_dyn/production/_ext/1164207549/iperf.o

.text.DRV_ETHMAC_PIC32MACPacketTx
                0x9d04b148      0x1f8
 .text.DRV_ETHMAC_PIC32MACPacketTx
                0x9d04b148      0x1f8 build/pic32mx_eth_sk_int_dyn/production/_ext/1697634946/drv_ethmac.o
                0x9d04b148                DRV_ETHMAC_PIC32MACPacketTx

.text.TCPIP_FTP_FileGet
                0x9d04b340      0x1f8
 .text.TCPIP_FTP_FileGet
                0x9d04b340      0x1f8 build/pic32mx_eth_sk_int_dyn/production/_ext/1164207549/ftp.o

.text.TCPIP_ANNOUNCE_Task
                0x9d04b538      0x1f8
 .text.TCPIP_ANNOUNCE_Task
                0x9d04b538      0x1f8 build/pic32mx_eth_sk_int_dyn/production/_ext/1164207549/tcpip_announce.o
                0x9d04b538                TCPIP_ANNOUNCE_Task

.text.SYS_USERIO_SetLED
                0x9d04b730      0x1f8
 .text.SYS_USERIO_SetLED
                0x9d04b730      0x1f8 build/pic32mx_eth_sk_int_dyn/production/_ext/1418760511/system_userio.o
                0x9d04b730                SYS_USERIO_SetLED

.text.APP_Tasks
                0x9d04b928      0x1f4
 .text.APP_Tasks
                0x9d04b928      0x1f4 build/pic32mx_eth_sk_int_dyn/production/_ext/1360937237/app.o
                0x9d04b928                APP_Tasks

.text.TCPIP_IPERF_Task
                0x9d04bb1c      0x1f0
 .text.TCPIP_IPERF_Task
                0x9d04bb1c      0x1f0 build/pic32mx_eth_sk_int_dyn/production/_ext/1164207549/iperf.o
                0x9d04bb1c                TCPIP_IPERF_Task

.text._SNMPv3_ConstructReportPDU
                0x9d04bd0c      0x1ec
 .text._SNMPv3_ConstructReportPDU
                0x9d04bd0c      0x1ec build/pic32mx_eth_sk_int_dyn/production/_ext/1164207549/snmpv3.o

.text.CommandIperfSize
                0x9d04bef8      0x1e8
 .text.CommandIperfSize
                0x9d04bef8      0x1e8 build/pic32mx_eth_sk_int_dyn/production/_ext/1164207549/iperf.o

.text.SNMPv3ValidateSecNameAndSecLevel
                0x9d04c0e0      0x1e8
 .text.SNMPv3ValidateSecNameAndSecLevel
                0x9d04c0e0      0x1e8 build/pic32mx_eth_sk_int_dyn/production/_ext/1164207549/snmpv3_usm.o
                0x9d04c0e0                SNMPv3ValidateSecNameAndSecLevel

.text.TCPIP_TCP_Bind
                0x9d04c2c8      0x1e8
 .text.TCPIP_TCP_Bind
                0x9d04c2c8      0x1e8 build/pic32mx_eth_sk_int_dyn/production/_ext/1164207549/tcp.o
                0x9d04c2c8                TCPIP_TCP_Bind

.text.TCPIP_STACK_NetUp
                0x9d04c4b0      0x1e8
 .text.TCPIP_STACK_NetUp
                0x9d04c4b0      0x1e8 build/pic32mx_eth_sk_int_dyn/production/_ext/1164207549/tcpip_manager.o
                0x9d04c4b0                TCPIP_STACK_NetUp

.text._ARPSendIfPkt
                0x9d04c698      0x1e4
 .text._ARPSendIfPkt
                0x9d04c698      0x1e4 build/pic32mx_eth_sk_int_dyn/production/_ext/1164207549/arp.o

.text.TCPIP_UDP_OptionsSet
                0x9d04c87c      0x1e0
 .text.TCPIP_UDP_OptionsSet
                0x9d04c87c      0x1e0 build/pic32mx_eth_sk_int_dyn/production/_ext/1164207549/udp.o
                0x9d04c87c                TCPIP_UDP_OptionsSet

.text._ARPProbeAddress
                0x9d04ca5c      0x1dc
 .text._ARPProbeAddress
                0x9d04ca5c      0x1dc build/pic32mx_eth_sk_int_dyn/production/_ext/1164207549/arp.o

.text.TCPIP_HTTP_URLDecode
                0x9d04cc38      0x1dc
 .text.TCPIP_HTTP_URLDecode
                0x9d04cc38      0x1dc build/pic32mx_eth_sk_int_dyn/production/_ext/1164207549/http.o
                0x9d04cc38                TCPIP_HTTP_URLDecode

.text.TCPIP_SNMP_StackDescriptorsInitialize
                0x9d04ce14      0x1dc
 .text.TCPIP_SNMP_StackDescriptorsInitialize
                0x9d04ce14      0x1dc build/pic32mx_eth_sk_int_dyn/production/_ext/1164207549/snmp.o

.text._Telnet_LogonCheck
                0x9d04cff0      0x1dc
 .text._Telnet_LogonCheck
                0x9d04cff0      0x1dc build/pic32mx_eth_sk_int_dyn/production/_ext/1164207549/telnet.o

.text.StringToArgs
                0x9d04d1cc      0x1dc
 .text.StringToArgs
                0x9d04d1cc      0x1dc build/pic32mx_eth_sk_int_dyn/production/_ext/1418760511/system_command.o

.text.SNMPValidateCommunity
                0x9d04d3a8      0x1d4
 .text.SNMPValidateCommunity
                0x9d04d3a8      0x1d4 build/pic32mx_eth_sk_int_dyn/production/_ext/1360937237/custom_snmp_app.o
                0x9d04d3a8                SNMPValidateCommunity

.text.TCPIP_FTP_Quit
                0x9d04d57c      0x1d4
 .text.TCPIP_FTP_Quit
                0x9d04d57c      0x1d4 build/pic32mx_eth_sk_int_dyn/production/_ext/1164207549/ftp.o

.text.TCPIP_FTP_CmdStringParse
                0x9d04d750      0x1d4
 .text.TCPIP_FTP_CmdStringParse
                0x9d04d750      0x1d4 build/pic32mx_eth_sk_int_dyn/production/_ext/1164207549/ftp.o

.text._HTTP_HeaderParseAuthorization
                0x9d04d924      0x1d4
 .text._HTTP_HeaderParseAuthorization
                0x9d04d924      0x1d4 build/pic32mx_eth_sk_int_dyn/production/_ext/1164207549/http.o

.text.TCPIP_TCP_Initialize
                0x9d04daf8      0x1d4
 .text.TCPIP_TCP_Initialize
                0x9d04daf8      0x1d4 build/pic32mx_eth_sk_int_dyn/production/_ext/1164207549/tcp.o
                0x9d04daf8                TCPIP_TCP_Initialize

.text._Command_MACAddressSet
                0x9d04dccc      0x1d0
 .text._Command_MACAddressSet
                0x9d04dccc      0x1d0 build/pic32mx_eth_sk_int_dyn/production/_ext/1164207549/tcpip_commands.o

.text._SYS_COMMAND_ADDGRP
                0x9d04de9c      0x1d0
 .text._SYS_COMMAND_ADDGRP
                0x9d04de9c      0x1d0 build/pic32mx_eth_sk_int_dyn/production/_ext/1418760511/system_command.o
                0x9d04de9c                _SYS_COMMAND_ADDGRP

.text.DRV_ETHMAC_LibMACOpen
                0x9d04e06c      0x1c8
 .text.DRV_ETHMAC_LibMACOpen
                0x9d04e06c      0x1c8 build/pic32mx_eth_sk_int_dyn/production/_ext/1697634946/drv_ethmac_lib.o
                0x9d04e06c                DRV_ETHMAC_LibMACOpen

.text.SNMPGetNextIndex
                0x9d04e234      0x1c8
 .text.SNMPGetNextIndex
                0x9d04e234      0x1c8 build/pic32mx_eth_sk_int_dyn/production/_ext/1360937237/custom_snmp_app.o
                0x9d04e234                SNMPGetNextIndex

.text.TCPIP_DNS_UsageBegin
                0x9d04e3fc      0x1c8
 .text.TCPIP_DNS_UsageBegin
                0x9d04e3fc      0x1c8 build/pic32mx_eth_sk_int_dyn/production/_ext/1164207549/dns.o
                0x9d04e3fc                TCPIP_DNS_UsageBegin

.text.SYS_USERIO_Initialize
                0x9d04e5c4      0x1c8
 .text.SYS_USERIO_Initialize
                0x9d04e5c4      0x1c8 build/pic32mx_eth_sk_int_dyn/production/_ext/1418760511/system_userio.o
                0x9d04e5c4                SYS_USERIO_Initialize

.text.TCPIP_ARP_CacheEntriesNoGet
                0x9d04e78c      0x1c4
 .text.TCPIP_ARP_CacheEntriesNoGet
                0x9d04e78c      0x1c4 build/pic32mx_eth_sk_int_dyn/production/_ext/1164207549/arp.o
                0x9d04e78c                TCPIP_ARP_CacheEntriesNoGet

.text._TCPIP_HEAP_Malloc
                0x9d04e950      0x1c4
 .text._TCPIP_HEAP_Malloc
                0x9d04e950      0x1c4 build/pic32mx_eth_sk_int_dyn/production/_ext/1164207549/tcpip_heap_alloc.o
                0x9d04e950                _TCPIP_HEAP_Malloc

.text._SNMPv3_CheckIfValidAuthStructure
                0x9d04eb14      0x1c0
 .text._SNMPv3_CheckIfValidAuthStructure
                0x9d04eb14      0x1c0 build/pic32mx_eth_sk_int_dyn/production/_ext/1164207549/snmpv3.o

.text.FindEmailAddress
                0x9d04ecd4      0x1bc
 .text.FindEmailAddress
                0x9d04ecd4      0x1bc build/pic32mx_eth_sk_int_dyn/production/_ext/1164207549/smtp.o

.text._Telnet_UserCheck
                0x9d04ee90      0x1bc
 .text._Telnet_UserCheck
                0x9d04ee90      0x1bc build/pic32mx_eth_sk_int_dyn/production/_ext/1164207549/telnet.o

.text.TCPIP_UDP_Deinitialize
                0x9d04f04c      0x1bc
 .text.TCPIP_UDP_Deinitialize
                0x9d04f04c      0x1bc build/pic32mx_eth_sk_int_dyn/production/_ext/1164207549/udp.o
                0x9d04f04c                TCPIP_UDP_Deinitialize

.text.HTTPPrint_uploadedmd5
                0x9d04f208      0x1b8
 .text.HTTPPrint_uploadedmd5
                0x9d04f208      0x1b8 build/pic32mx_eth_sk_int_dyn/production/_ext/1360937237/custom_http_app.o
                0x9d04f208                HTTPPrint_uploadedmd5

.text._SNMPv3_EngnIDFormulate
                0x9d04f3c0      0x1b8
 .text._SNMPv3_EngnIDFormulate
                0x9d04f3c0      0x1b8 build/pic32mx_eth_sk_int_dyn/production/_ext/1164207549/snmpv3.o

.text._SNMPv3_CheckIfv3ValidStructure
                0x9d04f578      0x1b8
 .text._SNMPv3_CheckIfv3ValidStructure
                0x9d04f578      0x1b8 build/pic32mx_eth_sk_int_dyn/production/_ext/1164207549/snmpv3.o

.text.TCPIP_TCP_OptionsSet
                0x9d04f730      0x1b8
 .text.TCPIP_TCP_OptionsSet
                0x9d04f730      0x1b8 build/pic32mx_eth_sk_int_dyn/production/_ext/1164207549/tcp.o
                0x9d04f730                TCPIP_TCP_OptionsSet

.text._SystemTickIntHandler
                0x9d04f8e8      0x1b4
 .text._SystemTickIntHandler
                0x9d04f8e8      0x1b4 build/pic32mx_eth_sk_int_dyn/production/_ext/1951764757/system_init_private.o
                0x9d04f8e8                _SystemTickIntHandler

.text._EthTxSchedBuffer
                0x9d04fa9c      0x1b4
 .text._EthTxSchedBuffer
                0x9d04fa9c      0x1b4 build/pic32mx_eth_sk_int_dyn/production/_ext/1697634946/drv_ethmac_lib.o

.rodata         0x9d04fc50      0x1b0
 .rodata        0x9d04fc50      0x1b0 build/pic32mx_eth_sk_int_dyn/production/_ext/1951764757/system_init.o
                0x9d04fc50                arpConfigData
                0x9d04fc70                dhcpConfigData
                0x9d04fc80                httpConfigData
                0x9d04fc8c                macPIC32INTConfigData
                0x9d04fc98                mac97J60ConfigData
                0x9d04fc98                macMRF24WConfigData
                0x9d04fc98                tcpConfigData
                0x9d04fc98                macENCJ600ConfigData
                0x9d04fc98                macENCJ60ConfigData
                0x9d04fca0                udpConfigData
                0x9d04fd08                TCPIP_HOSTS_CONFIGURATION
                0x9d04fd30                TCPIP_STACK_MODULE_CONFIG_TBL
                0x9d04fda8                drvNVMInit
                0x9d04fdb4                drvNVMMediaInit
                0x9d04fdc0                sysMPFSInit
                0x9d04fdc8                sysCLKInit

.text.SYS_FS_FileOpen_Wrapper
                0x9d04fe00      0x1b0
 .text.SYS_FS_FileOpen_Wrapper
                0x9d04fe00      0x1b0 build/pic32mx_eth_sk_int_dyn/production/_ext/1886247299/sys_fs_wrapper.o
                0x9d04fe00                SYS_FS_FileOpen_Wrapper

.text.SYS_FS_FileStat_Wrapper
                0x9d04ffb0      0x1b0
 .text.SYS_FS_FileStat_Wrapper
                0x9d04ffb0      0x1b0 build/pic32mx_eth_sk_int_dyn/production/_ext/1886247299/sys_fs_wrapper.o
                0x9d04ffb0                SYS_FS_FileStat_Wrapper

.rodata         0x9d050160      0x1ac
 .rodata        0x9d050160      0x1ac build/pic32mx_eth_sk_int_dyn/production/_ext/184581597/drv_nvm.o

.text.TCPIP_SNMP_NotifyIsReady
                0x9d05030c      0x1ac
 .text.TCPIP_SNMP_NotifyIsReady
                0x9d05030c      0x1ac build/pic32mx_eth_sk_int_dyn/production/_ext/1164207549/snmp.o
                0x9d05030c                TCPIP_SNMP_NotifyIsReady

.text.TCPIP_TCP_ArrayPeek
                0x9d0504b8      0x1ac
 .text.TCPIP_TCP_ArrayPeek
                0x9d0504b8      0x1ac build/pic32mx_eth_sk_int_dyn/production/_ext/1164207549/tcp.o
                0x9d0504b8                TCPIP_TCP_ArrayPeek

.text.TCPIP_Helper_PacketChecksum
                0x9d050664      0x1ac
 .text.TCPIP_Helper_PacketChecksum
                0x9d050664      0x1ac build/pic32mx_eth_sk_int_dyn/production/_ext/1164207549/tcpip_helpers.o
                0x9d050664                TCPIP_Helper_PacketChecksum

.text.TCPIP_SMTP_Put
                0x9d050810      0x1a8
 .text.TCPIP_SMTP_Put
                0x9d050810      0x1a8 build/pic32mx_eth_sk_int_dyn/production/_ext/1164207549/smtp.o
                0x9d050810                TCPIP_SMTP_Put

.text.TCPIP_SNMPv3_UserIndxGetFromUsmUserDB
                0x9d0509b8      0x1a8
 .text.TCPIP_SNMPv3_UserIndxGetFromUsmUserDB
                0x9d0509b8      0x1a8 build/pic32mx_eth_sk_int_dyn/production/_ext/1164207549/snmpv3.o
                0x9d0509b8                TCPIP_SNMPv3_UserIndxGetFromUsmUserDB

.text.TCPIP_ARP_IsResolved
                0x9d050b60      0x1a4
 .text.TCPIP_ARP_IsResolved
                0x9d050b60      0x1a4 build/pic32mx_eth_sk_int_dyn/production/_ext/1164207549/arp.o
                0x9d050b60                TCPIP_ARP_IsResolved

.text.fround    0x9d050d04      0x1a4
 .text.fround   0x9d050d04      0x1a4 c:/program files/microchip/xc32/v1.30-tc9/bin/../lib/gcc/pic32mx/4.5.2/../../../../pic32mx/lib\libc.a(doprnt.o)

.text.SNMPv3AESDecryptRxedScopedPdu
                0x9d050ea8      0x1a0
 .text.SNMPv3AESDecryptRxedScopedPdu
                0x9d050ea8      0x1a0 build/pic32mx_eth_sk_int_dyn/production/_ext/1164207549/snmpv3_usm.o
                0x9d050ea8                SNMPv3AESDecryptRxedScopedPdu

.text._Command_GatewayAddressSet
                0x9d051048      0x1a0
 .text._Command_GatewayAddressSet
                0x9d051048      0x1a0 build/pic32mx_eth_sk_int_dyn/production/_ext/1164207549/tcpip_commands.o

.text._Command_PrimaryDNSAddressSet
                0x9d0511e8      0x1a0
 .text._Command_PrimaryDNSAddressSet
                0x9d0511e8      0x1a0 build/pic32mx_eth_sk_int_dyn/production/_ext/1164207549/tcpip_commands.o

.text.DisplayNodeMsg
                0x9d051388      0x1a0
 .text.DisplayNodeMsg
                0x9d051388      0x1a0 build/pic32mx_eth_sk_int_dyn/production/_ext/1418760511/system_command.o

.text           0x9d051528      0x1a0
 .text          0x9d051528      0x1a0 c:/program files/microchip/xc32/v1.30-tc9/bin/../lib/gcc/pic32mx/4.5.2/../../../../pic32mx/lib\libpic32.a(strcpy.o)
                0x9d051528                strcpy

.text.StateMachineTCPTxConnect
                0x9d0516c8      0x19c
 .text.StateMachineTCPTxConnect
                0x9d0516c8      0x19c build/pic32mx_eth_sk_int_dyn/production/_ext/1164207549/iperf.o

.text.SNMPv3AESEncryptResponseScopedPdu
                0x9d051864      0x19c
 .text.SNMPv3AESEncryptResponseScopedPdu
                0x9d051864      0x19c build/pic32mx_eth_sk_int_dyn/production/_ext/1164207549/snmpv3_usm.o
                0x9d051864                SNMPv3AESEncryptResponseScopedPdu

.text.MPFS_Mount
                0x9d051a00      0x198
 .text.MPFS_Mount
                0x9d051a00      0x198 build/pic32mx_eth_sk_int_dyn/production/_ext/614935175/mpfs.o
                0x9d051a00                MPFS_Mount

.text.TCPIP_PKT_DataSegmentGet
                0x9d051b98      0x198
 .text.TCPIP_PKT_DataSegmentGet
                0x9d051b98      0x198 build/pic32mx_eth_sk_int_dyn/production/_ext/1164207549/tcpip_packet.o
                0x9d051b98                TCPIP_PKT_DataSegmentGet

.text.DRV_NVM_Read
                0x9d051d30      0x194
 .text.DRV_NVM_Read
                0x9d051d30      0x194 build/pic32mx_eth_sk_int_dyn/production/_ext/184581597/drv_nvm.o
                0x9d051d30                DRV_NVM_Read

.text.TCPIP_NBNS_NameGet
                0x9d051ec4      0x194
 .text.TCPIP_NBNS_NameGet
                0x9d051ec4      0x194 build/pic32mx_eth_sk_int_dyn/production/_ext/1164207549/nbns.o

.text.TCPIP_HEAP_Create
                0x9d052058      0x194
 .text.TCPIP_HEAP_Create
                0x9d052058      0x194 build/pic32mx_eth_sk_int_dyn/production/_ext/1164207549/tcpip_heap_alloc.o
                0x9d052058                TCPIP_HEAP_Create

.text.TCPIP_PKT_PacketAlloc
                0x9d0521ec      0x194
 .text.TCPIP_PKT_PacketAlloc
                0x9d0521ec      0x194 build/pic32mx_eth_sk_int_dyn/production/_ext/1164207549/tcpip_packet.o
                0x9d0521ec                TCPIP_PKT_PacketAlloc

.text.TCPIP_UDP_Bind
                0x9d052380      0x194
 .text.TCPIP_UDP_Bind
                0x9d052380      0x194 build/pic32mx_eth_sk_int_dyn/production/_ext/1164207549/udp.o
                0x9d052380                TCPIP_UDP_Bind

.text._sbrk_init
                0x9d052514      0x194
 .text._sbrk_init
                0x9d052514      0x194 c:/program files/microchip/xc32/v1.30-tc9/bin/../lib/gcc/pic32mx/4.5.2/../../../../pic32mx/lib\libpic32.a(sbrk.o)
                0x9d052514                _sbrk_init

.text.TCPIP_ICMP_Process
                0x9d0526a8      0x190
 .text.TCPIP_ICMP_Process
                0x9d0526a8      0x190 build/pic32mx_eth_sk_int_dyn/production/_ext/1164207549/icmp.o
                0x9d0526a8                TCPIP_ICMP_Process

.text.TCPIP_SNMP_OIDStringGetByAddr
                0x9d052838      0x190
 .text.TCPIP_SNMP_OIDStringGetByAddr
                0x9d052838      0x190 build/pic32mx_eth_sk_int_dyn/production/_ext/1164207549/snmp.o

.text.TCPIP_STACK_Deinitialize
                0x9d0529c8      0x190
 .text.TCPIP_STACK_Deinitialize
                0x9d0529c8      0x190 build/pic32mx_eth_sk_int_dyn/production/_ext/1164207549/tcpip_manager.o
                0x9d0529c8                TCPIP_STACK_Deinitialize

.text._SYS_CMDIO_DELETE
                0x9d052b58      0x190
 .text._SYS_CMDIO_DELETE
                0x9d052b58      0x190 build/pic32mx_eth_sk_int_dyn/production/_ext/1418760511/system_command.o
                0x9d052b58                _SYS_CMDIO_DELETE

.text.StateMachineRxDone
                0x9d052ce8      0x18c
 .text.StateMachineRxDone
                0x9d052ce8      0x18c build/pic32mx_eth_sk_int_dyn/production/_ext/1164207549/iperf.o

.text.TCPIP_IPV4_ArpHandler
                0x9d052e74      0x18c
 .text.TCPIP_IPV4_ArpHandler
                0x9d052e74      0x18c build/pic32mx_eth_sk_int_dyn/production/_ext/1164207549/ipv4.o

.text.TCPIP_Helper_StringToMACAddress
                0x9d053000      0x18c
 .text.TCPIP_Helper_StringToMACAddress
                0x9d053000      0x18c build/pic32mx_eth_sk_int_dyn/production/_ext/1164207549/tcpip_helpers.o
                0x9d053000                TCPIP_Helper_StringToMACAddress

.text.DRV_ETHMAC_PIC32MACLinkCheck
                0x9d05318c      0x180
 .text.DRV_ETHMAC_PIC32MACLinkCheck
                0x9d05318c      0x180 build/pic32mx_eth_sk_int_dyn/production/_ext/1697634946/drv_ethmac.o
                0x9d05318c                DRV_ETHMAC_PIC32MACLinkCheck

.text._OAHashFindBkt
                0x9d05330c      0x180
 .text._OAHashFindBkt
                0x9d05330c      0x180 build/pic32mx_eth_sk_int_dyn/production/_ext/1164207549/oahash.o

.text.TCPIP_SNMP_ProcessHeaderGetSet
                0x9d05348c      0x180
 .text.TCPIP_SNMP_ProcessHeaderGetSet
                0x9d05348c      0x180 build/pic32mx_eth_sk_int_dyn/production/_ext/1164207549/snmp.o

.text.TCPIP_IPERF_Initialize
                0x9d05360c      0x17c
 .text.TCPIP_IPERF_Initialize
                0x9d05360c      0x17c build/pic32mx_eth_sk_int_dyn/production/_ext/1164207549/iperf.o
                0x9d05360c                TCPIP_IPERF_Initialize

.text.TCPIP_SNMP_GenericTrapCodeToTrapOID
                0x9d053788      0x178
 .text.TCPIP_SNMP_GenericTrapCodeToTrapOID
                0x9d053788      0x178 build/pic32mx_eth_sk_int_dyn/production/_ext/1164207549/snmp.o
                0x9d053788                TCPIP_SNMP_GenericTrapCodeToTrapOID

.text.SNMPGetExactIndex
                0x9d053900      0x170
 .text.SNMPGetExactIndex
                0x9d053900      0x170 build/pic32mx_eth_sk_int_dyn/production/_ext/1360937237/custom_snmp_app.o
                0x9d053900                SNMPGetExactIndex

.text.TCPIP_HTTP_Deinitialize
                0x9d053a70      0x170
 .text.TCPIP_HTTP_Deinitialize
                0x9d053a70      0x170 build/pic32mx_eth_sk_int_dyn/production/_ext/1164207549/http.o
                0x9d053a70                TCPIP_HTTP_Deinitialize

.text.TCPIP_HTTP_Server
                0x9d053be0      0x170
 .text.TCPIP_HTTP_Server
                0x9d053be0      0x170 build/pic32mx_eth_sk_int_dyn/production/_ext/1164207549/http.o
                0x9d053be0                TCPIP_HTTP_Server

.text.SYS_FS_MEDIA_MANAGER_MediaStatusGet
                0x9d053d50      0x16c
 .text.SYS_FS_MEDIA_MANAGER_MediaStatusGet
                0x9d053d50      0x16c build/pic32mx_eth_sk_int_dyn/production/_ext/1750042194/sys_fs_media_manager.o
                0x9d053d50                SYS_FS_MEDIA_MANAGER_MediaStatusGet

.text.stricmppgm2ram
                0x9d053ebc      0x16c
 .text.stricmppgm2ram
                0x9d053ebc      0x16c build/pic32mx_eth_sk_int_dyn/production/_ext/1886247299/helpers.o
                0x9d053ebc                stricmppgm2ram

.text._ARPDeleteResources
                0x9d054028      0x16c
 .text._ARPDeleteResources
                0x9d054028      0x16c build/pic32mx_eth_sk_int_dyn/production/_ext/1164207549/arp.o

.text.TCPIP_OAHASH_EntryLookupOrInsert
                0x9d054194      0x16c
 .text.TCPIP_OAHASH_EntryLookupOrInsert
                0x9d054194      0x16c build/pic32mx_eth_sk_int_dyn/production/_ext/1164207549/oahash.o
                0x9d054194                TCPIP_OAHASH_EntryLookupOrInsert

.text.DRV_NVM_MEDIA_Initialize
                0x9d054300      0x168
 .text.DRV_NVM_MEDIA_Initialize
                0x9d054300      0x168 build/pic32mx_eth_sk_int_dyn/production/_ext/184581597/drv_nvm_media.o
                0x9d054300                DRV_NVM_MEDIA_Initialize

.text._SNMPv3_CheckIfv3ValidOID
                0x9d054468      0x168
 .text._SNMPv3_CheckIfv3ValidOID
                0x9d054468      0x168 build/pic32mx_eth_sk_int_dyn/production/_ext/1164207549/snmpv3.o

.text._TCPIsPutReady
                0x9d0545d0      0x168
 .text._TCPIsPutReady
                0x9d0545d0      0x168 build/pic32mx_eth_sk_int_dyn/production/_ext/1164207549/tcp.o

.text._TcpCloseSocket
                0x9d054738      0x168
 .text._TcpCloseSocket
                0x9d054738      0x168 build/pic32mx_eth_sk_int_dyn/production/_ext/1164207549/tcp.o

.text           0x9d0548a0      0x2d0
 .text          0x9d0548a0      0x168 c:/program files/microchip/xc32/v1.30-tc9/bin/../lib/gcc/pic32mx/4.5.2/../../../../pic32mx/lib\libpic32.a(memcpy.o)
                0x9d0548a0                memcpy
 .text          0x9d054a08      0x168 c:/program files/microchip/xc32/v1.30-tc9/bin/../lib/gcc/pic32mx/4.5.2/../../../../pic32mx/lib\libpic32.a(strlen.o)
                0x9d054a08                strlen

.text.TCPIP_ARP_EntryGet
                0x9d054b70      0x160
 .text.TCPIP_ARP_EntryGet
                0x9d054b70      0x160 build/pic32mx_eth_sk_int_dyn/production/_ext/1164207549/arp.o
                0x9d054b70                TCPIP_ARP_EntryGet

.text.DNSPutString
                0x9d054cd0      0x160
 .text.DNSPutString
                0x9d054cd0      0x160 build/pic32mx_eth_sk_int_dyn/production/_ext/1164207549/dns.o

.text._SNMPv3_CheckIfValidInt
                0x9d054e30      0x160
 .text._SNMPv3_CheckIfValidInt
                0x9d054e30      0x160 build/pic32mx_eth_sk_int_dyn/production/_ext/1164207549/snmpv3.o

.text.TCPIP_STACK_NetDown
                0x9d054f90      0x160
 .text.TCPIP_STACK_NetDown
                0x9d054f90      0x160 build/pic32mx_eth_sk_int_dyn/production/_ext/1164207549/tcpip_manager.o
                0x9d054f90                TCPIP_STACK_NetDown

.text.SYS_TICK_TimerDelete
                0x9d0550f0      0x15c
 .text.SYS_TICK_TimerDelete
                0x9d0550f0      0x15c build/pic32mx_eth_sk_int_dyn/production/_ext/1951764757/system_init_private.o
                0x9d0550f0                SYS_TICK_TimerDelete

.text.TCPIP_SNMP_DefaultUserConfigLoad
                0x9d05524c      0x15c
 .text.TCPIP_SNMP_DefaultUserConfigLoad
                0x9d05524c      0x15c build/pic32mx_eth_sk_int_dyn/production/_ext/1164207549/snmp.o

.text.TCPIP_TCP_ServerOpen
                0x9d0553a8      0x15c
 .text.TCPIP_TCP_ServerOpen
                0x9d0553a8      0x15c build/pic32mx_eth_sk_int_dyn/production/_ext/1164207549/tcp.o
                0x9d0553a8                TCPIP_TCP_ServerOpen

.text.fputc     0x9d055504      0x15c
 .text.fputc    0x9d055504      0x15c c:/program files/microchip/xc32/v1.30-tc9/bin/../lib/gcc/pic32mx/4.5.2/../../../../pic32mx/lib\libc.a(_fputc_simple.o)
                0x9d055504                fputc

.text.HTTPPrint_config_mac
                0x9d055660      0x158
 .text.HTTPPrint_config_mac
                0x9d055660      0x158 build/pic32mx_eth_sk_int_dyn/production/_ext/1360937237/custom_http_app.o
                0x9d055660                HTTPPrint_config_mac

.text.SNMPv3GetSecurityLevel
                0x9d0557b8      0x158
 .text.SNMPv3GetSecurityLevel
                0x9d0557b8      0x158 build/pic32mx_eth_sk_int_dyn/production/_ext/1164207549/snmpv3_usm.o
                0x9d0557b8                SNMPv3GetSecurityLevel

.text._Command_BIOSNameSet
                0x9d055910      0x154
 .text._Command_BIOSNameSet
                0x9d055910      0x154 build/pic32mx_eth_sk_int_dyn/production/_ext/1164207549/tcpip_commands.o

.text.CommandIperfNetIf
                0x9d055a64      0x150
 .text.CommandIperfNetIf
                0x9d055a64      0x150 build/pic32mx_eth_sk_int_dyn/production/_ext/1164207549/iperf.o

.text._Command_DefaultInterfaceSet
                0x9d055bb4      0x150
 .text._Command_DefaultInterfaceSet
                0x9d055bb4      0x150 build/pic32mx_eth_sk_int_dyn/production/_ext/1164207549/tcpip_commands.o

.text.TCPIP_STACK_IPAddressIsLocalNetwork
                0x9d055d04      0x150
 .text.TCPIP_STACK_IPAddressIsLocalNetwork
                0x9d055d04      0x150 build/pic32mx_eth_sk_int_dyn/production/_ext/1164207549/tcpip_manager.o
                0x9d055d04                TCPIP_STACK_IPAddressIsLocalNetwork

.rodata         0x9d055e54      0x150
 .rodata        0x9d055e54      0x150 build/pic32mx_eth_sk_int_dyn/production/_ext/1418760511/system_debug.o

.text.USART_INIT
                0x9d055fa4      0x14c
 .text.USART_INIT
                0x9d055fa4      0x14c build/pic32mx_eth_sk_int_dyn/production/_ext/2138650627/usart.o
                0x9d055fa4                USART_INIT

.text.TCPIP_SNMPv3_CmprTrapSecNameAndSecLvlWithUSMDb
                0x9d0560f0      0x14c
 .text.TCPIP_SNMPv3_CmprTrapSecNameAndSecLvlWithUSMDb
                0x9d0560f0      0x14c build/pic32mx_eth_sk_int_dyn/production/_ext/1164207549/snmpv3.o
                0x9d0560f0                TCPIP_SNMPv3_CmprTrapSecNameAndSecLvlWithUSMDb

.text.TCPIP_Helper_PacketCopy
                0x9d05623c      0x14c
 .text.TCPIP_Helper_PacketCopy
                0x9d05623c      0x14c build/pic32mx_eth_sk_int_dyn/production/_ext/1164207549/tcpip_helpers.o
                0x9d05623c                TCPIP_Helper_PacketCopy

.text.TCPIP_STACK_StacktoMacCtrl
                0x9d056388      0x14c
 .text.TCPIP_STACK_StacktoMacCtrl
                0x9d056388      0x14c build/pic32mx_eth_sk_int_dyn/production/_ext/1164207549/tcpip_manager.o

.text._TCPIPStackProcessTmo
                0x9d0564d4      0x14c
 .text._TCPIPStackProcessTmo
                0x9d0564d4      0x14c build/pic32mx_eth_sk_int_dyn/production/_ext/1164207549/tcpip_manager.o

.text.DRV_ETHMAC_PIC32MACGetConfig
                0x9d056620      0x144
 .text.DRV_ETHMAC_PIC32MACGetConfig
                0x9d056620      0x144 build/pic32mx_eth_sk_int_dyn/production/_ext/1697634946/drv_ethmac.o
                0x9d056620                DRV_ETHMAC_PIC32MACGetConfig

.text.TCPIP_OAHASH_EntryLookup
                0x9d056764      0x144
 .text.TCPIP_OAHASH_EntryLookup
                0x9d056764      0x144 build/pic32mx_eth_sk_int_dyn/production/_ext/1164207549/oahash.o
                0x9d056764                TCPIP_OAHASH_EntryLookup

.text.SNMPv3USMOutMsgPrivParam
                0x9d0568a8      0x144
 .text.SNMPv3USMOutMsgPrivParam
                0x9d0568a8      0x144 build/pic32mx_eth_sk_int_dyn/production/_ext/1164207549/snmpv3_usm.o
                0x9d0568a8                SNMPv3USMOutMsgPrivParam

.text._UDPSetNewRxPacket
                0x9d0569ec      0x144
 .text._UDPSetNewRxPacket
                0x9d0569ec      0x144 build/pic32mx_eth_sk_int_dyn/production/_ext/1164207549/udp.o

.rodata         0x9d056b30      0x140
 .rodata        0x9d056b30      0x140 build/pic32mx_eth_sk_int_dyn/production/_ext/1886247299/hashes.o

.text._ARPUpdateEntry
                0x9d056c70      0x140
 .text._ARPUpdateEntry
                0x9d056c70      0x140 build/pic32mx_eth_sk_int_dyn/production/_ext/1164207549/arp.o

.text.TCPIP_SNMP_CommunityStringIsValid
                0x9d056db0      0x140
 .text.TCPIP_SNMP_CommunityStringIsValid
                0x9d056db0      0x140 build/pic32mx_eth_sk_int_dyn/production/_ext/1164207549/snmp.o

.text.SYS_CLK_PeripheralClockSet
                0x9d056ef0      0x138
 .text.SYS_CLK_PeripheralClockSet
                0x9d056ef0      0x138 build/pic32mx_eth_sk_int_dyn/production/_ext/52938249/sys_clk_pic32.o
                0x9d056ef0                SYS_CLK_PeripheralClockSet

.text.TCPIP_ARP_EntryRemove
                0x9d057028      0x138
 .text.TCPIP_ARP_EntryRemove
                0x9d057028      0x138 build/pic32mx_eth_sk_int_dyn/production/_ext/1164207549/arp.o
                0x9d057028                TCPIP_ARP_EntryRemove

.text.TCPIP_SNMP_VarDataTypeIsValidInteger
                0x9d057160      0x138
 .text.TCPIP_SNMP_VarDataTypeIsValidInteger
                0x9d057160      0x138 build/pic32mx_eth_sk_int_dyn/production/_ext/1164207549/snmp.o
                0x9d057160                TCPIP_SNMP_VarDataTypeIsValidInteger

.text.TCPIP_SNMP_OIDIsValid
                0x9d057298      0x138
 .text.TCPIP_SNMP_OIDIsValid
                0x9d057298      0x138 build/pic32mx_eth_sk_int_dyn/production/_ext/1164207549/snmp.o

.text._UDPv4TxAckFnc
                0x9d0573d0      0x138
 .text._UDPv4TxAckFnc
                0x9d0573d0      0x138 build/pic32mx_eth_sk_int_dyn/production/_ext/1164207549/udp.o

.text._general_exception_handler
                0x9d057508      0x138
 .text._general_exception_handler
                0x9d057508      0x138 build/pic32mx_eth_sk_int_dyn/production/_ext/1418760511/system_debug.o
                0x9d057508                _general_exception_handler

.text.TCPIP_SNMP_LengthIsValid
                0x9d057640      0x134
 .text.TCPIP_SNMP_LengthIsValid
                0x9d057640      0x134 build/pic32mx_eth_sk_int_dyn/production/_ext/1164207549/snmp.o
                0x9d057640                TCPIP_SNMP_LengthIsValid

.text.DRV_ETHPHY_SMIClockSet
                0x9d057774      0x130
 .text.DRV_ETHPHY_SMIClockSet
                0x9d057774      0x130 build/pic32mx_eth_sk_int_dyn/production/_ext/521481140/drv_ethphy.o
                0x9d057774                DRV_ETHPHY_SMIClockSet

.text.uitoa     0x9d0578a4      0x130
 .text.uitoa    0x9d0578a4      0x130 build/pic32mx_eth_sk_int_dyn/production/_ext/1886247299/helpers.o
                0x9d0578a4                uitoa

.text.HTTPExecutePost
                0x9d0579d4      0x130
 .text.HTTPExecutePost
                0x9d0579d4      0x130 build/pic32mx_eth_sk_int_dyn/production/_ext/1360937237/custom_http_app.o
                0x9d0579d4                HTTPExecutePost

.text.TCPIP_DHCP_ConnectionHandler
                0x9d057b04      0x130
 .text.TCPIP_DHCP_ConnectionHandler
                0x9d057b04      0x130 build/pic32mx_eth_sk_int_dyn/production/_ext/1164207549/dhcp.o
                0x9d057b04                TCPIP_DHCP_ConnectionHandler

.rodata         0x9d057c34      0x130
 .rodata        0x9d057c34      0x130 build/pic32mx_eth_sk_int_dyn/production/_ext/1164207549/telnet.o

.text.TCPIP_ARP_Resolve
                0x9d057d64      0x12c
 .text.TCPIP_ARP_Resolve
                0x9d057d64      0x12c build/pic32mx_eth_sk_int_dyn/production/_ext/1164207549/arp.o
                0x9d057d64                TCPIP_ARP_Resolve

.text._flsbuf   0x9d057e90      0x12c
 .text._flsbuf  0x9d057e90      0x12c c:/program files/microchip/xc32/v1.30-tc9/bin/../lib/gcc/pic32mx/4.5.2/../../../../pic32mx/lib\libc.a(_flsbuf_simple.o)
                0x9d057e90                _flsbuf

.text._DRV_NVM_WriteBufferObjProcess
                0x9d057fbc      0x128
 .text._DRV_NVM_WriteBufferObjProcess
                0x9d057fbc      0x128 build/pic32mx_eth_sk_int_dyn/production/_ext/184581597/drv_nvm.o
                0x9d057fbc                _DRV_NVM_WriteBufferObjProcess

.text.SYS_CLK_ClosestFactorsGet
                0x9d0580e4      0x128
 .text.SYS_CLK_ClosestFactorsGet
                0x9d0580e4      0x128 build/pic32mx_eth_sk_int_dyn/production/_ext/52938249/sys_clk_pic32.o
                0x9d0580e4                SYS_CLK_ClosestFactorsGet

.text.TCPIP_IPV4_PacketFormatTx
                0x9d05820c      0x128
 .text.TCPIP_IPV4_PacketFormatTx
                0x9d05820c      0x128 build/pic32mx_eth_sk_int_dyn/production/_ext/1164207549/ipv4.o
                0x9d05820c                TCPIP_IPV4_PacketFormatTx

.text.TCPIP_UDP_BcastIPV4AddressSet
                0x9d058334      0x128
 .text.TCPIP_UDP_BcastIPV4AddressSet
                0x9d058334      0x128 build/pic32mx_eth_sk_int_dyn/production/_ext/1164207549/udp.o
                0x9d058334                TCPIP_UDP_BcastIPV4AddressSet

.text.TCPIP_SNMP_Initialize
                0x9d05845c      0x124
 .text.TCPIP_SNMP_Initialize
                0x9d05845c      0x124 build/pic32mx_eth_sk_int_dyn/production/_ext/1164207549/snmp.o
                0x9d05845c                TCPIP_SNMP_Initialize

.text._TCPSendWinIncUpdate
                0x9d058580      0x124
 .text._TCPSendWinIncUpdate
                0x9d058580      0x124 build/pic32mx_eth_sk_int_dyn/production/_ext/1164207549/tcp.o

.text.SYS_FS_FileClose
                0x9d0586a4      0x120
 .text.SYS_FS_FileClose
                0x9d0586a4      0x120 build/pic32mx_eth_sk_int_dyn/production/_ext/1750042194/sys_fs.o
                0x9d0586a4                SYS_FS_FileClose

.text.HTTPPrint_reboot
                0x9d0587c4      0x120
 .text.HTTPPrint_reboot
                0x9d0587c4      0x120 build/pic32mx_eth_sk_int_dyn/production/_ext/1360937237/custom_http_app.o
                0x9d0587c4                HTTPPrint_reboot

.text           0x9d0588e4      0x120
 .text          0x9d0588e4      0x120 c:/program files/microchip/xc32/v1.30-tc9/bin/../lib/gcc/pic32mx/4.5.2/../../../../pic32mx/lib\libpic32.a(strcmp.o)
                0x9d0588e4                strcmp

.text.SHA1AddData
                0x9d058a04      0x11c
 .text.SHA1AddData
                0x9d058a04      0x11c build/pic32mx_eth_sk_int_dyn/production/_ext/1886247299/hashes.o
                0x9d058a04                SHA1AddData

.text.TCPIP_HTTP_WebPageIsDynamic
                0x9d058b20      0x11c
 .text.TCPIP_HTTP_WebPageIsDynamic
                0x9d058b20      0x11c build/pic32mx_eth_sk_int_dyn/production/_ext/1164207549/http.o

.text.SNMPv3ValidateSnmpEngnId
                0x9d058c3c      0x11c
 .text.SNMPv3ValidateSnmpEngnId
                0x9d058c3c      0x11c build/pic32mx_eth_sk_int_dyn/production/_ext/1164207549/snmpv3_usm.o
                0x9d058c3c                SNMPv3ValidateSnmpEngnId

.text.TCPIP_STACK_BringNetDown
                0x9d058d58      0x11c
 .text.TCPIP_STACK_BringNetDown
                0x9d058d58      0x11c build/pic32mx_eth_sk_int_dyn/production/_ext/1164207549/tcpip_manager.o

.text.TCPIP_STACK_AddressServiceEvent
                0x9d058e74      0x11c
 .text.TCPIP_STACK_AddressServiceEvent
                0x9d058e74      0x11c build/pic32mx_eth_sk_int_dyn/production/_ext/1164207549/tcpip_manager.o
                0x9d058e74                TCPIP_STACK_AddressServiceEvent

.text.UDPOpenServerSkt
                0x9d058f90      0x11c
 .text.UDPOpenServerSkt
                0x9d058f90      0x11c build/pic32mx_eth_sk_int_dyn/production/_ext/1164207549/udp.o
                0x9d058f90                UDPOpenServerSkt

.text.DRV_ETHPHY_Reset
                0x9d0590ac      0x118
 .text.DRV_ETHPHY_Reset
                0x9d0590ac      0x118 build/pic32mx_eth_sk_int_dyn/production/_ext/521481140/drv_ethphy.o
                0x9d0590ac                DRV_ETHPHY_Reset

.text.MPFS_Seek
                0x9d0591c4      0x118
 .text.MPFS_Seek
                0x9d0591c4      0x118 build/pic32mx_eth_sk_int_dyn/production/_ext/614935175/mpfs.o
                0x9d0591c4                MPFS_Seek

.text.SYS_FS_FileNameGet
                0x9d0592dc      0x114
 .text.SYS_FS_FileNameGet
                0x9d0592dc      0x114 build/pic32mx_eth_sk_int_dyn/production/_ext/1750042194/sys_fs.o
                0x9d0592dc                SYS_FS_FileNameGet

.text.TCPIP_ANNOUNCE_Init
                0x9d0593f0      0x114
 .text.TCPIP_ANNOUNCE_Init
                0x9d0593f0      0x114 build/pic32mx_eth_sk_int_dyn/production/_ext/1164207549/tcpip_announce.o
                0x9d0593f0                TCPIP_ANNOUNCE_Init

.text.TCPIP_UDP_ArrayPut
                0x9d059504      0x114
 .text.TCPIP_UDP_ArrayPut
                0x9d059504      0x114 build/pic32mx_eth_sk_int_dyn/production/_ext/1164207549/udp.o
                0x9d059504                TCPIP_UDP_ArrayPut

.text.DRV_ETHPHY_Initialize
                0x9d059618      0x110
 .text.DRV_ETHPHY_Initialize
                0x9d059618      0x110 build/pic32mx_eth_sk_int_dyn/production/_ext/521481140/drv_ethphy.o
                0x9d059618                DRV_ETHPHY_Initialize

.text.SYS_FS_FileRead
                0x9d059728      0x110
 .text.SYS_FS_FileRead
                0x9d059728      0x110 build/pic32mx_eth_sk_int_dyn/production/_ext/1750042194/sys_fs.o
                0x9d059728                SYS_FS_FileRead

.text.SYS_FS_FileWrite
                0x9d059838      0x110
 .text.SYS_FS_FileWrite
                0x9d059838      0x110 build/pic32mx_eth_sk_int_dyn/production/_ext/1750042194/sys_fs.o
                0x9d059838                SYS_FS_FileWrite

.text.MD5AddData
                0x9d059948      0x110
 .text.MD5AddData
                0x9d059948      0x110 build/pic32mx_eth_sk_int_dyn/production/_ext/1886247299/hashes.o
                0x9d059948                MD5AddData

.text.HTTPPrint_ledSelected
                0x9d059a58      0x110
 .text.HTTPPrint_ledSelected
                0x9d059a58      0x110 build/pic32mx_eth_sk_int_dyn/production/_ext/1360937237/custom_http_app.o
                0x9d059a58                HTTPPrint_ledSelected

.text.TCPIP_SNMP_OIDStringFindByID
                0x9d059b68      0x110
 .text.TCPIP_SNMP_OIDStringFindByID
                0x9d059b68      0x110 build/pic32mx_eth_sk_int_dyn/production/_ext/1164207549/snmp.o
                0x9d059b68                TCPIP_SNMP_OIDStringFindByID

.text.TCPIP_Commands_Initialize
                0x9d059c78      0x110
 .text.TCPIP_Commands_Initialize
                0x9d059c78      0x110 build/pic32mx_eth_sk_int_dyn/production/_ext/1164207549/tcpip_commands.o
                0x9d059c78                TCPIP_Commands_Initialize

.text._SYS_CMDIO_ADD
                0x9d059d88      0x110
 .text._SYS_CMDIO_ADD
                0x9d059d88      0x110 build/pic32mx_eth_sk_int_dyn/production/_ext/1418760511/system_command.o
                0x9d059d88                _SYS_CMDIO_ADD

.text.ETH_ReceiveBufferSizeSet_Default
                0x9d059e98      0x10c
 .text.ETH_ReceiveBufferSizeSet_Default
                0x9d059e98      0x10c build/pic32mx_eth_sk_int_dyn/production/_ext/1104573755/plib_eth_legacy.o

.text._DHCPPacketFilter
                0x9d059fa4      0x10c
 .text._DHCPPacketFilter
                0x9d059fa4      0x10c build/pic32mx_eth_sk_int_dyn/production/_ext/1164207549/dhcp.o

.text._SNMPv3_CheckIfValidV3StructAnd4ByteDataLen
                0x9d05a0b0      0x10c
 .text._SNMPv3_CheckIfValidV3StructAnd4ByteDataLen
                0x9d05a0b0      0x10c build/pic32mx_eth_sk_int_dyn/production/_ext/1164207549/snmpv3.o

.text._SNMPv3_ComputeHmacShaDigest
                0x9d05a1bc      0x10c
 .text._SNMPv3_ComputeHmacShaDigest
                0x9d05a1bc      0x10c build/pic32mx_eth_sk_int_dyn/production/_ext/1164207549/snmpv3_usm.o

.text._TcpSwapHeader
                0x9d05a2c8      0x10c
 .text._TcpSwapHeader
                0x9d05a2c8      0x10c build/pic32mx_eth_sk_int_dyn/production/_ext/1164207549/tcp.o

.text._TCPIPStackIpAddFromAnyNet
                0x9d05a3d4      0x10c
 .text._TCPIPStackIpAddFromAnyNet
                0x9d05a3d4      0x10c build/pic32mx_eth_sk_int_dyn/production/_ext/1164207549/tcpip_manager.o
                0x9d05a3d4                _TCPIPStackIpAddFromAnyNet

.text.TCPIP_STACK_NetConfigGet
                0x9d05a4e0      0x10c
 .text.TCPIP_STACK_NetConfigGet
                0x9d05a4e0      0x10c build/pic32mx_eth_sk_int_dyn/production/_ext/1164207549/tcpip_manager.o
                0x9d05a4e0                TCPIP_STACK_NetConfigGet

.text.DRV_ETHMAC_LibClose
                0x9d05a5ec      0x108
 .text.DRV_ETHMAC_LibClose
                0x9d05a5ec      0x108 build/pic32mx_eth_sk_int_dyn/production/_ext/1697634946/drv_ethmac_lib.o
                0x9d05a5ec                DRV_ETHMAC_LibClose

.text._Tcpv4LinkDataSeg
                0x9d05a6f4      0x108
 .text._Tcpv4LinkDataSeg
                0x9d05a6f4      0x108 build/pic32mx_eth_sk_int_dyn/production/_ext/1164207549/tcp.o

.text.ETH_HashTableSet_Default
                0x9d05a7fc      0x104
 .text.ETH_HashTableSet_Default
                0x9d05a7fc      0x104 build/pic32mx_eth_sk_int_dyn/production/_ext/1104573755/plib_eth_legacy.o

.text._DHCPClose
                0x9d05a900      0x104
 .text._DHCPClose
                0x9d05a900      0x104 build/pic32mx_eth_sk_int_dyn/production/_ext/1164207549/dhcp.o

.text.ResetIperfCounters
                0x9d05aa04      0x104
 .text.ResetIperfCounters
                0x9d05aa04      0x104 build/pic32mx_eth_sk_int_dyn/production/_ext/1164207549/iperf.o

.text._SNMPv3_CheckIfValidIntDataType
                0x9d05ab08      0x104
 .text._SNMPv3_CheckIfValidIntDataType
                0x9d05ab08      0x104 build/pic32mx_eth_sk_int_dyn/production/_ext/1164207549/snmpv3.o

.text._SNMPv3_ComputeHmacMD5Digest
                0x9d05ac0c      0x104
 .text._SNMPv3_ComputeHmacMD5Digest
                0x9d05ac0c      0x104 build/pic32mx_eth_sk_int_dyn/production/_ext/1164207549/snmpv3_usm.o

.text._Telnet_MessageLineCheck
                0x9d05ad10      0x104
 .text._Telnet_MessageLineCheck
                0x9d05ad10      0x104 build/pic32mx_eth_sk_int_dyn/production/_ext/1164207549/telnet.o

.text.TCPIP_UDP_DestinationIPAddressSet
                0x9d05ae14      0x104
 .text.TCPIP_UDP_DestinationIPAddressSet
                0x9d05ae14      0x104 build/pic32mx_eth_sk_int_dyn/production/_ext/1164207549/udp.o
                0x9d05ae14                TCPIP_UDP_DestinationIPAddressSet

.rodata         0x9d05af18      0x104
 .rodata        0x9d05af18      0x104 c:/program files/microchip/xc32/v1.30-tc9/bin/../lib/gcc/pic32mx/4.5.2/../../../../pic32mx/lib\libc.a(ctype.o)
                0x9d05af18                _ctype

.text.hexatob   0x9d05b01c      0x100
 .text.hexatob  0x9d05b01c      0x100 build/pic32mx_eth_sk_int_dyn/production/_ext/1886247299/helpers.o
                0x9d05b01c                hexatob

.text.StateMachineUdpTxDatagram
                0x9d05b11c      0x100
 .text.StateMachineUdpTxDatagram
                0x9d05b11c      0x100 build/pic32mx_eth_sk_int_dyn/production/_ext/1164207549/iperf.o

.text.OSC_FRCDivisorSelect_Default
                0x9d05b21c       0xfc
 .text.OSC_FRCDivisorSelect_Default
                0x9d05b21c       0xfc build/pic32mx_eth_sk_int_dyn/production/_ext/52938249/sys_clk_pic32.o

.text.OSC_SysClockSelect_Default
                0x9d05b318       0xfc
 .text.OSC_SysClockSelect_Default
                0x9d05b318       0xfc build/pic32mx_eth_sk_int_dyn/production/_ext/52938249/sys_clk_pic32.o

.text._LinkReconfigure
                0x9d05b414       0xf8
 .text._LinkReconfigure
                0x9d05b414       0xf8 build/pic32mx_eth_sk_int_dyn/production/_ext/1697634946/drv_ethmac.o

.text._ARPAddCompleteEntry
                0x9d05b50c       0xf8
 .text._ARPAddCompleteEntry
                0x9d05b50c       0xf8 build/pic32mx_eth_sk_int_dyn/production/_ext/1164207549/arp.o

.text._DHCPEnable
                0x9d05b604       0xf8
 .text._DHCPEnable
                0x9d05b604       0xf8 build/pic32mx_eth_sk_int_dyn/production/_ext/1164207549/dhcp.o

.text.SNMPv3UsmOutMsgAuthParam
                0x9d05b6fc       0xf8
 .text.SNMPv3UsmOutMsgAuthParam
                0x9d05b6fc       0xf8 build/pic32mx_eth_sk_int_dyn/production/_ext/1164207549/snmpv3_usm.o
                0x9d05b6fc                SNMPv3UsmOutMsgAuthParam

.text.TCPIP_Helper_SingleListNodeRemove
                0x9d05b7f4       0xf8
 .text.TCPIP_Helper_SingleListNodeRemove
                0x9d05b7f4       0xf8 build/pic32mx_eth_sk_int_dyn/production/_ext/1164207549/tcpip_helpers.o
                0x9d05b7f4                TCPIP_Helper_SingleListNodeRemove

.text.TCPIP_PKT_PacketFree
                0x9d05b8ec       0xf8
 .text.TCPIP_PKT_PacketFree
                0x9d05b8ec       0xf8 build/pic32mx_eth_sk_int_dyn/production/_ext/1164207549/tcpip_packet.o
                0x9d05b8ec                TCPIP_PKT_PacketFree

.text.OSC_OnWaitActionSet_Default
                0x9d05b9e4       0xf4
 .text.OSC_OnWaitActionSet_Default
                0x9d05b9e4       0xf4 build/pic32mx_eth_sk_int_dyn/production/_ext/52938249/sys_clk_pic32.o

.text.OSC_UsbClockSourceSelect_Default
                0x9d05bad8       0xf4
 .text.OSC_UsbClockSourceSelect_Default
                0x9d05bad8       0xf4 build/pic32mx_eth_sk_int_dyn/production/_ext/52938249/sys_clk_pic32.o

.text.HTTPPrint_btn
                0x9d05bbcc       0xf4
 .text.HTTPPrint_btn
                0x9d05bbcc       0xf4 build/pic32mx_eth_sk_int_dyn/production/_ext/1360937237/custom_http_app.o
                0x9d05bbcc                HTTPPrint_btn

.text.TcpTxFillSegment
                0x9d05bcc0       0xf4
 .text.TcpTxFillSegment
                0x9d05bcc0       0xf4 build/pic32mx_eth_sk_int_dyn/production/_ext/1164207549/iperf.o

.text.CommandIperfStop
                0x9d05bdb4       0xf4
 .text.CommandIperfStop
                0x9d05bdb4       0xf4 build/pic32mx_eth_sk_int_dyn/production/_ext/1164207549/iperf.o

.text.TCPIP_Helper_MACAddressToString
                0x9d05bea8       0xf4
 .text.TCPIP_Helper_MACAddressToString
                0x9d05bea8       0xf4 build/pic32mx_eth_sk_int_dyn/production/_ext/1164207549/tcpip_helpers.o
                0x9d05bea8                TCPIP_Helper_MACAddressToString

.text.SYS_USERIO_DeviceDebounce
                0x9d05bf9c       0xf4
 .text.SYS_USERIO_DeviceDebounce
                0x9d05bf9c       0xf4 build/pic32mx_eth_sk_int_dyn/production/_ext/1418760511/system_userio.o
                0x9d05bf9c                SYS_USERIO_DeviceDebounce

.text.TCPIP_FTP_DeInit
                0x9d05c090       0xf0
 .text.TCPIP_FTP_DeInit
                0x9d05c090       0xf0 build/pic32mx_eth_sk_int_dyn/production/_ext/1164207549/ftp.o
                0x9d05c090                TCPIP_FTP_DeInit

.text.UdpTxFillDatagram
                0x9d05c180       0xf0
 .text.UdpTxFillDatagram
                0x9d05c180       0xf0 build/pic32mx_eth_sk_int_dyn/production/_ext/1164207549/iperf.o

.text.ProcessTCPIPMacRxEvents
                0x9d05c270       0xf0
 .text.ProcessTCPIPMacRxEvents
                0x9d05c270       0xf0 build/pic32mx_eth_sk_int_dyn/production/_ext/1164207549/tcpip_manager.o

.text._NetConfigStringToBuffer
                0x9d05c360       0xf0
 .text._NetConfigStringToBuffer
                0x9d05c360       0xf0 build/pic32mx_eth_sk_int_dyn/production/_ext/1164207549/tcpip_manager.o

.text.TCPIP_UDP_TxOffsetSet
                0x9d05c450       0xf0
 .text.TCPIP_UDP_TxOffsetSet
                0x9d05c450       0xf0 build/pic32mx_eth_sk_int_dyn/production/_ext/1164207549/udp.o
                0x9d05c450                TCPIP_UDP_TxOffsetSet

.text.strtok    0x9d05c540       0xf0
 .text.strtok   0x9d05c540       0xf0 c:/program files/microchip/xc32/v1.30-tc9/bin/../lib/gcc/pic32mx/4.5.2/../../../../pic32mx/lib\libc.a(strtok.o)
                0x9d05c540                strtok

.text.SYS_TICK_Initialize
                0x9d05c630       0xec
 .text.SYS_TICK_Initialize
                0x9d05c630       0xec build/pic32mx_eth_sk_int_dyn/production/_ext/1951764757/system_init_private.o
                0x9d05c630                SYS_TICK_Initialize

.text._MacTxPendingPackets
                0x9d05c71c       0xec
 .text._MacTxPendingPackets
                0x9d05c71c       0xec build/pic32mx_eth_sk_int_dyn/production/_ext/1697634946/drv_ethmac.o

.text._EthTxSchedList
                0x9d05c808       0xec
 .text._EthTxSchedList
                0x9d05c808       0xec build/pic32mx_eth_sk_int_dyn/production/_ext/1697634946/drv_ethmac_lib.o

.text.PLIB_ETH_MACSetAddress
                0x9d05c8f4       0xec
 .text.PLIB_ETH_MACSetAddress
                0x9d05c8f4       0xec build/pic32mx_eth_sk_int_dyn/production/_ext/1104573755/plib_eth_legacy.o
                0x9d05c8f4                PLIB_ETH_MACSetAddress

.text._LoadFATRecord
                0x9d05c9e0       0xec
 .text._LoadFATRecord
                0x9d05c9e0       0xec build/pic32mx_eth_sk_int_dyn/production/_ext/614935175/mpfs.o

.text.HTTPPrint_led
                0x9d05cacc       0xec
 .text.HTTPPrint_led
                0x9d05cacc       0xec build/pic32mx_eth_sk_int_dyn/production/_ext/1360937237/custom_http_app.o
                0x9d05cacc                HTTPPrint_led

.text.TCPIP_ARP_HashEntryDelete
                0x9d05cbb8       0xec
 .text.TCPIP_ARP_HashEntryDelete
                0x9d05cbb8       0xec build/pic32mx_eth_sk_int_dyn/production/_ext/1164207549/arp.o
                0x9d05cbb8                TCPIP_ARP_HashEntryDelete

.text.TCPIP_DHCP_Disable
                0x9d05cca4       0xec
 .text.TCPIP_DHCP_Disable
                0x9d05cca4       0xec build/pic32mx_eth_sk_int_dyn/production/_ext/1164207549/dhcp.o
                0x9d05cca4                TCPIP_DHCP_Disable

.text.TCPIP_DNS_IsResolved
                0x9d05cd90       0xec
 .text.TCPIP_DNS_IsResolved
                0x9d05cd90       0xec build/pic32mx_eth_sk_int_dyn/production/_ext/1164207549/dns.o
                0x9d05cd90                TCPIP_DNS_IsResolved

.text.TCPIP_NBNS_NamePut
                0x9d05ce7c       0xec
 .text.TCPIP_NBNS_NamePut
                0x9d05ce7c       0xec build/pic32mx_eth_sk_int_dyn/production/_ext/1164207549/nbns.o

.text.TCPIP_TCP_PutIsReady
                0x9d05cf68       0xec
 .text.TCPIP_TCP_PutIsReady
                0x9d05cf68       0xec build/pic32mx_eth_sk_int_dyn/production/_ext/1164207549/tcp.o
                0x9d05cf68                TCPIP_TCP_PutIsReady

.text.TCPIP_Helper_IPAddressToString
                0x9d05d054       0xec
 .text.TCPIP_Helper_IPAddressToString
                0x9d05d054       0xec build/pic32mx_eth_sk_int_dyn/production/_ext/1164207549/tcpip_helpers.o
                0x9d05d054                TCPIP_Helper_IPAddressToString

.text._TCPIP_ProcessTickEvent
                0x9d05d140       0xec
 .text._TCPIP_ProcessTickEvent
                0x9d05d140       0xec build/pic32mx_eth_sk_int_dyn/production/_ext/1164207549/tcpip_manager.o

.text.TCPIP_STACK_NetBiosNameSet
                0x9d05d22c       0xec
 .text.TCPIP_STACK_NetBiosNameSet
                0x9d05d22c       0xec build/pic32mx_eth_sk_int_dyn/production/_ext/1164207549/tcpip_manager.o
                0x9d05d22c                TCPIP_STACK_NetBiosNameSet

.rodata         0x9d05d318       0xe8
 .rodata        0x9d05d318       0xe8 build/pic32mx_eth_sk_int_dyn/production/_ext/184581597/drv_nvm_media.o
                0x9d05d318                nvmMediaFunctions

.text._ARPSetEntry
                0x9d05d400       0xe8
 .text._ARPSetEntry
                0x9d05d400       0xe8 build/pic32mx_eth_sk_int_dyn/production/_ext/1164207549/arp.o

.text.TCPIP_HTTP_PostValueRead
                0x9d05d4e8       0xe8
 .text.TCPIP_HTTP_PostValueRead
                0x9d05d4e8       0xe8 build/pic32mx_eth_sk_int_dyn/production/_ext/1164207549/http.o
                0x9d05d4e8                TCPIP_HTTP_PostValueRead

.text.TCPIP_IPV4_ListPurge
                0x9d05d5d0       0xe8
 .text.TCPIP_IPV4_ListPurge
                0x9d05d5d0       0xe8 build/pic32mx_eth_sk_int_dyn/production/_ext/1164207549/ipv4.o

.text.TCPIP_PKT_PacketMACFormat
                0x9d05d6b8       0xe8
 .text.TCPIP_PKT_PacketMACFormat
                0x9d05d6b8       0xe8 build/pic32mx_eth_sk_int_dyn/production/_ext/1164207549/tcpip_packet.o
                0x9d05d6b8                TCPIP_PKT_PacketMACFormat

.rodata         0x9d05d7a0       0xe8
 .rodata        0x9d05d7a0       0xe8 c:/program files/microchip/xc32/v1.30-tc9/bin/../lib/gcc/pic32mx/4.5.2/../../../../pic32mx/lib\libc.a(doprnt.o)

.text.SYS_FS_MEDIA_MANAGER_Read
                0x9d05d888       0xe4
 .text.SYS_FS_MEDIA_MANAGER_Read
                0x9d05d888       0xe4 build/pic32mx_eth_sk_int_dyn/production/_ext/1750042194/sys_fs_media_manager.o
                0x9d05d888                SYS_FS_MEDIA_MANAGER_Read

.text.TCPIP_SNMP_ClientGetNet
                0x9d05d96c       0xe4
 .text.TCPIP_SNMP_ClientGetNet
                0x9d05d96c       0xe4 build/pic32mx_eth_sk_int_dyn/production/_ext/1164207549/snmp.o
                0x9d05d96c                TCPIP_SNMP_ClientGetNet

.text.TCPIP_TCP_Deinitialize
                0x9d05da50       0xe4
 .text.TCPIP_TCP_Deinitialize
                0x9d05da50       0xe4 build/pic32mx_eth_sk_int_dyn/production/_ext/1164207549/tcp.o
                0x9d05da50                TCPIP_TCP_Deinitialize

.text.TCPIP_STACK_NetAddressSet
                0x9d05db34       0xe4
 .text.TCPIP_STACK_NetAddressSet
                0x9d05db34       0xe4 build/pic32mx_eth_sk_int_dyn/production/_ext/1164207549/tcpip_manager.o
                0x9d05db34                TCPIP_STACK_NetAddressSet

.text._TCPIPStackAsyncHandlerRegister
                0x9d05dc18       0xe4
 .text._TCPIPStackAsyncHandlerRegister
                0x9d05dc18       0xe4 build/pic32mx_eth_sk_int_dyn/production/_ext/1164207549/tcpip_manager.o
                0x9d05dc18                _TCPIPStackAsyncHandlerRegister

.text.TCPIP_UDP_Flush
                0x9d05dcfc       0xe4
 .text.TCPIP_UDP_Flush
                0x9d05dcfc       0xe4 build/pic32mx_eth_sk_int_dyn/production/_ext/1164207549/udp.o
                0x9d05dcfc                TCPIP_UDP_Flush

.text._MACDeinit
                0x9d05dde0       0xe0
 .text._MACDeinit
                0x9d05dde0       0xe0 build/pic32mx_eth_sk_int_dyn/production/_ext/1697634946/drv_ethmac.o

.text._MacRxPacketAck
                0x9d05dec0       0xe0
 .text._MacRxPacketAck
                0x9d05dec0       0xe0 build/pic32mx_eth_sk_int_dyn/production/_ext/1697634946/drv_ethmac.o

.text.TCPIP_IPV4_DeInitialize
                0x9d05dfa0       0xe0
 .text.TCPIP_IPV4_DeInitialize
                0x9d05dfa0       0xe0 build/pic32mx_eth_sk_int_dyn/production/_ext/1164207549/ipv4.o
                0x9d05dfa0                TCPIP_IPV4_DeInitialize

.text.TCPIP_SNMP_Deinitialize
                0x9d05e080       0xe0
 .text.TCPIP_SNMP_Deinitialize
                0x9d05e080       0xe0 build/pic32mx_eth_sk_int_dyn/production/_ext/1164207549/snmp.o
                0x9d05e080                TCPIP_SNMP_Deinitialize

.text._UDPFreeTxResources
                0x9d05e160       0xe0
 .text._UDPFreeTxResources
                0x9d05e160       0xe0 build/pic32mx_eth_sk_int_dyn/production/_ext/1164207549/udp.o

.text.TCPIP_UDP_SocketNetSet
                0x9d05e240       0xe0
 .text.TCPIP_UDP_SocketNetSet
                0x9d05e240       0xe0 build/pic32mx_eth_sk_int_dyn/production/_ext/1164207549/udp.o
                0x9d05e240                TCPIP_UDP_SocketNetSet

.text.SYS_TICK_TimerCreate
                0x9d05e320       0xdc
 .text.SYS_TICK_TimerCreate
                0x9d05e320       0xdc build/pic32mx_eth_sk_int_dyn/production/_ext/1951764757/system_init_private.o
                0x9d05e320                SYS_TICK_TimerCreate

.text.DRV_EXTPHY_MDIXConfigure
                0x9d05e3fc       0xdc
 .text.DRV_EXTPHY_MDIXConfigure
                0x9d05e3fc       0xdc build/pic32mx_eth_sk_int_dyn/production/_ext/521481140/drv_extphy_dp83848.o
                0x9d05e3fc                DRV_EXTPHY_MDIXConfigure

.text.DRV_NVM_MEDIA_SectorRead
                0x9d05e4d8       0xdc
 .text.DRV_NVM_MEDIA_SectorRead
                0x9d05e4d8       0xdc build/pic32mx_eth_sk_int_dyn/production/_ext/184581597/drv_nvm_media.o
                0x9d05e4d8                DRV_NVM_MEDIA_SectorRead

.text.SYS_FS_FileTell
                0x9d05e5b4       0xdc
 .text.SYS_FS_FileTell
                0x9d05e5b4       0xdc build/pic32mx_eth_sk_int_dyn/production/_ext/1750042194/sys_fs.o
                0x9d05e5b4                SYS_FS_FileTell

.text.SYS_FS_FileSize
                0x9d05e690       0xdc
 .text.SYS_FS_FileSize
                0x9d05e690       0xdc build/pic32mx_eth_sk_int_dyn/production/_ext/1750042194/sys_fs.o
                0x9d05e690                SYS_FS_FileSize

.text._HTTP_HeaderParseContentLength
                0x9d05e76c       0xdc
 .text._HTTP_HeaderParseContentLength
                0x9d05e76c       0xdc build/pic32mx_eth_sk_int_dyn/production/_ext/1164207549/http.o

.text._TCP_EphemeralPortAllocate
                0x9d05e848       0xdc
 .text._TCP_EphemeralPortAllocate
                0x9d05e848       0xdc build/pic32mx_eth_sk_int_dyn/production/_ext/1164207549/tcp.o

.text.TCPIP_STACK_NetAddressMacSet
                0x9d05e924       0xdc
 .text.TCPIP_STACK_NetAddressMacSet
                0x9d05e924       0xdc build/pic32mx_eth_sk_int_dyn/production/_ext/1164207549/tcpip_manager.o
                0x9d05e924                TCPIP_STACK_NetAddressMacSet

.text._UDPAllocateEphemeralPort
                0x9d05ea00       0xdc
 .text._UDPAllocateEphemeralPort
                0x9d05ea00       0xdc build/pic32mx_eth_sk_int_dyn/production/_ext/1164207549/udp.o

.text._SYS_ERROR_PRINT
                0x9d05eadc       0xdc
 .text._SYS_ERROR_PRINT
                0x9d05eadc       0xdc build/pic32mx_eth_sk_int_dyn/production/_ext/1418760511/system_debug.o
                0x9d05eadc                _SYS_ERROR_PRINT

.text.OSCSetPBDIV
                0x9d05ebb8       0xd8
 .text.OSCSetPBDIV
                0x9d05ebb8       0xd8 build/pic32mx_eth_sk_int_dyn/production/_ext/377798159/config_performance.o
                0x9d05ebb8                OSCSetPBDIV

.text.DRV_ETHMAC_PIC32MACOpen
                0x9d05ec90       0xd8
 .text.DRV_ETHMAC_PIC32MACOpen
                0x9d05ec90       0xd8 build/pic32mx_eth_sk_int_dyn/production/_ext/1697634946/drv_ethmac.o
                0x9d05ec90                DRV_ETHMAC_PIC32MACOpen

.text.TCPIP_ARP_Deinitialize
                0x9d05ed68       0xd8
 .text.TCPIP_ARP_Deinitialize
                0x9d05ed68       0xd8 build/pic32mx_eth_sk_int_dyn/production/_ext/1164207549/arp.o
                0x9d05ed68                TCPIP_ARP_Deinitialize

.text.StateMachineTcpListen
                0x9d05ee40       0xd8
 .text.StateMachineTcpListen
                0x9d05ee40       0xd8 build/pic32mx_eth_sk_int_dyn/production/_ext/1164207549/iperf.o

.text.TCPIP_SNMP_ReadByte
                0x9d05ef18       0xd8
 .text.TCPIP_SNMP_ReadByte
                0x9d05ef18       0xd8 build/pic32mx_eth_sk_int_dyn/production/_ext/1164207549/snmp.o
                0x9d05ef18                TCPIP_SNMP_ReadByte

.text._SNMPv3_FindOIDsFrmIncmingV3Req
                0x9d05eff0       0xd8
 .text._SNMPv3_FindOIDsFrmIncmingV3Req
                0x9d05eff0       0xd8 build/pic32mx_eth_sk_int_dyn/production/_ext/1164207549/snmpv3.o

.text._TcpClientSocketConnect
                0x9d05f0c8       0xd8
 .text._TcpClientSocketConnect
                0x9d05f0c8       0xd8 build/pic32mx_eth_sk_int_dyn/production/_ext/1164207549/tcp.o

.text._TcpCleanup
                0x9d05f1a0       0xd8
 .text._TcpCleanup
                0x9d05f1a0       0xd8 build/pic32mx_eth_sk_int_dyn/production/_ext/1164207549/tcp.o

.text.TCPIP_PKT_SocketAlloc
                0x9d05f278       0xd8
 .text.TCPIP_PKT_SocketAlloc
                0x9d05f278       0xd8 build/pic32mx_eth_sk_int_dyn/production/_ext/1164207549/tcpip_packet.o
                0x9d05f278                TCPIP_PKT_SocketAlloc

.text.DRV_ETHPHY_SMIWriteStart
                0x9d05f350       0xd4
 .text.DRV_ETHPHY_SMIWriteStart
                0x9d05f350       0xd4 build/pic32mx_eth_sk_int_dyn/production/_ext/521481140/drv_ethphy.o
                0x9d05f350                DRV_ETHPHY_SMIWriteStart

.text.TCPIP_DNS_ClientInitialize
                0x9d05f424       0xd4
 .text.TCPIP_DNS_ClientInitialize
                0x9d05f424       0xd4 build/pic32mx_eth_sk_int_dyn/production/_ext/1164207549/dns.o
                0x9d05f424                TCPIP_DNS_ClientInitialize

.text.GenericTxDone
                0x9d05f4f8       0xd4
 .text.GenericTxDone
                0x9d05f4f8       0xd4 build/pic32mx_eth_sk_int_dyn/production/_ext/1164207549/iperf.o

.text._TcpAbort
                0x9d05f5cc       0xd4
 .text._TcpAbort
                0x9d05f5cc       0xd4 build/pic32mx_eth_sk_int_dyn/production/_ext/1164207549/tcp.o

.text.TCPIP_TCP_Close
                0x9d05f6a0       0xd4
 .text.TCPIP_TCP_Close
                0x9d05f6a0       0xd4 build/pic32mx_eth_sk_int_dyn/production/_ext/1164207549/tcp.o
                0x9d05f6a0                TCPIP_TCP_Close

.text.TCPIP_HEAP_Delete
                0x9d05f774       0xd4
 .text.TCPIP_HEAP_Delete
                0x9d05f774       0xd4 build/pic32mx_eth_sk_int_dyn/production/_ext/1164207549/tcpip_heap_alloc.o
                0x9d05f774                TCPIP_HEAP_Delete

.text._SYS_RANDOM_INIT
                0x9d05f848       0xd4
 .text._SYS_RANDOM_INIT
                0x9d05f848       0xd4 build/pic32mx_eth_sk_int_dyn/production/_ext/1418760511/system_random.o
                0x9d05f848                _SYS_RANDOM_INIT

.text           0x9d05f91c       0xd4
 .text          0x9d05f91c       0xd4 c:/program files/microchip/xc32/v1.30-tc9/bin/../lib/gcc/pic32mx/4.5.2\libgcc.a(_floatundisf.o)
                0x9d05f91c                __floatundisf

.text.SYS_CLK_UsbClockSet
                0x9d05f9f0       0xd0
 .text.SYS_CLK_UsbClockSet
                0x9d05f9f0       0xd0 build/pic32mx_eth_sk_int_dyn/production/_ext/52938249/sys_clk_pic32.o
                0x9d05f9f0                SYS_CLK_UsbClockSet

.text.fnv_32_hash
                0x9d05fac0       0xd0
 .text.fnv_32_hash
                0x9d05fac0       0xd0 build/pic32mx_eth_sk_int_dyn/production/_ext/1164207549/hash_fnv.o
                0x9d05fac0                fnv_32_hash

.text.TCPIP_HTTP_ArgGet
                0x9d05fb90       0xd0
 .text.TCPIP_HTTP_ArgGet
                0x9d05fb90       0xd0 build/pic32mx_eth_sk_int_dyn/production/_ext/1164207549/http.o
                0x9d05fb90                TCPIP_HTTP_ArgGet

.text.TCPIP_SNMP_PDUIsValid
                0x9d05fc60       0xd0
 .text.TCPIP_SNMP_PDUIsValid
                0x9d05fc60       0xd0 build/pic32mx_eth_sk_int_dyn/production/_ext/1164207549/snmp.o

.text.TCPIP_SNMP_OIDsCountGet
                0x9d05fd30       0xd0
 .text.TCPIP_SNMP_OIDsCountGet
                0x9d05fd30       0xd0 build/pic32mx_eth_sk_int_dyn/production/_ext/1164207549/snmp.o

.text._TcpSocketSetSourceInterface
                0x9d05fe00       0xd0
 .text._TcpSocketSetSourceInterface
                0x9d05fe00       0xd0 build/pic32mx_eth_sk_int_dyn/production/_ext/1164207549/tcp.o

.text._TcpAllocateTxPacket
                0x9d05fed0       0xd0
 .text._TcpAllocateTxPacket
                0x9d05fed0       0xd0 build/pic32mx_eth_sk_int_dyn/production/_ext/1164207549/tcp.o

.text.TCPIP_STACK_IsBcastAddress
                0x9d05ffa0       0xd0
 .text.TCPIP_STACK_IsBcastAddress
                0x9d05ffa0       0xd0 build/pic32mx_eth_sk_int_dyn/production/_ext/1164207549/tcpip_manager.o
                0x9d05ffa0                TCPIP_STACK_IsBcastAddress

.text.general_exception
                0x9d060070       0xd0
 .text.general_exception
                0x9d060070       0xd0 c:/program files/microchip/xc32/v1.30-tc9/bin/../lib/gcc/pic32mx/4.5.2/../../../../pic32mx/lib\libpic32.a(general-exception.o)
                0x9d060070                _general_exception_context

.rodata         0x9d060140       0xd0
 .rodata        0x9d060140       0xd0 c:/program files/microchip/xc32/v1.30-tc9/bin/../lib/gcc/pic32mx/4.5.2/../../../../pic32mx/lib\libc.a(doprnt_cdnopsuxX.eo)

.text.DRV_ETHMAC_LibDescriptorsPoolCleanUp
                0x9d060210       0xcc
 .text.DRV_ETHMAC_LibDescriptorsPoolCleanUp
                0x9d060210       0xcc build/pic32mx_eth_sk_int_dyn/production/_ext/1697634946/drv_ethmac_lib.o
                0x9d060210                DRV_ETHMAC_LibDescriptorsPoolCleanUp

.text._EnetPoolFreeDcptList
                0x9d0602dc       0xcc
 .text._EnetPoolFreeDcptList
                0x9d0602dc       0xcc build/pic32mx_eth_sk_int_dyn/production/_ext/1697634946/drv_ethmac_lib.o

.text.TCPIP_TCP_DestinationIPAddressSet
                0x9d0603a8       0xcc
 .text.TCPIP_TCP_DestinationIPAddressSet
                0x9d0603a8       0xcc build/pic32mx_eth_sk_int_dyn/production/_ext/1164207549/tcp.o
                0x9d0603a8                TCPIP_TCP_DestinationIPAddressSet

.text.TCPIP_STACK_NetAddressGatewaySet
                0x9d060474       0xcc
 .text.TCPIP_STACK_NetAddressGatewaySet
                0x9d060474       0xcc build/pic32mx_eth_sk_int_dyn/production/_ext/1164207549/tcpip_manager.o
                0x9d060474                TCPIP_STACK_NetAddressGatewaySet

.text.SetPic32MXIoPins
                0x9d060540       0xc8
 .text.SetPic32MXIoPins
                0x9d060540       0xc8 build/pic32mx_eth_sk_int_dyn/production/_ext/1951764757/system_init.o

.text.HTTPPrintIP
                0x9d060608       0xc8
 .text.HTTPPrintIP
                0x9d060608       0xc8 build/pic32mx_eth_sk_int_dyn/production/_ext/1360937237/custom_http_app.o
                0x9d060608                HTTPPrintIP

.text.DNSRetry  0x9d0606d0       0xc8
 .text.DNSRetry
                0x9d0606d0       0xc8 build/pic32mx_eth_sk_int_dyn/production/_ext/1164207549/dns.o

.text.DNSDiscardName
                0x9d060798       0xc8
 .text.DNSDiscardName
                0x9d060798       0xc8 build/pic32mx_eth_sk_int_dyn/production/_ext/1164207549/dns.o

.text.TCPIP_Helper_FormatNetBIOSName
                0x9d060860       0xc8
 .text.TCPIP_Helper_FormatNetBIOSName
                0x9d060860       0xc8 build/pic32mx_eth_sk_int_dyn/production/_ext/1164207549/tcpip_helpers.o
                0x9d060860                TCPIP_Helper_FormatNetBIOSName

.text._InitNetConfig
                0x9d060928       0xc8
 .text._InitNetConfig
                0x9d060928       0xc8 build/pic32mx_eth_sk_int_dyn/production/_ext/1164207549/tcpip_manager.o

.text.TCPIP_PKT_Initialize
                0x9d0609f0       0xc8
 .text.TCPIP_PKT_Initialize
                0x9d0609f0       0xc8 build/pic32mx_eth_sk_int_dyn/production/_ext/1164207549/tcpip_packet.o
                0x9d0609f0                TCPIP_PKT_Initialize

.text._Telnet_CommandsSkip
                0x9d060ab8       0xc8
 .text._Telnet_CommandsSkip
                0x9d060ab8       0xc8 build/pic32mx_eth_sk_int_dyn/production/_ext/1164207549/telnet.o

.text.INT_VectorPrioritySet_Default
                0x9d060b80       0xc4
 .text.INT_VectorPrioritySet_Default
                0x9d060b80       0xc4 build/pic32mx_eth_sk_int_dyn/production/_ext/1951764757/system_init_private.o

.text.DRV_ETHPHY_SMIReadStart
                0x9d060c44       0xc4
 .text.DRV_ETHPHY_SMIReadStart
                0x9d060c44       0xc4 build/pic32mx_eth_sk_int_dyn/production/_ext/521481140/drv_ethphy.o
                0x9d060c44                DRV_ETHPHY_SMIReadStart

.text.SYS_CLK_FRCClosestDivisorGet
                0x9d060d08       0xc4
 .text.SYS_CLK_FRCClosestDivisorGet
                0x9d060d08       0xc4 build/pic32mx_eth_sk_int_dyn/production/_ext/52938249/sys_clk_pic32.o
                0x9d060d08                SYS_CLK_FRCClosestDivisorGet

.text.SYS_CLK_PeripheralClosestDivisorGet
                0x9d060dcc       0xc4
 .text.SYS_CLK_PeripheralClosestDivisorGet
                0x9d060dcc       0xc4 build/pic32mx_eth_sk_int_dyn/production/_ext/52938249/sys_clk_pic32.o
                0x9d060dcc                SYS_CLK_PeripheralClosestDivisorGet

.text.TCPIP_DHCP_IsEnabled
                0x9d060e90       0xc4
 .text.TCPIP_DHCP_IsEnabled
                0x9d060e90       0xc4 build/pic32mx_eth_sk_int_dyn/production/_ext/1164207549/dhcp.o
                0x9d060e90                TCPIP_DHCP_IsEnabled

.text.TCPIP_TCP_SocketInfoGet
                0x9d060f54       0xc4
 .text.TCPIP_TCP_SocketInfoGet
                0x9d060f54       0xc4 build/pic32mx_eth_sk_int_dyn/production/_ext/1164207549/tcp.o
                0x9d060f54                TCPIP_TCP_SocketInfoGet

.text._TCPIP_HEAP_CallocDebug
                0x9d061018       0xc4
 .text._TCPIP_HEAP_CallocDebug
                0x9d061018       0xc4 build/pic32mx_eth_sk_int_dyn/production/_ext/1164207549/tcpip_heap_alloc.o
                0x9d061018                _TCPIP_HEAP_CallocDebug

.text.TCPIP_STACK_NetAddressBcast
                0x9d0610dc       0xc4
 .text.TCPIP_STACK_NetAddressBcast
                0x9d0610dc       0xc4 build/pic32mx_eth_sk_int_dyn/production/_ext/1164207549/tcpip_manager.o
                0x9d0610dc                TCPIP_STACK_NetAddressBcast

.text._UDPResetRxPacket
                0x9d0611a0       0xc4
 .text._UDPResetRxPacket
                0x9d0611a0       0xc4 build/pic32mx_eth_sk_int_dyn/production/_ext/1164207549/udp.o

.text.TCPIP_UDP_SocketInfoGet
                0x9d061264       0xc4
 .text.TCPIP_UDP_SocketInfoGet
                0x9d061264       0xc4 build/pic32mx_eth_sk_int_dyn/production/_ext/1164207549/udp.o
                0x9d061264                TCPIP_UDP_SocketInfoGet

.text.CmdAddHead
                0x9d061328       0xc4
 .text.CmdAddHead
                0x9d061328       0xc4 build/pic32mx_eth_sk_int_dyn/production/_ext/1418760511/system_command.o

.text._sbrk     0x9d0613ec       0xc4
 .text._sbrk    0x9d0613ec       0xc4 c:/program files/microchip/xc32/v1.30-tc9/bin/../lib/gcc/pic32mx/4.5.2/../../../../pic32mx/lib\libpic32.a(sbrk.o)
                0x9d0613ec                _sbrk

.text.TCPIP_FTP_Verify
                0x9d0614b0       0xc0
 .text.TCPIP_FTP_Verify
                0x9d0614b0       0xc0 build/pic32mx_eth_sk_int_dyn/production/_ext/1164207549/ftp.o
                0x9d0614b0                TCPIP_FTP_Verify

.text.TCPIP_SMTP_UsageEnd
                0x9d061570       0xc0
 .text.TCPIP_SMTP_UsageEnd
                0x9d061570       0xc0 build/pic32mx_eth_sk_int_dyn/production/_ext/1164207549/smtp.o
                0x9d061570                TCPIP_SMTP_UsageEnd

.text.TCPIP_SNMP_SNMPStructureIsValid
                0x9d061630       0xc0
 .text.TCPIP_SNMP_SNMPStructureIsValid
                0x9d061630       0xc0 build/pic32mx_eth_sk_int_dyn/production/_ext/1164207549/snmp.o
                0x9d061630                TCPIP_SNMP_SNMPStructureIsValid

.text.TCPIP_STACK_NetMask
                0x9d0616f0       0xc0
 .text.TCPIP_STACK_NetMask
                0x9d0616f0       0xc0 build/pic32mx_eth_sk_int_dyn/production/_ext/1164207549/tcpip_manager.o
                0x9d0616f0                TCPIP_STACK_NetMask

.text.TCPIP_STACK_NetAddressMac
                0x9d0617b0       0xc0
 .text.TCPIP_STACK_NetAddressMac
                0x9d0617b0       0xc0 build/pic32mx_eth_sk_int_dyn/production/_ext/1164207549/tcpip_manager.o
                0x9d0617b0                TCPIP_STACK_NetAddressMac

.text.TCPIP_STACK_NetIsLinked
                0x9d061870       0xc0
 .text.TCPIP_STACK_NetIsLinked
                0x9d061870       0xc0 build/pic32mx_eth_sk_int_dyn/production/_ext/1164207549/tcpip_manager.o
                0x9d061870                TCPIP_STACK_NetIsLinked

.text.INT_VectorSubPrioritySet_Default
                0x9d061930       0xbc
 .text.INT_VectorSubPrioritySet_Default
                0x9d061930       0xbc build/pic32mx_eth_sk_int_dyn/production/_ext/1951764757/system_init_private.o

.text.APP_Initialize
                0x9d0619ec       0xbc
 .text.APP_Initialize
                0x9d0619ec       0xbc build/pic32mx_eth_sk_int_dyn/production/_ext/1360937237/app.o
                0x9d0619ec                APP_Initialize

.text.DRV_EXTPHY_MIIConfigure
                0x9d061aa8       0xbc
 .text.DRV_EXTPHY_MIIConfigure
                0x9d061aa8       0xbc build/pic32mx_eth_sk_int_dyn/production/_ext/521481140/drv_extphy_dp83848.o
                0x9d061aa8                DRV_EXTPHY_MIIConfigure

.text._ARPRemoveEntry
                0x9d061b64       0xbc
 .text._ARPRemoveEntry
                0x9d061b64       0xbc build/pic32mx_eth_sk_int_dyn/production/_ext/1164207549/arp.o

.text.TCPIP_OAHASH_EntriesRemoveAll
                0x9d061c20       0xbc
 .text.TCPIP_OAHASH_EntriesRemoveAll
                0x9d061c20       0xbc build/pic32mx_eth_sk_int_dyn/production/_ext/1164207549/oahash.o
                0x9d061c20                TCPIP_OAHASH_EntriesRemoveAll

.text.TCPIP_Helper_StringToPowerMode
                0x9d061cdc       0xbc
 .text.TCPIP_Helper_StringToPowerMode
                0x9d061cdc       0xbc build/pic32mx_eth_sk_int_dyn/production/_ext/1164207549/tcpip_helpers.o
                0x9d061cdc                TCPIP_Helper_StringToPowerMode

.text.TCPIP_STACK_NetAddressDnsPrimarySet
                0x9d061d98       0xbc
 .text.TCPIP_STACK_NetAddressDnsPrimarySet
                0x9d061d98       0xbc build/pic32mx_eth_sk_int_dyn/production/_ext/1164207549/tcpip_manager.o
                0x9d061d98                TCPIP_STACK_NetAddressDnsPrimarySet

.text._UDPv4IsTxPutReady
                0x9d061e54       0xbc
 .text._UDPv4IsTxPutReady
                0x9d061e54       0xbc build/pic32mx_eth_sk_int_dyn/production/_ext/1164207549/udp.o

.text._SYS_COMMAND_INIT
                0x9d061f10       0xbc
 .text._SYS_COMMAND_INIT
                0x9d061f10       0xbc build/pic32mx_eth_sk_int_dyn/production/_ext/1418760511/system_command.o
                0x9d061f10                _SYS_COMMAND_INIT

.text.ETH_BackToBackIPGSet_Default
                0x9d061fcc       0xb8
 .text.ETH_BackToBackIPGSet_Default
                0x9d061fcc       0xb8 build/pic32mx_eth_sk_int_dyn/production/_ext/1697634946/drv_ethmac_lib.o

.text.ETH_NonBackToBackIPG1Set_Default
                0x9d062084       0xb8
 .text.ETH_NonBackToBackIPG1Set_Default
                0x9d062084       0xb8 build/pic32mx_eth_sk_int_dyn/production/_ext/1697634946/drv_ethmac_lib.o

.text.ETH_NonBackToBackIPG2Set_Default
                0x9d06213c       0xb8
 .text.ETH_NonBackToBackIPG2Set_Default
                0x9d06213c       0xb8 build/pic32mx_eth_sk_int_dyn/production/_ext/1697634946/drv_ethmac_lib.o

.text.ETH_CollisionWindowSet_Default
                0x9d0621f4       0xb8
 .text.ETH_CollisionWindowSet_Default
                0x9d0621f4       0xb8 build/pic32mx_eth_sk_int_dyn/production/_ext/1697634946/drv_ethmac_lib.o

.text.ETH_ReTxMaxSet_Default
                0x9d0622ac       0xb8
 .text.ETH_ReTxMaxSet_Default
                0x9d0622ac       0xb8 build/pic32mx_eth_sk_int_dyn/production/_ext/1697634946/drv_ethmac_lib.o

.text.ETH_MaxFrameLengthSet_Default
                0x9d062364       0xb8
 .text.ETH_MaxFrameLengthSet_Default
                0x9d062364       0xb8 build/pic32mx_eth_sk_int_dyn/production/_ext/1697634946/drv_ethmac_lib.o

.text.ETH_PHYAddressSet_Default
                0x9d06241c       0xb8
 .text.ETH_PHYAddressSet_Default
                0x9d06241c       0xb8 build/pic32mx_eth_sk_int_dyn/production/_ext/521481140/drv_ethphy.o

.text.ETH_RegisterAddressSet_Default
                0x9d0624d4       0xb8
 .text.ETH_RegisterAddressSet_Default
                0x9d0624d4       0xb8 build/pic32mx_eth_sk_int_dyn/production/_ext/521481140/drv_ethphy.o

.text.ETH_MaxFrameLengthSet_Default
                0x9d06258c       0xb8
 .text.ETH_MaxFrameLengthSet_Default
                0x9d06258c       0xb8 build/pic32mx_eth_sk_int_dyn/production/_ext/1104573755/plib_eth_legacy.o

.text._ARPNotifyClients
                0x9d062644       0xb8
 .text._ARPNotifyClients
                0x9d062644       0xb8 build/pic32mx_eth_sk_int_dyn/production/_ext/1164207549/arp.o

.text.TCPIP_DHCP_Request
                0x9d0626fc       0xb8
 .text.TCPIP_DHCP_Request
                0x9d0626fc       0xb8 build/pic32mx_eth_sk_int_dyn/production/_ext/1164207549/dhcp.o
                0x9d0626fc                TCPIP_DHCP_Request

.text._SNMPv3_CheckIfv3ASNNull
                0x9d0627b4       0xb8
 .text._SNMPv3_CheckIfv3ASNNull
                0x9d0627b4       0xb8 build/pic32mx_eth_sk_int_dyn/production/_ext/1164207549/snmpv3.o

.text._TCPIsGetReady
                0x9d06286c       0xb8
 .text._TCPIsGetReady
                0x9d06286c       0xb8 build/pic32mx_eth_sk_int_dyn/production/_ext/1164207549/tcp.o

.text.TCPIP_STACK_NetDefaultSet
                0x9d062924       0xb8
 .text.TCPIP_STACK_NetDefaultSet
                0x9d062924       0xb8 build/pic32mx_eth_sk_int_dyn/production/_ext/1164207549/tcpip_manager.o
                0x9d062924                TCPIP_STACK_NetDefaultSet

.text._SYS_DEBUG_INIT
                0x9d0629dc       0xb8
 .text._SYS_DEBUG_INIT
                0x9d0629dc       0xb8 build/pic32mx_eth_sk_int_dyn/production/_ext/1418760511/system_debug.o
                0x9d0629dc                _SYS_DEBUG_INIT

.text._SYS_CONSOLE_INIT
                0x9d062a94       0xb8
 .text._SYS_CONSOLE_INIT
                0x9d062a94       0xb8 build/pic32mx_eth_sk_int_dyn/production/_ext/1418760511/system_debug.o
                0x9d062a94                _SYS_CONSOLE_INIT

.text._MacRxFreeCallback
                0x9d062b4c       0xb4
 .text._MacRxFreeCallback
                0x9d062b4c       0xb4 build/pic32mx_eth_sk_int_dyn/production/_ext/1697634946/drv_ethmac.o

.text.TCPIP_SNMP_NotifyPrepare
                0x9d062c00       0xb4
 .text.TCPIP_SNMP_NotifyPrepare
                0x9d062c00       0xb4 build/pic32mx_eth_sk_int_dyn/production/_ext/1164207549/snmp.o
                0x9d062c00                TCPIP_SNMP_NotifyPrepare

.text.TCPIP_SNMP_PvtMIBObjIsRequested
                0x9d062cb4       0xb4
 .text.TCPIP_SNMP_PvtMIBObjIsRequested
                0x9d062cb4       0xb4 build/pic32mx_eth_sk_int_dyn/production/_ext/1164207549/snmp.o

.text._SNMPv3_ComputeMd5HmacCode
                0x9d062d68       0xb4
 .text._SNMPv3_ComputeMd5HmacCode
                0x9d062d68       0xb4 build/pic32mx_eth_sk_int_dyn/production/_ext/1164207549/snmpv3_usm.o

.text._SNMPv3_ComputeShaHmacCode
                0x9d062e1c       0xb4
 .text._SNMPv3_ComputeShaHmacCode
                0x9d062e1c       0xb4 build/pic32mx_eth_sk_int_dyn/production/_ext/1164207549/snmpv3_usm.o

.text._TcpSocketInitialize
                0x9d062ed0       0xb4
 .text._TcpSocketInitialize
                0x9d062ed0       0xb4 build/pic32mx_eth_sk_int_dyn/production/_ext/1164207549/tcp.o

.text.TCPIP_TCP_RemoteBind
                0x9d062f84       0xb4
 .text.TCPIP_TCP_RemoteBind
                0x9d062f84       0xb4 build/pic32mx_eth_sk_int_dyn/production/_ext/1164207549/tcp.o
                0x9d062f84                TCPIP_TCP_RemoteBind

.text.TCPIP_STACK_NetAddressGateway
                0x9d063038       0xb4
 .text.TCPIP_STACK_NetAddressGateway
                0x9d063038       0xb4 build/pic32mx_eth_sk_int_dyn/production/_ext/1164207549/tcpip_manager.o
                0x9d063038                TCPIP_STACK_NetAddressGateway

.text.TCPIP_STACK_NetAddressDnsPrimary
                0x9d0630ec       0xb4
 .text.TCPIP_STACK_NetAddressDnsPrimary
                0x9d0630ec       0xb4 build/pic32mx_eth_sk_int_dyn/production/_ext/1164207549/tcpip_manager.o
                0x9d0630ec                TCPIP_STACK_NetAddressDnsPrimary

.text.TCPIP_STACK_NetAddressDnsSecond
                0x9d0631a0       0xb4
 .text.TCPIP_STACK_NetAddressDnsSecond
                0x9d0631a0       0xb4 build/pic32mx_eth_sk_int_dyn/production/_ext/1164207549/tcpip_manager.o
                0x9d0631a0                TCPIP_STACK_NetAddressDnsSecond

.text.TCPIP_STACK_NetBIOSName
                0x9d063254       0xb4
 .text.TCPIP_STACK_NetBIOSName
                0x9d063254       0xb4 build/pic32mx_eth_sk_int_dyn/production/_ext/1164207549/tcpip_manager.o
                0x9d063254                TCPIP_STACK_NetBIOSName

.text._UDPSetSourceAddress
                0x9d063308       0xb4
 .text._UDPSetSourceAddress
                0x9d063308       0xb4 build/pic32mx_eth_sk_int_dyn/production/_ext/1164207549/udp.o

.text._mon_putc
                0x9d0633bc       0xb4
 .text._mon_putc
                0x9d0633bc       0xb4 c:/program files/microchip/xc32/v1.30-tc9/bin/../lib/gcc/pic32mx/4.5.2/../../../../pic32mx/lib\libpic32.a(_mon_putc.o)
                0x9d0633bc                _mon_putc

.text.DRV_ETHMAC_PIC32MACTeardown
                0x9d063470       0xb0
 .text.DRV_ETHMAC_PIC32MACTeardown
                0x9d063470       0xb0 build/pic32mx_eth_sk_int_dyn/production/_ext/1697634946/drv_ethmac.o
                0x9d063470                DRV_ETHMAC_PIC32MACTeardown

.text.MPFSGetSize
                0x9d063520       0xb0
 .text.MPFSGetSize
                0x9d063520       0xb0 build/pic32mx_eth_sk_int_dyn/production/_ext/614935175/mpfs.o
                0x9d063520                MPFSGetSize

.text.MPFSGetStartAddr
                0x9d0635d0       0xb0
 .text.MPFSGetStartAddr
                0x9d0635d0       0xb0 build/pic32mx_eth_sk_int_dyn/production/_ext/614935175/mpfs.o
                0x9d0635d0                MPFSGetStartAddr

.text._ARPRemoveCacheEntries
                0x9d063680       0xb0
 .text._ARPRemoveCacheEntries
                0x9d063680       0xb0 build/pic32mx_eth_sk_int_dyn/production/_ext/1164207549/arp.o

.text.TCPIP_ARP_HandlerRegister
                0x9d063730       0xb0
 .text.TCPIP_ARP_HandlerRegister
                0x9d063730       0xb0 build/pic32mx_eth_sk_int_dyn/production/_ext/1164207549/arp.o
                0x9d063730                TCPIP_ARP_HandlerRegister

.text.TCPIP_FTP_CmdsParse
                0x9d0637e0       0xb0
 .text.TCPIP_FTP_CmdsParse
                0x9d0637e0       0xb0 build/pic32mx_eth_sk_int_dyn/production/_ext/1164207549/ftp.o

.text.TCPIP_IPV4_VerifyPktIf
                0x9d063890       0xb0
 .text.TCPIP_IPV4_VerifyPktIf
                0x9d063890       0xb0 build/pic32mx_eth_sk_int_dyn/production/_ext/1164207549/ipv4.o

.text.TCPIP_SNMPv3_Initialize
                0x9d063940       0xb0
 .text.TCPIP_SNMPv3_Initialize
                0x9d063940       0xb0 build/pic32mx_eth_sk_int_dyn/production/_ext/1164207549/snmpv3.o
                0x9d063940                TCPIP_SNMPv3_Initialize

.text._SNMPv3_AuthKeyZeroingToHmacBufLen64
                0x9d0639f0       0xb0
 .text._SNMPv3_AuthKeyZeroingToHmacBufLen64
                0x9d0639f0       0xb0 build/pic32mx_eth_sk_int_dyn/production/_ext/1164207549/snmpv3_usm.o

.text.TCPIP_ANNOUNCE_DeInit
                0x9d063aa0       0xb0
 .text.TCPIP_ANNOUNCE_DeInit
                0x9d063aa0       0xb0 build/pic32mx_eth_sk_int_dyn/production/_ext/1164207549/tcpip_announce.o
                0x9d063aa0                TCPIP_ANNOUNCE_DeInit

.text._TCPIP_HEAP_MallocDebug
                0x9d063b50       0xb0
 .text._TCPIP_HEAP_MallocDebug
                0x9d063b50       0xb0 build/pic32mx_eth_sk_int_dyn/production/_ext/1164207549/tcpip_heap_alloc.o
                0x9d063b50                _TCPIP_HEAP_MallocDebug

.text.TCPIP_STACK_NetworkAddressSet
                0x9d063c00       0xb0
 .text.TCPIP_STACK_NetworkAddressSet
                0x9d063c00       0xb0 build/pic32mx_eth_sk_int_dyn/production/_ext/1164207549/tcpip_manager.o
                0x9d063c00                TCPIP_STACK_NetworkAddressSet

.text.TCPIP_TELNET_Deinitialize
                0x9d063cb0       0xb0
 .text.TCPIP_TELNET_Deinitialize
                0x9d063cb0       0xb0 build/pic32mx_eth_sk_int_dyn/production/_ext/1164207549/telnet.o
                0x9d063cb0                TCPIP_TELNET_Deinitialize

.text.CommandQuit
                0x9d063d60       0xb0
 .text.CommandQuit
                0x9d063d60       0xb0 build/pic32mx_eth_sk_int_dyn/production/_ext/1418760511/system_command.o

.text.CmdRemoveTail
                0x9d063e10       0xb0
 .text.CmdRemoveTail
                0x9d063e10       0xb0 build/pic32mx_eth_sk_int_dyn/production/_ext/1418760511/system_command.o

.text.ETH_MIIMClockSet_Default
                0x9d063ec0       0xac
 .text.ETH_MIIMClockSet_Default
                0x9d063ec0       0xac build/pic32mx_eth_sk_int_dyn/production/_ext/521481140/drv_ethphy.o

.text.DRV_ETHPHY_Open
                0x9d063f6c       0xac
 .text.DRV_ETHPHY_Open
                0x9d063f6c       0xac build/pic32mx_eth_sk_int_dyn/production/_ext/521481140/drv_ethphy.o
                0x9d063f6c                DRV_ETHPHY_Open

.text.DRV_ETHPHY_HWConfigFlagsGet
                0x9d064018       0xac
 .text.DRV_ETHPHY_HWConfigFlagsGet
                0x9d064018       0xac build/pic32mx_eth_sk_int_dyn/production/_ext/521481140/drv_ethphy.o
                0x9d064018                DRV_ETHPHY_HWConfigFlagsGet

.text.OSC_SecondaryEnable_Default
                0x9d0640c4       0xac
 .text.OSC_SecondaryEnable_Default
                0x9d0640c4       0xac build/pic32mx_eth_sk_int_dyn/production/_ext/52938249/sys_clk_pic32.o

.text.OSC_SecondaryDisable_Default
                0x9d064170       0xac
 .text.OSC_SecondaryDisable_Default
                0x9d064170       0xac build/pic32mx_eth_sk_int_dyn/production/_ext/52938249/sys_clk_pic32.o

.text.HTTPPrint_cookiename
                0x9d06421c       0xac
 .text.HTTPPrint_cookiename
                0x9d06421c       0xac build/pic32mx_eth_sk_int_dyn/production/_ext/1360937237/custom_http_app.o
                0x9d06421c                HTTPPrint_cookiename

.text.HTTPPrint_cookiefav
                0x9d0642c8       0xac
 .text.HTTPPrint_cookiefav
                0x9d0642c8       0xac build/pic32mx_eth_sk_int_dyn/production/_ext/1360937237/custom_http_app.o
                0x9d0642c8                HTTPPrint_cookiefav

.text.TCPIP_DHCP_Enable
                0x9d064374       0xac
 .text.TCPIP_DHCP_Enable
                0x9d064374       0xac build/pic32mx_eth_sk_int_dyn/production/_ext/1164207549/dhcp.o
                0x9d064374                TCPIP_DHCP_Enable

.text.TCPIP_DHCP_Renew
                0x9d064420       0xac
 .text.TCPIP_DHCP_Renew
                0x9d064420       0xac build/pic32mx_eth_sk_int_dyn/production/_ext/1164207549/dhcp.o
                0x9d064420                TCPIP_DHCP_Renew

.rodata         0x9d0644cc       0xac
 .rodata        0x9d0644cc       0xac build/pic32mx_eth_sk_int_dyn/production/_ext/1164207549/snmp.o

.text.TCPIP_TCP_IsConnected
                0x9d064578       0xac
 .text.TCPIP_TCP_IsConnected
                0x9d064578       0xac build/pic32mx_eth_sk_int_dyn/production/_ext/1164207549/tcp.o
                0x9d064578                TCPIP_TCP_IsConnected

.rodata         0x9d064624       0xa8
 .rodata        0x9d064624       0xa8 build/pic32mx_eth_sk_int_dyn/production/_ext/1360937237/app.o

.text.SYSTEMConfigWaitStatesAndPB
                0x9d0646cc       0xa8
 .text.SYSTEMConfigWaitStatesAndPB
                0x9d0646cc       0xa8 build/pic32mx_eth_sk_int_dyn/production/_ext/377798159/config_performance.o
                0x9d0646cc                SYSTEMConfigWaitStatesAndPB

.text.ETH_MIIMWriteDataSet_Default
                0x9d064774       0xa8
 .text.ETH_MIIMWriteDataSet_Default
                0x9d064774       0xa8 build/pic32mx_eth_sk_int_dyn/production/_ext/521481140/drv_ethphy.o

.text.SYS_FS_MEDIA_MANAGER_AddressGet
                0x9d06481c       0xa8
 .text.SYS_FS_MEDIA_MANAGER_AddressGet
                0x9d06481c       0xa8 build/pic32mx_eth_sk_int_dyn/production/_ext/1750042194/sys_fs_media_manager.o
                0x9d06481c                SYS_FS_MEDIA_MANAGER_AddressGet

.text.TCPIP_DNS_Resolve
                0x9d0648c4       0xa8
 .text.TCPIP_DNS_Resolve
                0x9d0648c4       0xa8 build/pic32mx_eth_sk_int_dyn/production/_ext/1164207549/dns.o
                0x9d0648c4                TCPIP_DNS_Resolve

.text.StateMachineTcpTxSegment
                0x9d06496c       0xa8
 .text.StateMachineTcpTxSegment
                0x9d06496c       0xa8 build/pic32mx_eth_sk_int_dyn/production/_ext/1164207549/iperf.o

.text.TCPIP_STACK_NetByAddress
                0x9d064a14       0xa8
 .text.TCPIP_STACK_NetByAddress
                0x9d064a14       0xa8 build/pic32mx_eth_sk_int_dyn/production/_ext/1164207549/tcpip_manager.o
                0x9d064a14                TCPIP_STACK_NetByAddress

.text.TCPIP_STACK_NetAddress
                0x9d064abc       0xa8
 .text.TCPIP_STACK_NetAddress
                0x9d064abc       0xa8 build/pic32mx_eth_sk_int_dyn/production/_ext/1164207549/tcpip_manager.o
                0x9d064abc                TCPIP_STACK_NetAddress

.text.TCPIP_STACK_StringToMACId
                0x9d064b64       0xa8
 .text.TCPIP_STACK_StringToMACId
                0x9d064b64       0xa8 build/pic32mx_eth_sk_int_dyn/production/_ext/1164207549/tcpip_manager.o
                0x9d064b64                TCPIP_STACK_StringToMACId

.text.TCPIP_UDP_RemoteBind
                0x9d064c0c       0xa8
 .text.TCPIP_UDP_RemoteBind
                0x9d064c0c       0xa8 build/pic32mx_eth_sk_int_dyn/production/_ext/1164207549/udp.o
                0x9d064c0c                TCPIP_UDP_RemoteBind

.text._SYS_ERROR
                0x9d064cb4       0xa8
 .text._SYS_ERROR
                0x9d064cb4       0xa8 build/pic32mx_eth_sk_int_dyn/production/_ext/1418760511/system_debug.o
                0x9d064cb4                _SYS_ERROR

.text           0x9d064d5c       0xa8
 .text          0x9d064d5c       0xa8 c:/program files/microchip/xc32/v1.30-tc9/bin/../lib/gcc/pic32mx/4.5.2/../../../../pic32mx/lib\libpic32.a(memset.o)
                0x9d064d5c                memset

.text.atoi      0x9d064e04       0xa8
 .text.atoi     0x9d064e04       0xa8 c:/program files/microchip/xc32/v1.30-tc9/bin/../lib/gcc/pic32mx/4.5.2/../../../../pic32mx/lib\libc.a(atoi.o)
                0x9d064e04                atoi

.text.atol      0x9d064eac       0xa8
 .text.atol     0x9d064eac       0xa8 c:/program files/microchip/xc32/v1.30-tc9/bin/../lib/gcc/pic32mx/4.5.2/../../../../pic32mx/lib\libc.a(atol.o)
                0x9d064eac                atol

.text.BSP_Initialize
                0x9d064f54       0xa4
 .text.BSP_Initialize
                0x9d064f54       0xa4 build/pic32mx_eth_sk_int_dyn/production/_ext/1951764757/bsp_sys_init.o
                0x9d064f54                BSP_Initialize

.text.ETH_RMIISpeedSet_Default
                0x9d064ff8       0xa4
 .text.ETH_RMIISpeedSet_Default
                0x9d064ff8       0xa4 build/pic32mx_eth_sk_int_dyn/production/_ext/1697634946/drv_ethmac_lib.o

.rodata         0x9d06509c       0xa4
 .rodata        0x9d06509c       0xa4 build/pic32mx_eth_sk_int_dyn/production/_ext/521481140/drv_ethphy.o

.text._DRV_ETHPHY_ClientObjectAllocate
                0x9d065140       0xa4
 .text._DRV_ETHPHY_ClientObjectAllocate
                0x9d065140       0xa4 build/pic32mx_eth_sk_int_dyn/production/_ext/521481140/drv_ethphy.o
                0x9d065140                _DRV_ETHPHY_ClientObjectAllocate

.text.HTTPPrint_hellomsg
                0x9d0651e4       0xa4
 .text.HTTPPrint_hellomsg
                0x9d0651e4       0xa4 build/pic32mx_eth_sk_int_dyn/production/_ext/1360937237/custom_http_app.o
                0x9d0651e4                HTTPPrint_hellomsg

.text._DHCPNotifyClients
                0x9d065288       0xa4
 .text._DHCPNotifyClients
                0x9d065288       0xa4 build/pic32mx_eth_sk_int_dyn/production/_ext/1164207549/dhcp.o

.text.TCPIP_DNS_ClientDeinitialize
                0x9d06532c       0xa4
 .text.TCPIP_DNS_ClientDeinitialize
                0x9d06532c       0xa4 build/pic32mx_eth_sk_int_dyn/production/_ext/1164207549/dns.o
                0x9d06532c                TCPIP_DNS_ClientDeinitialize

.text.StateMachineUdpRxDrain
                0x9d0653d0       0xa4
 .text.StateMachineUdpRxDrain
                0x9d0653d0       0xa4 build/pic32mx_eth_sk_int_dyn/production/_ext/1164207549/iperf.o

.text._Tcpv4TxAckFnc
                0x9d065474       0xa4
 .text._Tcpv4TxAckFnc
                0x9d065474       0xa4 build/pic32mx_eth_sk_int_dyn/production/_ext/1164207549/tcp.o

.text.TCPIP_STACK_NetIsBcastAddress
                0x9d065518       0xa4
 .text.TCPIP_STACK_NetIsBcastAddress
                0x9d065518       0xa4 build/pic32mx_eth_sk_int_dyn/production/_ext/1164207549/tcpip_manager.o
                0x9d065518                TCPIP_STACK_NetIsBcastAddress

.text.USART_GETS
                0x9d0655bc       0xa0
 .text.USART_GETS
                0x9d0655bc       0xa0 build/pic32mx_eth_sk_int_dyn/production/_ext/2138650627/usart.o
                0x9d0655bc                USART_GETS

.text.HTTPPrint_builddate
                0x9d06565c       0xa0
 .text.HTTPPrint_builddate
                0x9d06565c       0xa0 build/pic32mx_eth_sk_int_dyn/production/_ext/1360937237/custom_http_app.o
                0x9d06565c                HTTPPrint_builddate

.text._DHCPCleanup
                0x9d0656fc       0xa0
 .text._DHCPCleanup
                0x9d0656fc       0xa0 build/pic32mx_eth_sk_int_dyn/production/_ext/1164207549/dhcp.o

.text._DHCPDiscard
                0x9d06579c       0xa0
 .text._DHCPDiscard
                0x9d06579c       0xa0 build/pic32mx_eth_sk_int_dyn/production/_ext/1164207549/dhcp.o

.text.TCPIP_DHCP_HandlerRegister
                0x9d06583c       0xa0
 .text.TCPIP_DHCP_HandlerRegister
                0x9d06583c       0xa0 build/pic32mx_eth_sk_int_dyn/production/_ext/1164207549/dhcp.o
                0x9d06583c                TCPIP_DHCP_HandlerRegister

.text.TCPIP_IPV4_Initialize
                0x9d0658dc       0xa0
 .text.TCPIP_IPV4_Initialize
                0x9d0658dc       0xa0 build/pic32mx_eth_sk_int_dyn/production/_ext/1164207549/ipv4.o
                0x9d0658dc                TCPIP_IPV4_Initialize

.text.TCPIP_SNMP_DataIsASNNull
                0x9d06597c       0xa0
 .text.TCPIP_SNMP_DataIsASNNull
                0x9d06597c       0xa0 build/pic32mx_eth_sk_int_dyn/production/_ext/1164207549/snmp.o

.text._TCPSetSourceAddress
                0x9d065a1c       0xa0
 .text._TCPSetSourceAddress
                0x9d065a1c       0xa0 build/pic32mx_eth_sk_int_dyn/production/_ext/1164207549/tcp.o

.text._Tcpv4UnlinkDataSeg
                0x9d065abc       0xa0
 .text._Tcpv4UnlinkDataSeg
                0x9d065abc       0xa0 build/pic32mx_eth_sk_int_dyn/production/_ext/1164207549/tcp.o

.text.TCPIP_STACK_MACIdToNet
                0x9d065b5c       0xa0
 .text.TCPIP_STACK_MACIdToNet
                0x9d065b5c       0xa0 build/pic32mx_eth_sk_int_dyn/production/_ext/1164207549/tcpip_manager.o
                0x9d065b5c                TCPIP_STACK_MACIdToNet

.text.TCPIP_STACK_NetIsUp
                0x9d065bfc       0xa0
 .text.TCPIP_STACK_NetIsUp
                0x9d065bfc       0xa0 build/pic32mx_eth_sk_int_dyn/production/_ext/1164207549/tcpip_manager.o
                0x9d065bfc                TCPIP_STACK_NetIsUp

.text.strupr    0x9d065c9c       0x9c
 .text.strupr   0x9d065c9c       0x9c build/pic32mx_eth_sk_int_dyn/production/_ext/1886247299/helpers.o
                0x9d065c9c                strupr

.text.HTTPPrint_ddns_status_msg
                0x9d065d38       0x9c
 .text.HTTPPrint_ddns_status_msg
                0x9d065d38       0x9c build/pic32mx_eth_sk_int_dyn/production/_ext/1360937237/custom_http_app.o
                0x9d065d38                HTTPPrint_ddns_status_msg

.text.TCPIP_IPERF_Deinitialize
                0x9d065dd4       0x9c
 .text.TCPIP_IPERF_Deinitialize
                0x9d065dd4       0x9c build/pic32mx_eth_sk_int_dyn/production/_ext/1164207549/iperf.o
                0x9d065dd4                TCPIP_IPERF_Deinitialize

.text.IPv4RegisterFilter
                0x9d065e70       0x9c
 .text.IPv4RegisterFilter
                0x9d065e70       0x9c build/pic32mx_eth_sk_int_dyn/production/_ext/1164207549/ipv4.o
                0x9d065e70                IPv4RegisterFilter

.text.TCPIP_SMTP_StringPut
                0x9d065f0c       0x9c
 .text.TCPIP_SMTP_StringPut
                0x9d065f0c       0x9c build/pic32mx_eth_sk_int_dyn/production/_ext/1164207549/smtp.o
                0x9d065f0c                TCPIP_SMTP_StringPut

.text.TCPIP_SNMP_ErrorStatusSet
                0x9d065fa8       0x9c
 .text.TCPIP_SNMP_ErrorStatusSet
                0x9d065fa8       0x9c build/pic32mx_eth_sk_int_dyn/production/_ext/1164207549/snmp.o

.text.TCPIP_SNMPv3_EngnMaxMsgSizeNegotiate
                0x9d066044       0x9c
 .text.TCPIP_SNMPv3_EngnMaxMsgSizeNegotiate
                0x9d066044       0x9c build/pic32mx_eth_sk_int_dyn/production/_ext/1164207549/snmpv3.o
                0x9d066044                TCPIP_SNMPv3_EngnMaxMsgSizeNegotiate

.text._SNMPv3_SetErrorStatus
                0x9d0660e0       0x9c
 .text._SNMPv3_SetErrorStatus
                0x9d0660e0       0x9c build/pic32mx_eth_sk_int_dyn/production/_ext/1164207549/snmpv3.o

.text._TcpSocketKill
                0x9d06617c       0x9c
 .text._TcpSocketKill
                0x9d06617c       0x9c build/pic32mx_eth_sk_int_dyn/production/_ext/1164207549/tcp.o

.text._TCP_PortIsAvailable
                0x9d066218       0x9c
 .text._TCP_PortIsAvailable
                0x9d066218       0x9c build/pic32mx_eth_sk_int_dyn/production/_ext/1164207549/tcp.o

.text._TCP_PayloadSet
                0x9d0662b4       0x9c
 .text._TCP_PayloadSet
                0x9d0662b4       0x9c build/pic32mx_eth_sk_int_dyn/production/_ext/1164207549/tcp.o

.text.ANNOUNCE_Notify
                0x9d066350       0x9c
 .text.ANNOUNCE_Notify
                0x9d066350       0x9c build/pic32mx_eth_sk_int_dyn/production/_ext/1164207549/tcpip_announce.o

.text.TCPIP_Helper_SingleListHeadRemove
                0x9d0663ec       0x9c
 .text.TCPIP_Helper_SingleListHeadRemove
                0x9d0663ec       0x9c build/pic32mx_eth_sk_int_dyn/production/_ext/1164207549/tcpip_helpers.o
                0x9d0663ec                TCPIP_Helper_SingleListHeadRemove

.text._TCPIPStackSetConfigAddress
                0x9d066488       0x9c
 .text._TCPIPStackSetConfigAddress
                0x9d066488       0x9c build/pic32mx_eth_sk_int_dyn/production/_ext/1164207549/tcpip_manager.o
                0x9d066488                _TCPIPStackSetConfigAddress

.text.UDPOpenClientSkt
                0x9d066524       0x9c
 .text.UDPOpenClientSkt
                0x9d066524       0x9c build/pic32mx_eth_sk_int_dyn/production/_ext/1164207549/udp.o
                0x9d066524                UDPOpenClientSkt

.text._UDPClose
                0x9d0665c0       0x9c
 .text._UDPClose
                0x9d0665c0       0x9c build/pic32mx_eth_sk_int_dyn/production/_ext/1164207549/udp.o

.text.TCPIP_UDP_RxOffsetSet
                0x9d06665c       0x9c
 .text.TCPIP_UDP_RxOffsetSet
                0x9d06665c       0x9c build/pic32mx_eth_sk_int_dyn/production/_ext/1164207549/udp.o
                0x9d06665c                TCPIP_UDP_RxOffsetSet

.text.TCPIP_UDP_GetIsReady
                0x9d0666f8       0x9c
 .text.TCPIP_UDP_GetIsReady
                0x9d0666f8       0x9c build/pic32mx_eth_sk_int_dyn/production/_ext/1164207549/udp.o
                0x9d0666f8                TCPIP_UDP_GetIsReady

.text._UDPIsAvailablePort
                0x9d066794       0x9c
 .text._UDPIsAvailablePort
                0x9d066794       0x9c build/pic32mx_eth_sk_int_dyn/production/_ext/1164207549/udp.o

.text.strstr    0x9d066830       0x9c
 .text.strstr   0x9d066830       0x9c c:/program files/microchip/xc32/v1.30-tc9/bin/../lib/gcc/pic32mx/4.5.2/../../../../pic32mx/lib\libc.a(strstr.o)
                0x9d066830                strstr

.text.DRV_ETHPHY_SMIReadResultGet
                0x9d0668cc       0x98
 .text.DRV_ETHPHY_SMIReadResultGet
                0x9d0668cc       0x98 build/pic32mx_eth_sk_int_dyn/production/_ext/521481140/drv_ethphy.o
                0x9d0668cc                DRV_ETHPHY_SMIReadResultGet

.text.SYS_FS_Initialize
                0x9d066964       0x98
 .text.SYS_FS_Initialize
                0x9d066964       0x98 build/pic32mx_eth_sk_int_dyn/production/_ext/1750042194/sys_fs.o
                0x9d066964                SYS_FS_Initialize

.text.TCPIP_SMTP_UsageBegin
                0x9d0669fc       0x98
 .text.TCPIP_SMTP_UsageBegin
                0x9d0669fc       0x98 build/pic32mx_eth_sk_int_dyn/production/_ext/1164207549/smtp.o
                0x9d0669fc                TCPIP_SMTP_UsageBegin

.rodata         0x9d066a94       0x98
 .rodata        0x9d066a94       0x98 build/pic32mx_eth_sk_int_dyn/production/_ext/1164207549/smtp.o

.text.TCPIP_SNMP_DataTypeInfoGet
                0x9d066b2c       0x98
 .text.TCPIP_SNMP_DataTypeInfoGet
                0x9d066b2c       0x98 build/pic32mx_eth_sk_int_dyn/production/_ext/1164207549/snmp.o
                0x9d066b2c                TCPIP_SNMP_DataTypeInfoGet

.text.TCPIP_SNMPv3_AuthEngineTimeGet
                0x9d066bc4       0x98
 .text.TCPIP_SNMPv3_AuthEngineTimeGet
                0x9d066bc4       0x98 build/pic32mx_eth_sk_int_dyn/production/_ext/1164207549/snmpv3.o
                0x9d066bc4                TCPIP_SNMPv3_AuthEngineTimeGet

.text.TCPIP_TCP_ClientOpen
                0x9d066c5c       0x98
 .text.TCPIP_TCP_ClientOpen
                0x9d066c5c       0x98 build/pic32mx_eth_sk_int_dyn/production/_ext/1164207549/tcp.o
                0x9d066c5c                TCPIP_TCP_ClientOpen

.text.TCPIP_PKT_PacketAcknowledge
                0x9d066cf4       0x98
 .text.TCPIP_PKT_PacketAcknowledge
                0x9d066cf4       0x98 build/pic32mx_eth_sk_int_dyn/production/_ext/1164207549/tcpip_packet.o
                0x9d066cf4                TCPIP_PKT_PacketAcknowledge

.text.TCPIP_TELNET_Initialize
                0x9d066d8c       0x98
 .text.TCPIP_TELNET_Initialize
                0x9d066d8c       0x98 build/pic32mx_eth_sk_int_dyn/production/_ext/1164207549/telnet.o
                0x9d066d8c                TCPIP_TELNET_Initialize

.text._SYS_DEBUG_OPEN
                0x9d066e24       0x98
 .text._SYS_DEBUG_OPEN
                0x9d066e24       0x98 build/pic32mx_eth_sk_int_dyn/production/_ext/1418760511/system_debug.o
                0x9d066e24                _SYS_DEBUG_OPEN

.text._SYS_ASSERT
                0x9d066ebc       0x98
 .text._SYS_ASSERT
                0x9d066ebc       0x98 build/pic32mx_eth_sk_int_dyn/production/_ext/1418760511/system_debug.o
                0x9d066ebc                _SYS_ASSERT

.text._SYS_CONSOLE_OPEN
                0x9d066f54       0x98
 .text._SYS_CONSOLE_OPEN
                0x9d066f54       0x98 build/pic32mx_eth_sk_int_dyn/production/_ext/1418760511/system_debug.o
                0x9d066f54                _SYS_CONSOLE_OPEN

.text           0x9d066fec       0x98
 .text          0x9d066fec       0x98 c:/program files/microchip/xc32/v1.30-tc9/bin/../lib/gcc/pic32mx/4.5.2/../../../../pic32mx/lib\libpic32.a(memcmp.o)
                0x9d066fec                memcmp

.text.rand      0x9d067084       0x98
 .text.rand     0x9d067084       0x98 c:/program files/microchip/xc32/v1.30-tc9/bin/../lib/gcc/pic32mx/4.5.2/../../../../pic32mx/lib\libc.a(rand.o)
                0x9d067084                rand

.text.DRV_ETHPHY_LinkStatusGet
                0x9d06711c       0x94
 .text.DRV_ETHPHY_LinkStatusGet
                0x9d06711c       0x94 build/pic32mx_eth_sk_int_dyn/production/_ext/521481140/drv_ethphy.o
                0x9d06711c                DRV_ETHPHY_LinkStatusGet

.text._HTTP_HeaderParseLookup
                0x9d0671b0       0x94
 .text._HTTP_HeaderParseLookup
                0x9d0671b0       0x94 build/pic32mx_eth_sk_int_dyn/production/_ext/1164207549/http.o

.text.TCPIP_TCP_WasReset
                0x9d067244       0x94
 .text.TCPIP_TCP_WasReset
                0x9d067244       0x94 build/pic32mx_eth_sk_int_dyn/production/_ext/1164207549/tcp.o
                0x9d067244                TCPIP_TCP_WasReset

.text.TCPIP_TCP_Connect
                0x9d0672d8       0x94
 .text.TCPIP_TCP_Connect
                0x9d0672d8       0x94 build/pic32mx_eth_sk_int_dyn/production/_ext/1164207549/tcp.o
                0x9d0672d8                TCPIP_TCP_Connect

.text.TCPIP_Helper_SingleListTailAdd
                0x9d06736c       0x94
 .text.TCPIP_Helper_SingleListTailAdd
                0x9d06736c       0x94 build/pic32mx_eth_sk_int_dyn/production/_ext/1164207549/tcpip_helpers.o
                0x9d06736c                TCPIP_Helper_SingleListTailAdd

.text.TCPIP_STACK_AddressIsOfNet
                0x9d067400       0x94
 .text.TCPIP_STACK_AddressIsOfNet
                0x9d067400       0x94 build/pic32mx_eth_sk_int_dyn/production/_ext/1164207549/tcpip_manager.o
                0x9d067400                TCPIP_STACK_AddressIsOfNet

.text.write     0x9d067494       0x94
 .text.write    0x9d067494       0x94 c:/program files/microchip/xc32/v1.30-tc9/bin/../lib/gcc/pic32mx/4.5.2/../../../../pic32mx/lib\libpic32.a(write.o)
                0x9d067494                write

.text.SYSTEMConfigPerformance
                0x9d067528       0x90
 .text.SYSTEMConfigPerformance
                0x9d067528       0x90 build/pic32mx_eth_sk_int_dyn/production/_ext/377798159/config_performance.o
                0x9d067528                SYSTEMConfigPerformance

.text._MACTxAcknowledgeEth
                0x9d0675b8       0x90
 .text._MACTxAcknowledgeEth
                0x9d0675b8       0x90 build/pic32mx_eth_sk_int_dyn/production/_ext/1697634946/drv_ethmac.o

.text.DRV_ETHMAC_LibDescriptorGetBuffer
                0x9d067648       0x90
 .text.DRV_ETHMAC_LibDescriptorGetBuffer
                0x9d067648       0x90 build/pic32mx_eth_sk_int_dyn/production/_ext/1697634946/drv_ethmac_lib.o
                0x9d067648                DRV_ETHMAC_LibDescriptorGetBuffer

.text.USART_PRINT
                0x9d0676d8       0x90
 .text.USART_PRINT
                0x9d0676d8       0x90 build/pic32mx_eth_sk_int_dyn/production/_ext/2138650627/usart.o
                0x9d0676d8                USART_PRINT

.rodata         0x9d067768       0x90
 .rodata        0x9d067768       0x90 build/pic32mx_eth_sk_int_dyn/production/_ext/1750042194/sys_fs.o

.text._HTTP_Cleanup
                0x9d0677f8       0x90
 .text._HTTP_Cleanup
                0x9d0677f8       0x90 build/pic32mx_eth_sk_int_dyn/production/_ext/1164207549/http.o

.text._ICMPAllocateTxPacketStruct
                0x9d067888       0x90
 .text._ICMPAllocateTxPacketStruct
                0x9d067888       0x90 build/pic32mx_eth_sk_int_dyn/production/_ext/1164207549/icmp.o

.text.TCPIP_IPV4_VerifyPktFilters
                0x9d067918       0x90
 .text.TCPIP_IPV4_VerifyPktFilters
                0x9d067918       0x90 build/pic32mx_eth_sk_int_dyn/production/_ext/1164207549/ipv4.o

.text.TCPIP_NBNS_Deinitialize
                0x9d0679a8       0x90
 .text.TCPIP_NBNS_Deinitialize
                0x9d0679a8       0x90 build/pic32mx_eth_sk_int_dyn/production/_ext/1164207549/nbns.o
                0x9d0679a8                TCPIP_NBNS_Deinitialize

.text.TCPIP_SNMPv3_TrapSecurityLevelGet
                0x9d067a38       0x90
 .text.TCPIP_SNMPv3_TrapSecurityLevelGet
                0x9d067a38       0x90 build/pic32mx_eth_sk_int_dyn/production/_ext/1164207549/snmpv3.o
                0x9d067a38                TCPIP_SNMPv3_TrapSecurityLevelGet

.text._Tcpv4AllocateTxPacketIfQueued
                0x9d067ac8       0x90
 .text._Tcpv4AllocateTxPacketIfQueued
                0x9d067ac8       0x90 build/pic32mx_eth_sk_int_dyn/production/_ext/1164207549/tcp.o

.text.TCPIP_TCP_Discard
                0x9d067b58       0x90
 .text.TCPIP_TCP_Discard
                0x9d067b58       0x90 build/pic32mx_eth_sk_int_dyn/production/_ext/1164207549/tcp.o
                0x9d067b58                TCPIP_TCP_Discard

.text._SysGetCDevEntry
                0x9d067be8       0x90
 .text._SysGetCDevEntry
                0x9d067be8       0x90 build/pic32mx_eth_sk_int_dyn/production/_ext/1418760511/system_debug.o

.text.HTTPNeedsAuth
                0x9d067c78       0x8c
 .text.HTTPNeedsAuth
                0x9d067c78       0x8c build/pic32mx_eth_sk_int_dyn/production/_ext/1360937237/custom_http_app.o
                0x9d067c78                HTTPNeedsAuth

.text.HTTPPrint_read_comm
                0x9d067d04       0x8c
 .text.HTTPPrint_read_comm
                0x9d067d04       0x8c build/pic32mx_eth_sk_int_dyn/production/_ext/1360937237/custom_http_app.o
                0x9d067d04                HTTPPrint_read_comm

.text.HTTPPrint_write_comm
                0x9d067d90       0x8c
 .text.HTTPPrint_write_comm
                0x9d067d90       0x8c build/pic32mx_eth_sk_int_dyn/production/_ext/1360937237/custom_http_app.o
                0x9d067d90                HTTPPrint_write_comm

.text.HTTPPrint_status_ok
                0x9d067e1c       0x8c
 .text.HTTPPrint_status_ok
                0x9d067e1c       0x8c build/pic32mx_eth_sk_int_dyn/production/_ext/1360937237/custom_http_app.o
                0x9d067e1c                HTTPPrint_status_ok

.text.HTTPPrint_status_fail
                0x9d067ea8       0x8c
 .text.HTTPPrint_status_fail
                0x9d067ea8       0x8c build/pic32mx_eth_sk_int_dyn/production/_ext/1360937237/custom_http_app.o
                0x9d067ea8                HTTPPrint_status_fail

.text.TCPIP_ARP_HandlerDeRegister
                0x9d067f34       0x8c
 .text.TCPIP_ARP_HandlerDeRegister
                0x9d067f34       0x8c build/pic32mx_eth_sk_int_dyn/production/_ext/1164207549/arp.o
                0x9d067f34                TCPIP_ARP_HandlerDeRegister

.text._SwapARPPacket
                0x9d067fc0       0x8c
 .text._SwapARPPacket
                0x9d067fc0       0x8c build/pic32mx_eth_sk_int_dyn/production/_ext/1164207549/arp.o

.text.TCPIP_HTTP_PostNameRead
                0x9d06804c       0x8c
 .text.TCPIP_HTTP_PostNameRead
                0x9d06804c       0x8c build/pic32mx_eth_sk_int_dyn/production/_ext/1164207549/http.o
                0x9d06804c                TCPIP_HTTP_PostNameRead

.text.SwapIPV4Header
                0x9d0680d8       0x8c
 .text.SwapIPV4Header
                0x9d0680d8       0x8c build/pic32mx_eth_sk_int_dyn/production/_ext/1164207549/ipv4.o

.text.TCPIP_SNMPv3_DataCopyToProcessBuff
                0x9d068164       0x8c
 .text.TCPIP_SNMPv3_DataCopyToProcessBuff
                0x9d068164       0x8c build/pic32mx_eth_sk_int_dyn/production/_ext/1164207549/snmpv3.o
                0x9d068164                TCPIP_SNMPv3_DataCopyToProcessBuff

.text._SntpInit
                0x9d0681f0       0x8c
 .text._SntpInit
                0x9d0681f0       0x8c build/pic32mx_eth_sk_int_dyn/production/_ext/1164207549/sntp.o

.text._TCP_Flush
                0x9d06827c       0x8c
 .text._TCP_Flush
                0x9d06827c       0x8c build/pic32mx_eth_sk_int_dyn/production/_ext/1164207549/tcp.o

.text.DRV_ETHPHY_RestartNegotiation
                0x9d068308       0x88
 .text.DRV_ETHPHY_RestartNegotiation
                0x9d068308       0x88 build/pic32mx_eth_sk_int_dyn/production/_ext/521481140/drv_ethphy.o
                0x9d068308                DRV_ETHPHY_RestartNegotiation

.text.SHA1Initialize
                0x9d068390       0x88
 .text.SHA1Initialize
                0x9d068390       0x88 build/pic32mx_eth_sk_int_dyn/production/_ext/1886247299/hashes.o
                0x9d068390                SHA1Initialize

.text.TCPIP_DHCP_Deinitialize
                0x9d068418       0x88
 .text.TCPIP_DHCP_Deinitialize
                0x9d068418       0x88 build/pic32mx_eth_sk_int_dyn/production/_ext/1164207549/dhcp.o
                0x9d068418                TCPIP_DHCP_Deinitialize

.text.TCPIP_SNTP_Initialize
                0x9d0684a0       0x88
 .text.TCPIP_SNTP_Initialize
                0x9d0684a0       0x88 build/pic32mx_eth_sk_int_dyn/production/_ext/1164207549/sntp.o
                0x9d0684a0                TCPIP_SNTP_Initialize

.text.TCPIP_HEAP_MaxSize
                0x9d068528       0x88
 .text.TCPIP_HEAP_MaxSize
                0x9d068528       0x88 build/pic32mx_eth_sk_int_dyn/production/_ext/1164207549/tcpip_heap_alloc.o
                0x9d068528                TCPIP_HEAP_MaxSize

.text.TCPIP_STACK_IPAddToNet
                0x9d0685b0       0x88
 .text.TCPIP_STACK_IPAddToNet
                0x9d0685b0       0x88 build/pic32mx_eth_sk_int_dyn/production/_ext/1164207549/tcpip_manager.o
                0x9d0685b0                TCPIP_STACK_IPAddToNet

.text.TCPIP_STACK_MACIdToString
                0x9d068638       0x88
 .text.TCPIP_STACK_MACIdToString
                0x9d068638       0x88 build/pic32mx_eth_sk_int_dyn/production/_ext/1164207549/tcpip_manager.o
                0x9d068638                TCPIP_STACK_MACIdToString

.text.UDPIsPutReady
                0x9d0686c0       0x88
 .text.UDPIsPutReady
                0x9d0686c0       0x88 build/pic32mx_eth_sk_int_dyn/production/_ext/1164207549/udp.o
                0x9d0686c0                UDPIsPutReady

.text._MACTxPacket
                0x9d068748       0x84
 .text._MACTxPacket
                0x9d068748       0x84 build/pic32mx_eth_sk_int_dyn/production/_ext/1697634946/drv_ethmac.o

.text._MACTxPacketAckCallback
                0x9d0687cc       0x84
 .text._MACTxPacketAckCallback
                0x9d0687cc       0x84 build/pic32mx_eth_sk_int_dyn/production/_ext/1697634946/drv_ethmac.o

.text.INT_SourceIsEnabled_Default
                0x9d068850       0x84
 .text.INT_SourceIsEnabled_Default
                0x9d068850       0x84 build/pic32mx_eth_sk_int_dyn/production/_ext/1042686532/sys_int_pic32.o

.text.LFSRSeedRand
                0x9d0688d4       0x84
 .text.LFSRSeedRand
                0x9d0688d4       0x84 build/pic32mx_eth_sk_int_dyn/production/_ext/1886247299/lfsr.o
                0x9d0688d4                LFSRSeedRand

.text.SNMPGetTimeStamp
                0x9d068958       0x84
 .text.SNMPGetTimeStamp
                0x9d068958       0x84 build/pic32mx_eth_sk_int_dyn/production/_ext/1360937237/custom_snmp_app.o

.text.HTTPCheckAuth
                0x9d0689dc       0x84
 .text.HTTPCheckAuth
                0x9d0689dc       0x84 build/pic32mx_eth_sk_int_dyn/production/_ext/1360937237/custom_http_app.o
                0x9d0689dc                HTTPCheckAuth

.text.TCPIP_OAHASH_Initialize
                0x9d068a60       0x84
 .text.TCPIP_OAHASH_Initialize
                0x9d068a60       0x84 build/pic32mx_eth_sk_int_dyn/production/_ext/1164207549/oahash.o
                0x9d068a60                TCPIP_OAHASH_Initialize

.text.TCPIP_SNMPv3_AuthEngineTimeTickGet
                0x9d068ae4       0x84
 .text.TCPIP_SNMPv3_AuthEngineTimeTickGet
                0x9d068ae4       0x84 build/pic32mx_eth_sk_int_dyn/production/_ext/1164207549/snmpv3.o
                0x9d068ae4                TCPIP_SNMPv3_AuthEngineTimeTickGet

.text._TCPIP_HEAP_Calloc
                0x9d068b68       0x84
 .text._TCPIP_HEAP_Calloc
                0x9d068b68       0x84 build/pic32mx_eth_sk_int_dyn/production/_ext/1164207549/tcpip_heap_alloc.o
                0x9d068b68                _TCPIP_HEAP_Calloc

.text._TCPIP_STACK_FindModuleData
                0x9d068bec       0x84
 .text._TCPIP_STACK_FindModuleData
                0x9d068bec       0x84 build/pic32mx_eth_sk_int_dyn/production/_ext/1164207549/tcpip_manager.o

.text._TCPIP_STACK_FindMacModule
                0x9d068c70       0x84
 .text._TCPIP_STACK_FindMacModule
                0x9d068c70       0x84 build/pic32mx_eth_sk_int_dyn/production/_ext/1164207549/tcpip_manager.o

.text.TCPIP_STACK_NetworkIsLinked
                0x9d068cf4       0x84
 .text.TCPIP_STACK_NetworkIsLinked
                0x9d068cf4       0x84 build/pic32mx_eth_sk_int_dyn/production/_ext/1164207549/tcpip_manager.o
                0x9d068cf4                TCPIP_STACK_NetworkIsLinked

.text.TCPIP_UDP_SourceIPAddressSet
                0x9d068d78       0x84
 .text.TCPIP_UDP_SourceIPAddressSet
                0x9d068d78       0x84 build/pic32mx_eth_sk_int_dyn/production/_ext/1164207549/udp.o
                0x9d068d78                TCPIP_UDP_SourceIPAddressSet

.text._SYS_CMDIO_GET_HANDLE
                0x9d068dfc       0x84
 .text._SYS_CMDIO_GET_HANDLE
                0x9d068dfc       0x84 build/pic32mx_eth_sk_int_dyn/production/_ext/1418760511/system_command.o
                0x9d068dfc                _SYS_CMDIO_GET_HANDLE

.text._SYS_CONSOLE_PRINT
                0x9d068e80       0x84
 .text._SYS_CONSOLE_PRINT
                0x9d068e80       0x84 build/pic32mx_eth_sk_int_dyn/production/_ext/1418760511/system_debug.o
                0x9d068e80                _SYS_CONSOLE_PRINT

.text.DRV_NVM_MEDIA_Open
                0x9d068f04       0x80
 .text.DRV_NVM_MEDIA_Open
                0x9d068f04       0x80 build/pic32mx_eth_sk_int_dyn/production/_ext/184581597/drv_nvm_media.o
                0x9d068f04                DRV_NVM_MEDIA_Open

.text._ARPAllocateTxPacket
                0x9d068f84       0x80
 .text._ARPAllocateTxPacket
                0x9d068f84       0x80 build/pic32mx_eth_sk_int_dyn/production/_ext/1164207549/arp.o

.text.TCPIP_SNMP_MemoryAllocate
                0x9d069004       0x80
 .text.TCPIP_SNMP_MemoryAllocate
                0x9d069004       0x80 build/pic32mx_eth_sk_int_dyn/production/_ext/1164207549/snmp.o

.text.TCPIP_SNMP_DataCopyToProcessBuffer
                0x9d069084       0x80
 .text.TCPIP_SNMP_DataCopyToProcessBuffer
                0x9d069084       0x80 build/pic32mx_eth_sk_int_dyn/production/_ext/1164207549/snmp.o
                0x9d069084                TCPIP_SNMP_DataCopyToProcessBuffer

.text.TCPIP_TCP_Disconnect
                0x9d069104       0x80
 .text.TCPIP_TCP_Disconnect
                0x9d069104       0x80 build/pic32mx_eth_sk_int_dyn/production/_ext/1164207549/tcp.o
                0x9d069104                TCPIP_TCP_Disconnect

.text._fassert  0x9d069184       0x80
 .text._fassert
                0x9d069184       0x80 c:/program files/microchip/xc32/v1.30-tc9/bin/../lib/gcc/pic32mx/4.5.2/../../../../pic32mx/lib\libc.a(fassert.o)
                0x9d069184                _fassert

.text.SYSTEMConfigPB
                0x9d069204       0x7c
 .text.SYSTEMConfigPB
                0x9d069204       0x7c build/pic32mx_eth_sk_int_dyn/production/_ext/377798159/config_performance.o
                0x9d069204                SYSTEMConfigPB

.text.PLIB_ETH_RxSetBufferSize
                0x9d069280       0x7c
 .text.PLIB_ETH_RxSetBufferSize
                0x9d069280       0x7c build/pic32mx_eth_sk_int_dyn/production/_ext/1104573755/plib_eth_legacy.o
                0x9d069280                PLIB_ETH_RxSetBufferSize

.text.HTTPPrint_config_dhcpchecked
                0x9d0692fc       0x7c
 .text.HTTPPrint_config_dhcpchecked
                0x9d0692fc       0x7c build/pic32mx_eth_sk_int_dyn/production/_ext/1360937237/custom_http_app.o
                0x9d0692fc                HTTPPrint_config_dhcpchecked

.text.TCPIP_DHCP_HandlerDeRegister
                0x9d069378       0x7c
 .text.TCPIP_DHCP_HandlerDeRegister
                0x9d069378       0x7c build/pic32mx_eth_sk_int_dyn/production/_ext/1164207549/dhcp.o
                0x9d069378                TCPIP_DHCP_HandlerDeRegister

.text.Ipv4DeRegisterFilter
                0x9d0693f4       0x7c
 .text.Ipv4DeRegisterFilter
                0x9d0693f4       0x7c build/pic32mx_eth_sk_int_dyn/production/_ext/1164207549/ipv4.o
                0x9d0693f4                Ipv4DeRegisterFilter

.rodata         0x9d069470       0x7c
 .rodata        0x9d069470       0x7c build/pic32mx_eth_sk_int_dyn/production/_ext/1164207549/snmpv3_usm.o

.text._TcpFlush
                0x9d0694ec       0x7c
 .text._TcpFlush
                0x9d0694ec       0x7c build/pic32mx_eth_sk_int_dyn/production/_ext/1164207549/tcp.o

.text.TCPIP_TCP_Find
                0x9d069568       0x7c
 .text.TCPIP_TCP_Find
                0x9d069568       0x7c build/pic32mx_eth_sk_int_dyn/production/_ext/1164207549/tcp.o
                0x9d069568                TCPIP_TCP_Find

.text.TCPIP_Commands_Deinitialize
                0x9d0695e4       0x7c
 .text.TCPIP_Commands_Deinitialize
                0x9d0695e4       0x7c build/pic32mx_eth_sk_int_dyn/production/_ext/1164207549/tcpip_commands.o
                0x9d0695e4                TCPIP_Commands_Deinitialize

.text.TCPIP_STACK_AddressServiceSelect
                0x9d069660       0x7c
 .text.TCPIP_STACK_AddressServiceSelect
                0x9d069660       0x7c build/pic32mx_eth_sk_int_dyn/production/_ext/1164207549/tcpip_manager.o
                0x9d069660                TCPIP_STACK_AddressServiceSelect

.text.TCPIP_STACK_NetAddressGet
                0x9d0696dc       0x7c
 .text.TCPIP_STACK_NetAddressGet
                0x9d0696dc       0x7c build/pic32mx_eth_sk_int_dyn/production/_ext/1164207549/tcpip_manager.o
                0x9d0696dc                TCPIP_STACK_NetAddressGet

.text.TCPIP_STACK_NetMaskGet
                0x9d069758       0x7c
 .text.TCPIP_STACK_NetMaskGet
                0x9d069758       0x7c build/pic32mx_eth_sk_int_dyn/production/_ext/1164207549/tcpip_manager.o
                0x9d069758                TCPIP_STACK_NetMaskGet

.text.TCPIP_STACK_NetMACAddressGet
                0x9d0697d4       0x7c
 .text.TCPIP_STACK_NetMACAddressGet
                0x9d0697d4       0x7c build/pic32mx_eth_sk_int_dyn/production/_ext/1164207549/tcpip_manager.o
                0x9d0697d4                TCPIP_STACK_NetMACAddressGet

.text._UDPSocketTxSet
                0x9d069850       0x7c
 .text._UDPSocketTxSet
                0x9d069850       0x7c build/pic32mx_eth_sk_int_dyn/production/_ext/1164207549/udp.o

.text.TCPIP_UDP_TxCountGet
                0x9d0698cc       0x7c
 .text.TCPIP_UDP_TxCountGet
                0x9d0698cc       0x7c build/pic32mx_eth_sk_int_dyn/production/_ext/1164207549/udp.o
                0x9d0698cc                TCPIP_UDP_TxCountGet

.text.raise     0x9d069948       0x7c
 .text.raise    0x9d069948       0x7c c:/program files/microchip/xc32/v1.30-tc9/bin/../lib/gcc/pic32mx/4.5.2/../../../../pic32mx/lib\libc.a(signal.o)
                0x9d069948                raise

.text.MPFS_Unmount
                0x9d0699c4       0x78
 .text.MPFS_Unmount
                0x9d0699c4       0x78 build/pic32mx_eth_sk_int_dyn/production/_ext/614935175/mpfs.o
                0x9d0699c4                MPFS_Unmount

.text.LFSRRand  0x9d069a3c       0x78
 .text.LFSRRand
                0x9d069a3c       0x78 build/pic32mx_eth_sk_int_dyn/production/_ext/1886247299/lfsr.o
                0x9d069a3c                LFSRRand

.text._ARPDeleteCache
                0x9d069ab4       0x78
 .text._ARPDeleteCache
                0x9d069ab4       0x78 build/pic32mx_eth_sk_int_dyn/production/_ext/1164207549/arp.o

.rodata         0x9d069b2c       0x78
 .rodata        0x9d069b2c       0x78 build/pic32mx_eth_sk_int_dyn/production/_ext/1164207549/tcp.o

.text._Telnet_GETC
                0x9d069ba4       0x78
 .text._Telnet_GETC
                0x9d069ba4       0x78 build/pic32mx_eth_sk_int_dyn/production/_ext/1164207549/telnet.o

.rodata         0x9d069c1c       0x78
 .rodata        0x9d069c1c       0x78 build/pic32mx_eth_sk_int_dyn/production/_ext/1164207549/udp.o

.text.CommandCleanup
                0x9d069c94       0x78
 .text.CommandCleanup
                0x9d069c94       0x78 build/pic32mx_eth_sk_int_dyn/production/_ext/1418760511/system_command.o

.text.strncmp   0x9d069d0c       0x78
 .text.strncmp  0x9d069d0c       0x78 c:/program files/microchip/xc32/v1.30-tc9/bin/../lib/gcc/pic32mx/4.5.2/../../../../pic32mx/lib\libc.a(strncmp.o)
                0x9d069d0c                strncmp

.text.SYS_TICK_TimerSetRate
                0x9d069d84       0x74
 .text.SYS_TICK_TimerSetRate
                0x9d069d84       0x74 build/pic32mx_eth_sk_int_dyn/production/_ext/1951764757/system_init_private.o
                0x9d069d84                SYS_TICK_TimerSetRate

.text._MACCleanup
                0x9d069df8       0x74
 .text._MACCleanup
                0x9d069df8       0x74 build/pic32mx_eth_sk_int_dyn/production/_ext/1697634946/drv_ethmac.o

.text._MacTxDiscardQueues
                0x9d069e6c       0x74
 .text._MacTxDiscardQueues
                0x9d069e6c       0x74 build/pic32mx_eth_sk_int_dyn/production/_ext/1697634946/drv_ethmac.o

.text.ETH_EthernetIsBusy_Default
                0x9d069ee0       0x74
 .text.ETH_EthernetIsBusy_Default
                0x9d069ee0       0x74 build/pic32mx_eth_sk_int_dyn/production/_ext/1697634946/drv_ethmac_lib.o

.text.ETH_TransmitIsBusy_Default
                0x9d069f54       0x74
 .text.ETH_TransmitIsBusy_Default
                0x9d069f54       0x74 build/pic32mx_eth_sk_int_dyn/production/_ext/1697634946/drv_ethmac_lib.o

.text.ETH_ReceiveIsBusy_Default
                0x9d069fc8       0x74
 .text.ETH_ReceiveIsBusy_Default
                0x9d069fc8       0x74 build/pic32mx_eth_sk_int_dyn/production/_ext/1697634946/drv_ethmac_lib.o

.text.ETH_MIIMIsBusy_Default
                0x9d06a03c       0x74
 .text.ETH_MIIMIsBusy_Default
                0x9d06a03c       0x74 build/pic32mx_eth_sk_int_dyn/production/_ext/521481140/drv_ethphy.o

.text.PLIB_ETH_StationAddressSet
                0x9d06a0b0       0x74
 .text.PLIB_ETH_StationAddressSet
                0x9d06a0b0       0x74 build/pic32mx_eth_sk_int_dyn/production/_ext/1104573755/plib_eth_legacy.o

.text.MPFS_EOF  0x9d06a124       0x74
 .text.MPFS_EOF
                0x9d06a124       0x74 build/pic32mx_eth_sk_int_dyn/production/_ext/614935175/mpfs.o
                0x9d06a124                MPFS_EOF

.text.MD5Initialize
                0x9d06a198       0x74
 .text.MD5Initialize
                0x9d06a198       0x74 build/pic32mx_eth_sk_int_dyn/production/_ext/1886247299/hashes.o
                0x9d06a198                MD5Initialize

.text.HTTPPrint_pot
                0x9d06a20c       0x74
 .text.HTTPPrint_pot
                0x9d06a20c       0x74 build/pic32mx_eth_sk_int_dyn/production/_ext/1360937237/custom_http_app.o
                0x9d06a20c                HTTPPrint_pot

.text.HTTPPrint_config_hostname
                0x9d06a280       0x74
 .text.HTTPPrint_config_hostname
                0x9d06a280       0x74 build/pic32mx_eth_sk_int_dyn/production/_ext/1360937237/custom_http_app.o
                0x9d06a280                HTTPPrint_config_hostname

.text._ARPRefreshEntry
                0x9d06a2f4       0x74
 .text._ARPRefreshEntry
                0x9d06a2f4       0x74 build/pic32mx_eth_sk_int_dyn/production/_ext/1164207549/arp.o

.text.TCPIP_SNMPv3_EngnSecrtyModelConfig
                0x9d06a368       0x74
 .text.TCPIP_SNMPv3_EngnSecrtyModelConfig
                0x9d06a368       0x74 build/pic32mx_eth_sk_int_dyn/production/_ext/1164207549/snmpv3.o
                0x9d06a368                TCPIP_SNMPv3_EngnSecrtyModelConfig

.text.TCPIP_TCP_Flush
                0x9d06a3dc       0x74
 .text.TCPIP_TCP_Flush
                0x9d06a3dc       0x74 build/pic32mx_eth_sk_int_dyn/production/_ext/1164207549/tcp.o
                0x9d06a3dc                TCPIP_TCP_Flush

.text._Telnet_Close
                0x9d06a450       0x74
 .text._Telnet_Close
                0x9d06a450       0x74 build/pic32mx_eth_sk_int_dyn/production/_ext/1164207549/telnet.o

.text._Telnet_PRINT
                0x9d06a4c4       0x74
 .text._Telnet_PRINT
                0x9d06a4c4       0x74 build/pic32mx_eth_sk_int_dyn/production/_ext/1164207549/telnet.o

.text.SYS_RANDOM_ADD
                0x9d06a538       0x74
 .text.SYS_RANDOM_ADD
                0x9d06a538       0x74 build/pic32mx_eth_sk_int_dyn/production/_ext/1418760511/system_random.o
                0x9d06a538                SYS_RANDOM_ADD

.text.INT_SourceFlagClear_Default
                0x9d06a5ac       0x70
 .text.INT_SourceFlagClear_Default
                0x9d06a5ac       0x70 build/pic32mx_eth_sk_int_dyn/production/_ext/1951764757/system_init_private.o

.text.INT_SourceEnable_Default
                0x9d06a61c       0x70
 .text.INT_SourceEnable_Default
                0x9d06a61c       0x70 build/pic32mx_eth_sk_int_dyn/production/_ext/1951764757/system_init_private.o

.text.INT_SourceFlagClear_Default
                0x9d06a68c       0xe0
 .text.INT_SourceFlagClear_Default
                0x9d06a68c       0x70 build/pic32mx_eth_sk_int_dyn/production/_ext/1697634946/drv_ethmac.o
 .text.INT_SourceFlagClear_Default
                0x9d06a6fc       0x70 build/pic32mx_eth_sk_int_dyn/production/_ext/184581597/drv_nvm.o

.text.INT_SourceEnable_Default
                0x9d06a76c       0x70
 .text.INT_SourceEnable_Default
                0x9d06a76c       0x70 build/pic32mx_eth_sk_int_dyn/production/_ext/184581597/drv_nvm.o

.text.INT_SourceDisable_Default
                0x9d06a7dc       0x70
 .text.INT_SourceDisable_Default
                0x9d06a7dc       0x70 build/pic32mx_eth_sk_int_dyn/production/_ext/1042686532/sys_int_pic32.o

.text.HTTPPrint_config_ip
                0x9d06a84c       0x70
 .text.HTTPPrint_config_ip
                0x9d06a84c       0x70 build/pic32mx_eth_sk_int_dyn/production/_ext/1360937237/custom_http_app.o
                0x9d06a84c                HTTPPrint_config_ip

.text.HTTPPrint_config_gw
                0x9d06a8bc       0x70
 .text.HTTPPrint_config_gw
                0x9d06a8bc       0x70 build/pic32mx_eth_sk_int_dyn/production/_ext/1360937237/custom_http_app.o
                0x9d06a8bc                HTTPPrint_config_gw

.text.HTTPPrint_config_subnet
                0x9d06a92c       0x70
 .text.HTTPPrint_config_subnet
                0x9d06a92c       0x70 build/pic32mx_eth_sk_int_dyn/production/_ext/1360937237/custom_http_app.o
                0x9d06a92c                HTTPPrint_config_subnet

.text.HTTPPrint_config_dns1
                0x9d06a99c       0x70
 .text.HTTPPrint_config_dns1
                0x9d06a99c       0x70 build/pic32mx_eth_sk_int_dyn/production/_ext/1360937237/custom_http_app.o
                0x9d06a99c                HTTPPrint_config_dns1

.text.HTTPPrint_config_dns2
                0x9d06aa0c       0x70
 .text.HTTPPrint_config_dns2
                0x9d06aa0c       0x70 build/pic32mx_eth_sk_int_dyn/production/_ext/1360937237/custom_http_app.o
                0x9d06aa0c                HTTPPrint_config_dns2

.text.TCPIP_ICMP_Initialize
                0x9d06aa7c       0x70
 .text.TCPIP_ICMP_Initialize
                0x9d06aa7c       0x70 build/pic32mx_eth_sk_int_dyn/production/_ext/1164207549/icmp.o
                0x9d06aa7c                TCPIP_ICMP_Initialize

.text.TCPIP_NBNS_Initialize
                0x9d06aaec       0x70
 .text.TCPIP_NBNS_Initialize
                0x9d06aaec       0x70 build/pic32mx_eth_sk_int_dyn/production/_ext/1164207549/nbns.o
                0x9d06aaec                TCPIP_NBNS_Initialize

.text.TCPIP_TCP_StringPut
                0x9d06ab5c       0x70
 .text.TCPIP_TCP_StringPut
                0x9d06ab5c       0x70 build/pic32mx_eth_sk_int_dyn/production/_ext/1164207549/tcp.o
                0x9d06ab5c                TCPIP_TCP_StringPut

.text._TCPIP_AnnounceCleanup
                0x9d06abcc       0x70
 .text._TCPIP_AnnounceCleanup
                0x9d06abcc       0x70 build/pic32mx_eth_sk_int_dyn/production/_ext/1164207549/tcpip_announce.o

.text._TCPIP_MacEventCB
                0x9d06ac3c       0x70
 .text._TCPIP_MacEventCB
                0x9d06ac3c       0x70 build/pic32mx_eth_sk_int_dyn/production/_ext/1164207549/tcpip_manager.o

.text._sys_CONSOLE_PRINT
                0x9d06acac       0x70
 .text._sys_CONSOLE_PRINT
                0x9d06acac       0x70 build/pic32mx_eth_sk_int_dyn/production/_ext/1418760511/system_command.o

.rodata         0x9d06ad1c       0x70
 .rodata        0x9d06ad1c       0x70 c:/program files/microchip/xc32/v1.30-tc9/bin/../lib/gcc/pic32mx/4.5.2/../../../../pic32mx/lib\libc.a(fassert.o)

.text.strncat   0x9d06ad8c       0x70
 .text.strncat  0x9d06ad8c       0x70 c:/program files/microchip/xc32/v1.30-tc9/bin/../lib/gcc/pic32mx/4.5.2/../../../../pic32mx/lib\libc.a(strncat.o)
                0x9d06ad8c                strncat

.text.strcspn   0x9d06adfc       0x70
 .text.strcspn  0x9d06adfc       0x70 c:/program files/microchip/xc32/v1.30-tc9/bin/../lib/gcc/pic32mx/4.5.2/../../../../pic32mx/lib\libc.a(strcspn.o)
                0x9d06adfc                strcspn

.text.strspn    0x9d06ae6c       0x70
 .text.strspn   0x9d06ae6c       0x70 c:/program files/microchip/xc32/v1.30-tc9/bin/../lib/gcc/pic32mx/4.5.2/../../../../pic32mx/lib\libc.a(strspn.o)
                0x9d06ae6c                strspn

.text._MacCallocCallback
                0x9d06aedc       0x6c
 .text._MacCallocCallback
                0x9d06aedc       0x6c build/pic32mx_eth_sk_int_dyn/production/_ext/1697634946/drv_ethmac.o

.text.DRV_ETHPHY_Deinitialize
                0x9d06af48       0x6c
 .text.DRV_ETHPHY_Deinitialize
                0x9d06af48       0x6c build/pic32mx_eth_sk_int_dyn/production/_ext/521481140/drv_ethphy.o
                0x9d06af48                DRV_ETHPHY_Deinitialize

.text.DRV_ETHPHY_Close
                0x9d06afb4       0x6c
 .text.DRV_ETHPHY_Close
                0x9d06afb4       0x6c build/pic32mx_eth_sk_int_dyn/production/_ext/521481140/drv_ethphy.o
                0x9d06afb4                DRV_ETHPHY_Close

.text._DRV_NVM_EraseBufferObjProcess
                0x9d06b020       0x6c
 .text._DRV_NVM_EraseBufferObjProcess
                0x9d06b020       0x6c build/pic32mx_eth_sk_int_dyn/production/_ext/184581597/drv_nvm.o
                0x9d06b020                _DRV_NVM_EraseBufferObjProcess

.rodata         0x9d06b08c       0x6c
 .rodata        0x9d06b08c       0x6c build/pic32mx_eth_sk_int_dyn/production/_ext/1750042194/sys_fs_media_manager.o

.text._SYS_FS_MEDIA_MANAGER_updateVolToPart
                0x9d06b0f8       0x6c
 .text._SYS_FS_MEDIA_MANAGER_updateVolToPart
                0x9d06b0f8       0x6c build/pic32mx_eth_sk_int_dyn/production/_ext/1750042194/sys_fs_media_manager.o
                0x9d06b0f8                _SYS_FS_MEDIA_MANAGER_updateVolToPart

.text.StateMachineTxStart
                0x9d06b164       0x6c
 .text.StateMachineTxStart
                0x9d06b164       0x6c build/pic32mx_eth_sk_int_dyn/production/_ext/1164207549/iperf.o

.text._TCPGetRxFIFOFree
                0x9d06b1d0       0x6c
 .text._TCPGetRxFIFOFree
                0x9d06b1d0       0x6c build/pic32mx_eth_sk_int_dyn/production/_ext/1164207549/tcp.o

.text._TCP_ClientIPV4RemoteHash
                0x9d06b23c       0x6c
 .text._TCP_ClientIPV4RemoteHash
                0x9d06b23c       0x6c build/pic32mx_eth_sk_int_dyn/production/_ext/1164207549/tcp.o

.text.TCPIP_Notification_Remove
                0x9d06b2a8       0x6c
 .text.TCPIP_Notification_Remove
                0x9d06b2a8       0x6c build/pic32mx_eth_sk_int_dyn/production/_ext/1164207549/tcpip_notify.o
                0x9d06b2a8                TCPIP_Notification_Remove

.text.CommandReset
                0x9d06b314       0x6c
 .text.CommandReset
                0x9d06b314       0x6c build/pic32mx_eth_sk_int_dyn/production/_ext/1418760511/system_command.o

.text.DmaSuspend
                0x9d06b380       0x68
 .text.DmaSuspend
                0x9d06b380       0x68 build/pic32mx_eth_sk_int_dyn/production/_ext/377798159/config_performance.o
                0x9d06b380                DmaSuspend

.text.ETH_RxPacketCountGet_Default
                0x9d06b3e8       0x68
 .text.ETH_RxPacketCountGet_Default
                0x9d06b3e8       0x68 build/pic32mx_eth_sk_int_dyn/production/_ext/1697634946/drv_ethmac_lib.o

.text.DRV_ETHMAC_LibTxAcknowledgeBuffer
                0x9d06b450       0x68
 .text.DRV_ETHMAC_LibTxAcknowledgeBuffer
                0x9d06b450       0x68 build/pic32mx_eth_sk_int_dyn/production/_ext/1697634946/drv_ethmac_lib.o
                0x9d06b450                DRV_ETHMAC_LibTxAcknowledgeBuffer

.text.ETH_MIIMReadDataGet_Default
                0x9d06b4b8       0x68
 .text.ETH_MIIMReadDataGet_Default
                0x9d06b4b8       0x68 build/pic32mx_eth_sk_int_dyn/production/_ext/521481140/drv_ethphy.o

.text.MPFS_Read
                0x9d06b520       0x68
 .text.MPFS_Read
                0x9d06b520       0x68 build/pic32mx_eth_sk_int_dyn/production/_ext/614935175/mpfs.o
                0x9d06b520                MPFS_Read

.text.StateMachineTcpRxDone
                0x9d06b588       0x68
 .text.StateMachineTcpRxDone
                0x9d06b588       0x68 build/pic32mx_eth_sk_int_dyn/production/_ext/1164207549/iperf.o

.text.TCPIP_OAHASH_EntryGet
                0x9d06b5f0       0x68
 .text.TCPIP_OAHASH_EntryGet
                0x9d06b5f0       0x68 build/pic32mx_eth_sk_int_dyn/production/_ext/1164207549/oahash.o
                0x9d06b5f0                TCPIP_OAHASH_EntryGet

.text.TCPIP_SNMPv3_EngineBootsRcrdUpdate
                0x9d06b658       0x68
 .text.TCPIP_SNMPv3_EngineBootsRcrdUpdate
                0x9d06b658       0x68 build/pic32mx_eth_sk_int_dyn/production/_ext/1164207549/snmpv3.o
                0x9d06b658                TCPIP_SNMPv3_EngineBootsRcrdUpdate

.text._TcpSocketChk
                0x9d06b6c0       0x68
 .text._TcpSocketChk
                0x9d06b6c0       0x68 build/pic32mx_eth_sk_int_dyn/production/_ext/1164207549/tcp.o

.text.TCPIP_TCP_GetIsReady
                0x9d06b728       0x68
 .text.TCPIP_TCP_GetIsReady
                0x9d06b728       0x68 build/pic32mx_eth_sk_int_dyn/production/_ext/1164207549/tcp.o
                0x9d06b728                TCPIP_TCP_GetIsReady

.text.TCPIP_TCP_FifoRxFreeGet
                0x9d06b790       0x68
 .text.TCPIP_TCP_FifoRxFreeGet
                0x9d06b790       0x68 build/pic32mx_eth_sk_int_dyn/production/_ext/1164207549/tcp.o
                0x9d06b790                TCPIP_TCP_FifoRxFreeGet

.text.TCPIP_STACK_NetNameGet
                0x9d06b7f8       0x68
 .text.TCPIP_STACK_NetNameGet
                0x9d06b7f8       0x68 build/pic32mx_eth_sk_int_dyn/production/_ext/1164207549/tcpip_manager.o
                0x9d06b7f8                TCPIP_STACK_NetNameGet

.text.TCPIP_Notification_Add
                0x9d06b860       0x68
 .text.TCPIP_Notification_Add
                0x9d06b860       0x68 build/pic32mx_eth_sk_int_dyn/production/_ext/1164207549/tcpip_notify.o
                0x9d06b860                TCPIP_Notification_Add

.text._Telnet_DATA_RDY
                0x9d06b8c8       0x68
 .text._Telnet_DATA_RDY
                0x9d06b8c8       0x68 build/pic32mx_eth_sk_int_dyn/production/_ext/1164207549/telnet.o

.text._UDPSocketDcpt
                0x9d06b930       0x68
 .text._UDPSocketDcpt
                0x9d06b930       0x68 build/pic32mx_eth_sk_int_dyn/production/_ext/1164207549/udp.o

.text._UDPAllocateTxPacket
                0x9d06b998       0x68
 .text._UDPAllocateTxPacket
                0x9d06b998       0x68 build/pic32mx_eth_sk_int_dyn/production/_ext/1164207549/udp.o

.text._UDPFreeRxQueue
                0x9d06ba00       0x68
 .text._UDPFreeRxQueue
                0x9d06ba00       0x68 build/pic32mx_eth_sk_int_dyn/production/_ext/1164207549/udp.o

.text._sprintf_cdnopsuxX
                0x9d06ba68       0x68
 .text._sprintf_cdnopsuxX
                0x9d06ba68       0x68 c:/program files/microchip/xc32/v1.30-tc9/bin/../lib/gcc/pic32mx/4.5.2/../../../../pic32mx/lib\libc.a(sprintf_cdnopsuxX.eo)
                0x9d06ba68                _sprintf_cdnopuxX
                0x9d06ba68                _sprintf_cdnopsuxX

.rodata         0x9d06bad0       0x68
 .rodata        0x9d06bad0       0x68 c:/program files/microchip/xc32/v1.30-tc9/bin/../lib/gcc/pic32mx/4.5.2/../../../../pic32mx/lib\libc.a(powersf.o)
                0x9d06bad0                _powers_f
                0x9d06bb04                _npowers_f

.text.PLIB_INT_VectorPrioritySet
                0x9d06bb38       0x64
 .text.PLIB_INT_VectorPrioritySet
                0x9d06bb38       0x64 build/pic32mx_eth_sk_int_dyn/production/_ext/1951764757/system_init_private.o

.text.PLIB_INT_VectorSubPrioritySet
                0x9d06bb9c       0x64
 .text.PLIB_INT_VectorSubPrioritySet
                0x9d06bb9c       0x64 build/pic32mx_eth_sk_int_dyn/production/_ext/1951764757/system_init_private.o

.text.PLIB_ETH_BackToBackIPGSet
                0x9d06bc00       0x64
 .text.PLIB_ETH_BackToBackIPGSet
                0x9d06bc00       0x64 build/pic32mx_eth_sk_int_dyn/production/_ext/1697634946/drv_ethmac_lib.o

.text.PLIB_ETH_NonBackToBackIPG1Set
                0x9d06bc64       0x64
 .text.PLIB_ETH_NonBackToBackIPG1Set
                0x9d06bc64       0x64 build/pic32mx_eth_sk_int_dyn/production/_ext/1697634946/drv_ethmac_lib.o

.text.PLIB_ETH_NonBackToBackIPG2Set
                0x9d06bcc8       0x64
 .text.PLIB_ETH_NonBackToBackIPG2Set
                0x9d06bcc8       0x64 build/pic32mx_eth_sk_int_dyn/production/_ext/1697634946/drv_ethmac_lib.o

.text.PLIB_ETH_CollisionWindowSet
                0x9d06bd2c       0x64
 .text.PLIB_ETH_CollisionWindowSet
                0x9d06bd2c       0x64 build/pic32mx_eth_sk_int_dyn/production/_ext/1697634946/drv_ethmac_lib.o

.text.PLIB_ETH_ReTxMaxSet
                0x9d06bd90       0x64
 .text.PLIB_ETH_ReTxMaxSet
                0x9d06bd90       0x64 build/pic32mx_eth_sk_int_dyn/production/_ext/1697634946/drv_ethmac_lib.o

.text.PLIB_ETH_MaxFrameLengthSet
                0x9d06bdf4       0x64
 .text.PLIB_ETH_MaxFrameLengthSet
                0x9d06bdf4       0x64 build/pic32mx_eth_sk_int_dyn/production/_ext/1697634946/drv_ethmac_lib.o

.text.PLIB_ETH_PHYAddressSet
                0x9d06be58       0x64
 .text.PLIB_ETH_PHYAddressSet
                0x9d06be58       0x64 build/pic32mx_eth_sk_int_dyn/production/_ext/521481140/drv_ethphy.o

.text.PLIB_ETH_RegisterAddressSet
                0x9d06bebc       0x64
 .text.PLIB_ETH_RegisterAddressSet
                0x9d06bebc       0x64 build/pic32mx_eth_sk_int_dyn/production/_ext/521481140/drv_ethphy.o

.text.PLIB_ETH_MIIMWriteDataSet
                0x9d06bf20       0x64
 .text.PLIB_ETH_MIIMWriteDataSet
                0x9d06bf20       0x64 build/pic32mx_eth_sk_int_dyn/production/_ext/521481140/drv_ethphy.o

.text.PLIB_ETH_ReceiveBufferSizeSet
                0x9d06bf84       0x64
 .text.PLIB_ETH_ReceiveBufferSizeSet
                0x9d06bf84       0x64 build/pic32mx_eth_sk_int_dyn/production/_ext/1104573755/plib_eth_legacy.o

.text.PLIB_ETH_HashTableSet
                0x9d06bfe8       0x64
 .text.PLIB_ETH_HashTableSet
                0x9d06bfe8       0x64 build/pic32mx_eth_sk_int_dyn/production/_ext/1104573755/plib_eth_legacy.o

.text.PLIB_ETH_MaxFrameLengthSet
                0x9d06c04c       0x64
 .text.PLIB_ETH_MaxFrameLengthSet
                0x9d06c04c       0x64 build/pic32mx_eth_sk_int_dyn/production/_ext/1104573755/plib_eth_legacy.o

.text.btohexa_high
                0x9d06c0b0       0x64
 .text.btohexa_high
                0x9d06c0b0       0x64 build/pic32mx_eth_sk_int_dyn/production/_ext/1886247299/helpers.o
                0x9d06c0b0                btohexa_high

.text.btohexa_low
                0x9d06c114       0x64
 .text.btohexa_low
                0x9d06c114       0x64 build/pic32mx_eth_sk_int_dyn/production/_ext/1886247299/helpers.o
                0x9d06c114                btohexa_low

.text.TCPIP_SNMP_PDUProcessDuplexInit
                0x9d06c178       0x64
 .text.TCPIP_SNMP_PDUProcessDuplexInit
                0x9d06c178       0x64 build/pic32mx_eth_sk_int_dyn/production/_ext/1164207549/snmp.o
                0x9d06c178                TCPIP_SNMP_PDUProcessDuplexInit

.text.TCPIP_SNMPv3_WholeMsgBufferDataGet
                0x9d06c1dc       0x64
 .text.TCPIP_SNMPv3_WholeMsgBufferDataGet
                0x9d06c1dc       0x64 build/pic32mx_eth_sk_int_dyn/production/_ext/1164207549/snmpv3.o
                0x9d06c1dc                TCPIP_SNMPv3_WholeMsgBufferDataGet

.text.TCPIP_TCP_SocketNetGet
                0x9d06c240       0x64
 .text.TCPIP_TCP_SocketNetGet
                0x9d06c240       0x64 build/pic32mx_eth_sk_int_dyn/production/_ext/1164207549/tcp.o
                0x9d06c240                TCPIP_TCP_SocketNetGet

.text.TCPIP_STACK_AddressServiceDefaultSet
                0x9d06c2a4       0x64
 .text.TCPIP_STACK_AddressServiceDefaultSet
                0x9d06c2a4       0x64 build/pic32mx_eth_sk_int_dyn/production/_ext/1164207549/tcpip_manager.o
                0x9d06c2a4                TCPIP_STACK_AddressServiceDefaultSet

.text.TCPIP_Notification_RemoveAll
                0x9d06c308       0x64
 .text.TCPIP_Notification_RemoveAll
                0x9d06c308       0x64 build/pic32mx_eth_sk_int_dyn/production/_ext/1164207549/tcpip_notify.o
                0x9d06c308                TCPIP_Notification_RemoveAll

.text._Telnet_PUTC
                0x9d06c36c       0x64
 .text._Telnet_PUTC
                0x9d06c36c       0x64 build/pic32mx_eth_sk_int_dyn/production/_ext/1164207549/telnet.o

.text.TCPIP_UDP_SocketNetGet
                0x9d06c3d0       0x64
 .text.TCPIP_UDP_SocketNetGet
                0x9d06c3d0       0x64 build/pic32mx_eth_sk_int_dyn/production/_ext/1164207549/udp.o
                0x9d06c3d0                TCPIP_UDP_SocketNetGet

.text._vsnprintf_cdnopsuxX
                0x9d06c434       0x64
 .text._vsnprintf_cdnopsuxX
                0x9d06c434       0x64 c:/program files/microchip/xc32/v1.30-tc9/bin/../lib/gcc/pic32mx/4.5.2/../../../../pic32mx/lib\libc.a(vsnprintf_cdnopsuxX.eo)
                0x9d06c434                _vsnprintf_cdnopsuxX

.text.vsnprintf
                0x9d06c498       0x64
 .text.vsnprintf
                0x9d06c498       0x64 c:/program files/microchip/xc32/v1.30-tc9/bin/../lib/gcc/pic32mx/4.5.2/../../../../pic32mx/lib\libc.a(vsnprintf.o)
                0x9d06c498                vsnprintf

.rodata         0x9d06c4fc       0x60
 .rodata        0x9d06c4fc       0x60 build/pic32mx_eth_sk_int_dyn/production/_ext/1951764757/system_init_private.o

.text.ETH_MIIMReadStart_Default
                0x9d06c55c       0x60
 .text.ETH_MIIMReadStart_Default
                0x9d06c55c       0x60 build/pic32mx_eth_sk_int_dyn/production/_ext/521481140/drv_ethphy.o

.text.USART_PUTC
                0x9d06c5bc       0x60
 .text.USART_PUTC
                0x9d06c5bc       0x60 build/pic32mx_eth_sk_int_dyn/production/_ext/2138650627/usart.o
                0x9d06c5bc                USART_PUTC

.text.MPFSClose
                0x9d06c61c       0x60
 .text.MPFSClose
                0x9d06c61c       0x60 build/pic32mx_eth_sk_int_dyn/production/_ext/614935175/mpfs.o
                0x9d06c61c                MPFSClose

.text.MPFSGetPosition
                0x9d06c67c       0x60
 .text.MPFSGetPosition
                0x9d06c67c       0x60 build/pic32mx_eth_sk_int_dyn/production/_ext/614935175/mpfs.o
                0x9d06c67c                MPFSGetPosition

.text.HTTPPrint_rebootaddr
                0x9d06c6dc       0x60
 .text.HTTPPrint_rebootaddr
                0x9d06c6dc       0x60 build/pic32mx_eth_sk_int_dyn/production/_ext/1360937237/custom_http_app.o
                0x9d06c6dc                HTTPPrint_rebootaddr

.text._HTTP_FileRdCheck
                0x9d06c73c       0x60
 .text._HTTP_FileRdCheck
                0x9d06c73c       0x60 build/pic32mx_eth_sk_int_dyn/production/_ext/1164207549/http.o

.text.TCPIP_ICMP_Deinitialize
                0x9d06c79c       0x60
 .text.TCPIP_ICMP_Deinitialize
                0x9d06c79c       0x60 build/pic32mx_eth_sk_int_dyn/production/_ext/1164207549/icmp.o
                0x9d06c79c                TCPIP_ICMP_Deinitialize

.text.TCPIP_SNMP_PutByte
                0x9d06c7fc       0x60
 .text.TCPIP_SNMP_PutByte
                0x9d06c7fc       0x60 build/pic32mx_eth_sk_int_dyn/production/_ext/1164207549/snmp.o
                0x9d06c7fc                TCPIP_SNMP_PutByte

.rodata         0x9d06c85c       0x60
 .rodata        0x9d06c85c       0x60 build/pic32mx_eth_sk_int_dyn/production/_ext/1164207549/tcpip_helpers.o

.text._Telnet_MSG
                0x9d06c8bc       0x60
 .text._Telnet_MSG
                0x9d06c8bc       0x60 build/pic32mx_eth_sk_int_dyn/production/_ext/1164207549/telnet.o

.text.PLIB_INT_SourceFlagClear
                0x9d06c91c       0x5c
 .text.PLIB_INT_SourceFlagClear
                0x9d06c91c       0x5c build/pic32mx_eth_sk_int_dyn/production/_ext/1951764757/system_init_private.o

.text.PLIB_INT_SourceEnable
                0x9d06c978       0x5c
 .text.PLIB_INT_SourceEnable
                0x9d06c978       0x5c build/pic32mx_eth_sk_int_dyn/production/_ext/1951764757/system_init_private.o

.text.PLIB_INT_SourceFlagClear
                0x9d06c9d4       0x5c
 .text.PLIB_INT_SourceFlagClear
                0x9d06c9d4       0x5c build/pic32mx_eth_sk_int_dyn/production/_ext/1697634946/drv_ethmac.o

.text._MacTxFreeCallback
                0x9d06ca30       0x5c
 .text._MacTxFreeCallback
                0x9d06ca30       0x5c build/pic32mx_eth_sk_int_dyn/production/_ext/1697634946/drv_ethmac.o

.text.ETH_Enable_Default
                0x9d06ca8c       0x5c
 .text.ETH_Enable_Default
                0x9d06ca8c       0x5c build/pic32mx_eth_sk_int_dyn/production/_ext/1697634946/drv_ethmac_lib.o

.text.ETH_Disable_Default
                0x9d06cae8       0x5c
 .text.ETH_Disable_Default
                0x9d06cae8       0x5c build/pic32mx_eth_sk_int_dyn/production/_ext/1697634946/drv_ethmac_lib.o

.text.ETH_TxRTSEnable_Default
                0x9d06cb44       0x5c
 .text.ETH_TxRTSEnable_Default
                0x9d06cb44       0x5c build/pic32mx_eth_sk_int_dyn/production/_ext/1697634946/drv_ethmac_lib.o

.text.ETH_TxRTSDisable_Default
                0x9d06cba0       0x5c
 .text.ETH_TxRTSDisable_Default
                0x9d06cba0       0x5c build/pic32mx_eth_sk_int_dyn/production/_ext/1697634946/drv_ethmac_lib.o

.text.ETH_RxEnable_Default
                0x9d06cbfc       0x5c
 .text.ETH_RxEnable_Default
                0x9d06cbfc       0x5c build/pic32mx_eth_sk_int_dyn/production/_ext/1697634946/drv_ethmac_lib.o

.text.ETH_RxDisable_Default
                0x9d06cc58       0x5c
 .text.ETH_RxDisable_Default
                0x9d06cc58       0x5c build/pic32mx_eth_sk_int_dyn/production/_ext/1697634946/drv_ethmac_lib.o

.text.ETH_RxBufferCountDecrement_Default
                0x9d06ccb4       0x5c
 .text.ETH_RxBufferCountDecrement_Default
                0x9d06ccb4       0x5c build/pic32mx_eth_sk_int_dyn/production/_ext/1697634946/drv_ethmac_lib.o

.text.ETH_MIIResetEnable_Default
                0x9d06cd10       0x5c
 .text.ETH_MIIResetEnable_Default
                0x9d06cd10       0x5c build/pic32mx_eth_sk_int_dyn/production/_ext/1697634946/drv_ethmac_lib.o

.text.ETH_MIIResetDisable_Default
                0x9d06cd6c       0x5c
 .text.ETH_MIIResetDisable_Default
                0x9d06cd6c       0x5c build/pic32mx_eth_sk_int_dyn/production/_ext/1697634946/drv_ethmac_lib.o

.text.ETH_RMIIResetEnable_Default
                0x9d06cdc8       0x5c
 .text.ETH_RMIIResetEnable_Default
                0x9d06cdc8       0x5c build/pic32mx_eth_sk_int_dyn/production/_ext/1697634946/drv_ethmac_lib.o

.text.ETH_RMIIResetDisable_Default
                0x9d06ce24       0x5c
 .text.ETH_RMIIResetDisable_Default
                0x9d06ce24       0x5c build/pic32mx_eth_sk_int_dyn/production/_ext/1697634946/drv_ethmac_lib.o

.text.PLIB_ETH_TxPacketDescAddrSet
                0x9d06ce80       0x5c
 .text.PLIB_ETH_TxPacketDescAddrSet
                0x9d06ce80       0x5c build/pic32mx_eth_sk_int_dyn/production/_ext/1697634946/drv_ethmac_lib.o

.text.PLIB_ETH_RxPacketDescAddrSet
                0x9d06cedc       0x5c
 .text.PLIB_ETH_RxPacketDescAddrSet
                0x9d06cedc       0x5c build/pic32mx_eth_sk_int_dyn/production/_ext/1697634946/drv_ethmac_lib.o

.text.PLIB_ETH_InterruptClear
                0x9d06cf38       0x5c
 .text.PLIB_ETH_InterruptClear
                0x9d06cf38       0x5c build/pic32mx_eth_sk_int_dyn/production/_ext/1697634946/drv_ethmac_lib.o

.text.PLIB_ETH_RMIISpeedSet
                0x9d06cf94       0x5c
 .text.PLIB_ETH_RMIISpeedSet
                0x9d06cf94       0x5c build/pic32mx_eth_sk_int_dyn/production/_ext/1697634946/drv_ethmac_lib.o

.text.ETH_MIIMResetEnable_Default
                0x9d06cff0       0x5c
 .text.ETH_MIIMResetEnable_Default
                0x9d06cff0       0x5c build/pic32mx_eth_sk_int_dyn/production/_ext/521481140/drv_ethphy.o

.text.ETH_MIIMResetDisable_Default
                0x9d06d04c       0x5c
 .text.ETH_MIIMResetDisable_Default
                0x9d06d04c       0x5c build/pic32mx_eth_sk_int_dyn/production/_ext/521481140/drv_ethphy.o

.text.ETH_MIIMWriteStart_Default
                0x9d06d0a8       0x5c
 .text.ETH_MIIMWriteStart_Default
                0x9d06d0a8       0x5c build/pic32mx_eth_sk_int_dyn/production/_ext/521481140/drv_ethphy.o

.text.PLIB_ETH_MIIMClockSet
                0x9d06d104       0x5c
 .text.PLIB_ETH_MIIMClockSet
                0x9d06d104       0x5c build/pic32mx_eth_sk_int_dyn/production/_ext/521481140/drv_ethphy.o

.text.PLIB_INT_SourceFlagClear
                0x9d06d160       0x5c
 .text.PLIB_INT_SourceFlagClear
                0x9d06d160       0x5c build/pic32mx_eth_sk_int_dyn/production/_ext/184581597/drv_nvm.o

.text.PLIB_INT_SourceEnable
                0x9d06d1bc       0x5c
 .text.PLIB_INT_SourceEnable
                0x9d06d1bc       0x5c build/pic32mx_eth_sk_int_dyn/production/_ext/184581597/drv_nvm.o

.text.NVM_MemoryModifyInhibit_Default
                0x9d06d218       0x5c
 .text.NVM_MemoryModifyInhibit_Default
                0x9d06d218       0x5c build/pic32mx_eth_sk_int_dyn/production/_ext/184581597/drv_nvm.o

.text.PLIB_NVM_MemoryOperationSelect
                0x9d06d274       0x5c
 .text.PLIB_NVM_MemoryOperationSelect
                0x9d06d274       0x5c build/pic32mx_eth_sk_int_dyn/production/_ext/184581597/drv_nvm.o

.text.PLIB_NVM_FlashAddressToModify
                0x9d06d2d0       0x5c
 .text.PLIB_NVM_FlashAddressToModify
                0x9d06d2d0       0x5c build/pic32mx_eth_sk_int_dyn/production/_ext/184581597/drv_nvm.o

.text.PLIB_NVM_FlashProvideData
                0x9d06d32c       0x5c
 .text.PLIB_NVM_FlashProvideData
                0x9d06d32c       0x5c build/pic32mx_eth_sk_int_dyn/production/_ext/184581597/drv_nvm.o

.text.PLIB_NVM_FlashWriteKeySequence
                0x9d06d388       0x5c
 .text.PLIB_NVM_FlashWriteKeySequence
                0x9d06d388       0x5c build/pic32mx_eth_sk_int_dyn/production/_ext/184581597/drv_nvm.o

.text.PLIB_NVM_DataBlockSourceAddress
                0x9d06d3e4       0x5c
 .text.PLIB_NVM_DataBlockSourceAddress
                0x9d06d3e4       0x5c build/pic32mx_eth_sk_int_dyn/production/_ext/184581597/drv_nvm.o

.text.PLIB_ETH_ReceiveFilterEnable
                0x9d06d440       0x5c
 .text.PLIB_ETH_ReceiveFilterEnable
                0x9d06d440       0x5c build/pic32mx_eth_sk_int_dyn/production/_ext/1104573755/plib_eth_legacy.o

.text.PLIB_ETH_ReceiveFilterDisable
                0x9d06d49c       0x5c
 .text.PLIB_ETH_ReceiveFilterDisable
                0x9d06d49c       0x5c build/pic32mx_eth_sk_int_dyn/production/_ext/1104573755/plib_eth_legacy.o

.text.PLIB_OSC_OnWaitActionSet
                0x9d06d4f8       0x5c
 .text.PLIB_OSC_OnWaitActionSet
                0x9d06d4f8       0x5c build/pic32mx_eth_sk_int_dyn/production/_ext/52938249/sys_clk_pic32.o

.text.PLIB_OSC_FRCDivisorSelect
                0x9d06d554       0x5c
 .text.PLIB_OSC_FRCDivisorSelect
                0x9d06d554       0x5c build/pic32mx_eth_sk_int_dyn/production/_ext/52938249/sys_clk_pic32.o

.text.PLIB_OSC_SysClockSelect
                0x9d06d5b0       0x5c
 .text.PLIB_OSC_SysClockSelect
                0x9d06d5b0       0x5c build/pic32mx_eth_sk_int_dyn/production/_ext/52938249/sys_clk_pic32.o

.text.PLIB_OSC_UsbClockSourceSelect
                0x9d06d60c       0x5c
 .text.PLIB_OSC_UsbClockSourceSelect
                0x9d06d60c       0x5c build/pic32mx_eth_sk_int_dyn/production/_ext/52938249/sys_clk_pic32.o

.text.PLIB_OSC_ReferenceOscStopInSleepEnable
                0x9d06d668       0x5c
 .text.PLIB_OSC_ReferenceOscStopInSleepEnable
                0x9d06d668       0x5c build/pic32mx_eth_sk_int_dyn/production/_ext/52938249/sys_clk_pic32.o

.text.PLIB_OSC_ReferenceOscStopInSleepDisable
                0x9d06d6c4       0x5c
 .text.PLIB_OSC_ReferenceOscStopInSleepDisable
                0x9d06d6c4       0x5c build/pic32mx_eth_sk_int_dyn/production/_ext/52938249/sys_clk_pic32.o

.text.PLIB_OSC_ReferenceOutputEnable
                0x9d06d720       0x5c
 .text.PLIB_OSC_ReferenceOutputEnable
                0x9d06d720       0x5c build/pic32mx_eth_sk_int_dyn/production/_ext/52938249/sys_clk_pic32.o

.text.PLIB_OSC_ReferenceOscStopInIdleEnable
                0x9d06d77c       0x5c
 .text.PLIB_OSC_ReferenceOscStopInIdleEnable
                0x9d06d77c       0x5c build/pic32mx_eth_sk_int_dyn/production/_ext/52938249/sys_clk_pic32.o

.text.PLIB_OSC_ReferenceOscStopInIdleDisable
                0x9d06d7d8       0x5c
 .text.PLIB_OSC_ReferenceOscStopInIdleDisable
                0x9d06d7d8       0x5c build/pic32mx_eth_sk_int_dyn/production/_ext/52938249/sys_clk_pic32.o

.text.PLIB_OSC_ReferenceOscEnable
                0x9d06d834       0x5c
 .text.PLIB_OSC_ReferenceOscEnable
                0x9d06d834       0x5c build/pic32mx_eth_sk_int_dyn/production/_ext/52938249/sys_clk_pic32.o

.text.PLIB_OSC_ReferenceOscDisable
                0x9d06d890       0x5c
 .text.PLIB_OSC_ReferenceOscDisable
                0x9d06d890       0x5c build/pic32mx_eth_sk_int_dyn/production/_ext/52938249/sys_clk_pic32.o

.text.SYS_CLK_FrequencyErrorCheck
                0x9d06d8ec       0x5c
 .text.SYS_CLK_FrequencyErrorCheck
                0x9d06d8ec       0x5c build/pic32mx_eth_sk_int_dyn/production/_ext/52938249/sys_clk_pic32.o
                0x9d06d8ec                SYS_CLK_FrequencyErrorCheck

.text.INT_MultiVectorSelect_Default
                0x9d06d948       0x5c
 .text.INT_MultiVectorSelect_Default
                0x9d06d948       0x5c build/pic32mx_eth_sk_int_dyn/production/_ext/1042686532/sys_int_pic32.o

.text.PLIB_INT_SourceDisable
                0x9d06d9a4       0x5c
 .text.PLIB_INT_SourceDisable
                0x9d06d9a4       0x5c build/pic32mx_eth_sk_int_dyn/production/_ext/1042686532/sys_int_pic32.o

.text.TCPIP_OAHASH_EntryRemove
                0x9d06da00       0x5c
 .text.TCPIP_OAHASH_EntryRemove
                0x9d06da00       0x5c build/pic32mx_eth_sk_int_dyn/production/_ext/1164207549/oahash.o
                0x9d06da00                TCPIP_OAHASH_EntryRemove

.text._TcpSocketBind
                0x9d06da5c       0x5c
 .text._TcpSocketBind
                0x9d06da5c       0x5c build/pic32mx_eth_sk_int_dyn/production/_ext/1164207549/tcp.o

.text.TCPIP_STACK_IndexToNet
                0x9d06dab8       0x5c
 .text.TCPIP_STACK_IndexToNet
                0x9d06dab8       0x5c build/pic32mx_eth_sk_int_dyn/production/_ext/1164207549/tcpip_manager.o
                0x9d06dab8                TCPIP_STACK_IndexToNet

.text._UDPSocketBind
                0x9d06db14       0x5c
 .text._UDPSocketBind
                0x9d06db14       0x5c build/pic32mx_eth_sk_int_dyn/production/_ext/1164207549/udp.o

.text.TCPIP_UDP_Close
                0x9d06db70       0x5c
 .text.TCPIP_UDP_Close
                0x9d06db70       0x5c build/pic32mx_eth_sk_int_dyn/production/_ext/1164207549/udp.o
                0x9d06db70                TCPIP_UDP_Close

.text.TCPIP_UDP_Discard
                0x9d06dbcc       0x5c
 .text.TCPIP_UDP_Discard
                0x9d06dbcc       0x5c build/pic32mx_eth_sk_int_dyn/production/_ext/1164207549/udp.o
                0x9d06dbcc                TCPIP_UDP_Discard

.text.calloc    0x9d06dc28       0x5c
 .text.calloc   0x9d06dc28       0x5c c:/program files/microchip/xc32/v1.30-tc9/bin/../lib/gcc/pic32mx/4.5.2/../../../../pic32mx/lib\libc.a(calloc.o)
                0x9d06dc28                calloc

.text.USART_OPEN
                0x9d06dc84       0x58
 .text.USART_OPEN
                0x9d06dc84       0x58 build/pic32mx_eth_sk_int_dyn/production/_ext/2138650627/usart.o
                0x9d06dc84                USART_OPEN

.text.USART_GETC
                0x9d06dcdc       0x58
 .text.USART_GETC
                0x9d06dcdc       0x58 build/pic32mx_eth_sk_int_dyn/production/_ext/2138650627/usart.o
                0x9d06dcdc                USART_GETC

.text.PLIB_INT_SourceIsEnabled
                0x9d06dd34       0x58
 .text.PLIB_INT_SourceIsEnabled
                0x9d06dd34       0x58 build/pic32mx_eth_sk_int_dyn/production/_ext/1042686532/sys_int_pic32.o

.text.HTTPPrint_ddns_status
                0x9d06dd8c       0x58
 .text.HTTPPrint_ddns_status
                0x9d06dd8c       0x58 build/pic32mx_eth_sk_int_dyn/production/_ext/1360937237/custom_http_app.o
                0x9d06dd8c                HTTPPrint_ddns_status

.text.HTTPPrint_smtps_en
                0x9d06dde4       0x58
 .text.HTTPPrint_smtps_en
                0x9d06dde4       0x58 build/pic32mx_eth_sk_int_dyn/production/_ext/1360937237/custom_http_app.o
                0x9d06dde4                HTTPPrint_smtps_en

.text.HTTPPrint_snmp_en
                0x9d06de3c       0x58
 .text.HTTPPrint_snmp_en
                0x9d06de3c       0x58 build/pic32mx_eth_sk_int_dyn/production/_ext/1360937237/custom_http_app.o
                0x9d06de3c                HTTPPrint_snmp_en

.text.TCPIP_ARP_HashKeyHash
                0x9d06de94       0x58
 .text.TCPIP_ARP_HashKeyHash
                0x9d06de94       0x58 build/pic32mx_eth_sk_int_dyn/production/_ext/1164207549/arp.o
                0x9d06de94                TCPIP_ARP_HashKeyHash

.text.StateMachineTcpTxDone
                0x9d06deec       0x58
 .text.StateMachineTcpTxDone
                0x9d06deec       0x58 build/pic32mx_eth_sk_int_dyn/production/_ext/1164207549/iperf.o

.text.TCPIP_SNMP_PutDataArray
                0x9d06df44       0x58
 .text.TCPIP_SNMP_PutDataArray
                0x9d06df44       0x58 build/pic32mx_eth_sk_int_dyn/production/_ext/1164207549/snmp.o

.text.TCPIP_Helper_PowerModeToString
                0x9d06df9c       0x58
 .text.TCPIP_Helper_PowerModeToString
                0x9d06df9c       0x58 build/pic32mx_eth_sk_int_dyn/production/_ext/1164207549/tcpip_helpers.o
                0x9d06df9c                TCPIP_Helper_PowerModeToString

.text.TCPIP_Helper_ChecksumFold
                0x9d06dff4       0x58
 .text.TCPIP_Helper_ChecksumFold
                0x9d06dff4       0x58 build/pic32mx_eth_sk_int_dyn/production/_ext/1164207549/tcpip_helpers.o
                0x9d06dff4                TCPIP_Helper_ChecksumFold

.text._Telnet_Deregister
                0x9d06e04c       0x58
 .text._Telnet_Deregister
                0x9d06e04c       0x58 build/pic32mx_eth_sk_int_dyn/production/_ext/1164207549/telnet.o

.text.strncpy   0x9d06e0a4       0x58
 .text.strncpy  0x9d06e0a4       0x58 c:/program files/microchip/xc32/v1.30-tc9/bin/../lib/gcc/pic32mx/4.5.2/../../../../pic32mx/lib\libc.a(strncpy.o)
                0x9d06e0a4                strncpy

.text.PLIB_INT_Enable
                0x9d06e0fc       0x54
 .text.PLIB_INT_Enable
                0x9d06e0fc       0x54 build/pic32mx_eth_sk_int_dyn/production/_ext/1951764757/system_init.o

.text.DmaResume
                0x9d06e150       0x54
 .text.DmaResume
                0x9d06e150       0x54 build/pic32mx_eth_sk_int_dyn/production/_ext/377798159/config_performance.o
                0x9d06e150                DmaResume

.text.PLIB_ETH_Enable
                0x9d06e1a4       0x54
 .text.PLIB_ETH_Enable
                0x9d06e1a4       0x54 build/pic32mx_eth_sk_int_dyn/production/_ext/1697634946/drv_ethmac_lib.o

.text.PLIB_ETH_Disable
                0x9d06e1f8       0x54
 .text.PLIB_ETH_Disable
                0x9d06e1f8       0x54 build/pic32mx_eth_sk_int_dyn/production/_ext/1697634946/drv_ethmac_lib.o

.text.PLIB_ETH_TxRTSEnable
                0x9d06e24c       0x54
 .text.PLIB_ETH_TxRTSEnable
                0x9d06e24c       0x54 build/pic32mx_eth_sk_int_dyn/production/_ext/1697634946/drv_ethmac_lib.o

.text.PLIB_ETH_TxRTSDisable
                0x9d06e2a0       0x54
 .text.PLIB_ETH_TxRTSDisable
                0x9d06e2a0       0x54 build/pic32mx_eth_sk_int_dyn/production/_ext/1697634946/drv_ethmac_lib.o

.text.PLIB_ETH_RxEnable
                0x9d06e2f4       0x54
 .text.PLIB_ETH_RxEnable
                0x9d06e2f4       0x54 build/pic32mx_eth_sk_int_dyn/production/_ext/1697634946/drv_ethmac_lib.o

.text.PLIB_ETH_RxDisable
                0x9d06e348       0x54
 .text.PLIB_ETH_RxDisable
                0x9d06e348       0x54 build/pic32mx_eth_sk_int_dyn/production/_ext/1697634946/drv_ethmac_lib.o

.text.PLIB_ETH_RxBufferCountDecrement
                0x9d06e39c       0x54
 .text.PLIB_ETH_RxBufferCountDecrement
                0x9d06e39c       0x54 build/pic32mx_eth_sk_int_dyn/production/_ext/1697634946/drv_ethmac_lib.o

.text.PLIB_ETH_MIIResetEnable
                0x9d06e3f0       0x54
 .text.PLIB_ETH_MIIResetEnable
                0x9d06e3f0       0x54 build/pic32mx_eth_sk_int_dyn/production/_ext/1697634946/drv_ethmac_lib.o

.text.PLIB_ETH_MIIResetDisable
                0x9d06e444       0x54
 .text.PLIB_ETH_MIIResetDisable
                0x9d06e444       0x54 build/pic32mx_eth_sk_int_dyn/production/_ext/1697634946/drv_ethmac_lib.o

.text.PLIB_ETH_RMIIResetEnable
                0x9d06e498       0x54
 .text.PLIB_ETH_RMIIResetEnable
                0x9d06e498       0x54 build/pic32mx_eth_sk_int_dyn/production/_ext/1697634946/drv_ethmac_lib.o

.text.PLIB_ETH_RMIIResetDisable
                0x9d06e4ec       0x54
 .text.PLIB_ETH_RMIIResetDisable
                0x9d06e4ec       0x54 build/pic32mx_eth_sk_int_dyn/production/_ext/1697634946/drv_ethmac_lib.o

.text.PLIB_ETH_MIIMResetEnable
                0x9d06e540       0x54
 .text.PLIB_ETH_MIIMResetEnable
                0x9d06e540       0x54 build/pic32mx_eth_sk_int_dyn/production/_ext/521481140/drv_ethphy.o

.text.PLIB_ETH_MIIMResetDisable
                0x9d06e594       0x54
 .text.PLIB_ETH_MIIMResetDisable
                0x9d06e594       0x54 build/pic32mx_eth_sk_int_dyn/production/_ext/521481140/drv_ethphy.o

.text.PLIB_ETH_MIIMReadStart
                0x9d06e5e8       0x54
 .text.PLIB_ETH_MIIMReadStart
                0x9d06e5e8       0x54 build/pic32mx_eth_sk_int_dyn/production/_ext/521481140/drv_ethphy.o

.text.PLIB_ETH_MIIMWriteStart
                0x9d06e63c       0x54
 .text.PLIB_ETH_MIIMWriteStart
                0x9d06e63c       0x54 build/pic32mx_eth_sk_int_dyn/production/_ext/521481140/drv_ethphy.o

.text._Phy2LinkStat
                0x9d06e690       0x54
 .text._Phy2LinkStat
                0x9d06e690       0x54 build/pic32mx_eth_sk_int_dyn/production/_ext/521481140/drv_ethphy.o

.text._PhyReadReg
                0x9d06e6e4       0x54
 .text._PhyReadReg
                0x9d06e6e4       0x54 build/pic32mx_eth_sk_int_dyn/production/_ext/521481140/drv_ethphy.o

.text.PLIB_INT_Enable
                0x9d06e738       0x54
 .text.PLIB_INT_Enable
                0x9d06e738       0x54 build/pic32mx_eth_sk_int_dyn/production/_ext/184581597/drv_nvm.o

.text.PLIB_NVM_MemoryModifyInhibit
                0x9d06e78c       0x54
 .text.PLIB_NVM_MemoryModifyInhibit
                0x9d06e78c       0x54 build/pic32mx_eth_sk_int_dyn/production/_ext/184581597/drv_nvm.o

.text.PLIB_NVM_FlashWriteStart
                0x9d06e7e0       0x54
 .text.PLIB_NVM_FlashWriteStart
                0x9d06e7e0       0x54 build/pic32mx_eth_sk_int_dyn/production/_ext/184581597/drv_nvm.o

.text.PLIB_OSC_SecondaryEnable
                0x9d06e834       0x54
 .text.PLIB_OSC_SecondaryEnable
                0x9d06e834       0x54 build/pic32mx_eth_sk_int_dyn/production/_ext/52938249/sys_clk_pic32.o

.text.PLIB_OSC_SecondaryDisable
                0x9d06e888       0x54
 .text.PLIB_OSC_SecondaryDisable
                0x9d06e888       0x54 build/pic32mx_eth_sk_int_dyn/production/_ext/52938249/sys_clk_pic32.o

.text.PLIB_INT_MultiVectorSelect
                0x9d06e8dc       0x54
 .text.PLIB_INT_MultiVectorSelect
                0x9d06e8dc       0x54 build/pic32mx_eth_sk_int_dyn/production/_ext/1042686532/sys_int_pic32.o

.text.PLIB_INT_Disable
                0x9d06e930       0x54
 .text.PLIB_INT_Disable
                0x9d06e930       0x54 build/pic32mx_eth_sk_int_dyn/production/_ext/1042686532/sys_int_pic32.o

.text.SYS_INT_SourceDisable
                0x9d06e984       0x54
 .text.SYS_INT_SourceDisable
                0x9d06e984       0x54 build/pic32mx_eth_sk_int_dyn/production/_ext/1042686532/sys_int_pic32.o
                0x9d06e984                SYS_INT_SourceDisable

.text.HTTPPrint_version
                0x9d06e9d8       0x54
 .text.HTTPPrint_version
                0x9d06e9d8       0x54 build/pic32mx_eth_sk_int_dyn/production/_ext/1360937237/custom_http_app.o
                0x9d06e9d8                HTTPPrint_version

.text.HTTPPrint_drive
                0x9d06ea2c       0x54
 .text.HTTPPrint_drive
                0x9d06ea2c       0x54 build/pic32mx_eth_sk_int_dyn/production/_ext/1360937237/custom_http_app.o
                0x9d06ea2c                HTTPPrint_drive

.text.HTTPPrint_fstype
                0x9d06ea80       0x54
 .text.HTTPPrint_fstype
                0x9d06ea80       0x54 build/pic32mx_eth_sk_int_dyn/production/_ext/1360937237/custom_http_app.o
                0x9d06ea80                HTTPPrint_fstype

.text._ARPTxAckFnc
                0x9d06ead4       0x54
 .text._ARPTxAckFnc
                0x9d06ead4       0x54 build/pic32mx_eth_sk_int_dyn/production/_ext/1164207549/arp.o

.text._DHCPSetRunFail
                0x9d06eb28       0x54
 .text._DHCPSetRunFail
                0x9d06eb28       0x54 build/pic32mx_eth_sk_int_dyn/production/_ext/1164207549/dhcp.o

.text.TCPIP_SMTP_MailSend
                0x9d06eb7c       0x54
 .text.TCPIP_SMTP_MailSend
                0x9d06eb7c       0x54 build/pic32mx_eth_sk_int_dyn/production/_ext/1164207549/smtp.o
                0x9d06eb7c                TCPIP_SMTP_MailSend

.text.TCPIP_SMTP_IsPutReady
                0x9d06ebd0       0x54
 .text.TCPIP_SMTP_IsPutReady
                0x9d06ebd0       0x54 build/pic32mx_eth_sk_int_dyn/production/_ext/1164207549/smtp.o
                0x9d06ebd0                TCPIP_SMTP_IsPutReady

.text._TcpDiscardTx
                0x9d06ec24       0x54
 .text._TcpDiscardTx
                0x9d06ec24       0x54 build/pic32mx_eth_sk_int_dyn/production/_ext/1164207549/tcp.o

.text.TCPIP_TCP_Put
                0x9d06ec78       0x54
 .text.TCPIP_TCP_Put
                0x9d06ec78       0x54 build/pic32mx_eth_sk_int_dyn/production/_ext/1164207549/tcp.o
                0x9d06ec78                TCPIP_TCP_Put

.text.TCPIP_MAC_PacketRx
                0x9d06eccc       0x54
 .text.TCPIP_MAC_PacketRx
                0x9d06eccc       0x54 build/pic32mx_eth_sk_int_dyn/production/_ext/1164207549/tcpip_mac_object.o
                0x9d06eccc                TCPIP_MAC_PacketRx

.text.TCPIP_STACK_AddressServiceCanStart
                0x9d06ed20       0x54
 .text.TCPIP_STACK_AddressServiceCanStart
                0x9d06ed20       0x54 build/pic32mx_eth_sk_int_dyn/production/_ext/1164207549/tcpip_manager.o
                0x9d06ed20                TCPIP_STACK_AddressServiceCanStart

.text._UDPUpdatePacket
                0x9d06ed74       0x54
 .text._UDPUpdatePacket
                0x9d06ed74       0x54 build/pic32mx_eth_sk_int_dyn/production/_ext/1164207549/udp.o

.text.TCPIP_UDP_ServerOpen
                0x9d06edc8       0x54
 .text.TCPIP_UDP_ServerOpen
                0x9d06edc8       0x54 build/pic32mx_eth_sk_int_dyn/production/_ext/1164207549/udp.o
                0x9d06edc8                TCPIP_UDP_ServerOpen

.text.TCPIP_UDP_ClientOpen
                0x9d06ee1c       0x54
 .text.TCPIP_UDP_ClientOpen
                0x9d06ee1c       0x54 build/pic32mx_eth_sk_int_dyn/production/_ext/1164207549/udp.o
                0x9d06ee1c                TCPIP_UDP_ClientOpen

.text.TCPIP_UDP_Put
                0x9d06ee70       0x54
 .text.TCPIP_UDP_Put
                0x9d06ee70       0x54 build/pic32mx_eth_sk_int_dyn/production/_ext/1164207549/udp.o
                0x9d06ee70                TCPIP_UDP_Put

.text._SYS_CONSOLE_PUTC
                0x9d06eec4       0x54
 .text._SYS_CONSOLE_PUTC
                0x9d06eec4       0x54 build/pic32mx_eth_sk_int_dyn/production/_ext/1418760511/system_debug.o
                0x9d06eec4                _SYS_CONSOLE_PUTC

.rodata         0x9d06ef18       0x54
 .rodata        0x9d06ef18       0x54 c:/program files/microchip/xc32/v1.30-tc9/bin/../lib/gcc/pic32mx/4.5.2/../../../../pic32mx/lib\libmchp_peripheral_32MX795F512L.a(_ports_tbl_libp.o)
                0x9d06ef18                PortRegTbl

.text.SYS_Tasks
                0x9d06ef6c       0x50
 .text.SYS_Tasks
                0x9d06ef6c       0x50 build/pic32mx_eth_sk_int_dyn/production/_ext/1951764757/system_tasks.o
                0x9d06ef6c                SYS_Tasks

.text.DRV_ETHMAC_PIC32MACProcess
                0x9d06efbc       0x50
 .text.DRV_ETHMAC_PIC32MACProcess
                0x9d06efbc       0x50 build/pic32mx_eth_sk_int_dyn/production/_ext/1697634946/drv_ethmac.o
                0x9d06efbc                DRV_ETHMAC_PIC32MACProcess

.text.PLIB_ETH_TxPacketDescAddrGet
                0x9d06f00c       0x50
 .text.PLIB_ETH_TxPacketDescAddrGet
                0x9d06f00c       0x50 build/pic32mx_eth_sk_int_dyn/production/_ext/1697634946/drv_ethmac_lib.o

.text.PLIB_ETH_RxPacketDescAddrGet
                0x9d06f05c       0x50
 .text.PLIB_ETH_RxPacketDescAddrGet
                0x9d06f05c       0x50 build/pic32mx_eth_sk_int_dyn/production/_ext/1697634946/drv_ethmac_lib.o

.text.PLIB_ETH_RxPacketCountGet
                0x9d06f0ac       0x50
 .text.PLIB_ETH_RxPacketCountGet
                0x9d06f0ac       0x50 build/pic32mx_eth_sk_int_dyn/production/_ext/1697634946/drv_ethmac_lib.o

.text.PLIB_ETH_EthernetIsBusy
                0x9d06f0fc       0x50
 .text.PLIB_ETH_EthernetIsBusy
                0x9d06f0fc       0x50 build/pic32mx_eth_sk_int_dyn/production/_ext/1697634946/drv_ethmac_lib.o

.text.PLIB_ETH_TransmitIsBusy
                0x9d06f14c       0x50
 .text.PLIB_ETH_TransmitIsBusy
                0x9d06f14c       0x50 build/pic32mx_eth_sk_int_dyn/production/_ext/1697634946/drv_ethmac_lib.o

.text.PLIB_ETH_ReceiveIsBusy
                0x9d06f19c       0x50
 .text.PLIB_ETH_ReceiveIsBusy
                0x9d06f19c       0x50 build/pic32mx_eth_sk_int_dyn/production/_ext/1697634946/drv_ethmac_lib.o

.text.DRV_ETHMAC_LibRxAcknowledgeBuffer
                0x9d06f1ec       0x50
 .text.DRV_ETHMAC_LibRxAcknowledgeBuffer
                0x9d06f1ec       0x50 build/pic32mx_eth_sk_int_dyn/production/_ext/1697634946/drv_ethmac_lib.o
                0x9d06f1ec                DRV_ETHMAC_LibRxAcknowledgeBuffer

.text.PLIB_ETH_MIIMReadDataGet
                0x9d06f23c       0x50
 .text.PLIB_ETH_MIIMReadDataGet
                0x9d06f23c       0x50 build/pic32mx_eth_sk_int_dyn/production/_ext/521481140/drv_ethphy.o

.text.PLIB_ETH_MIIMIsBusy
                0x9d06f28c       0x50
 .text.PLIB_ETH_MIIMIsBusy
                0x9d06f28c       0x50 build/pic32mx_eth_sk_int_dyn/production/_ext/521481140/drv_ethphy.o

.text.PLIB_NVM_ExistsMemoryModificationControl
                0x9d06f2dc       0x50
 .text.PLIB_NVM_ExistsMemoryModificationControl
                0x9d06f2dc       0x50 build/pic32mx_eth_sk_int_dyn/production/_ext/184581597/drv_nvm.o

.text.DRV_NVM_MEDIA_BufferStatusGet
                0x9d06f32c       0x50
 .text.DRV_NVM_MEDIA_BufferStatusGet
                0x9d06f32c       0x50 build/pic32mx_eth_sk_int_dyn/production/_ext/184581597/drv_nvm_media.o
                0x9d06f32c                DRV_NVM_MEDIA_BufferStatusGet

.text.PLIB_OSC_ExistsOnWaitAction
                0x9d06f37c       0x50
 .text.PLIB_OSC_ExistsOnWaitAction
                0x9d06f37c       0x50 build/pic32mx_eth_sk_int_dyn/production/_ext/52938249/sys_clk_pic32.o

.text.PLIB_OSC_ExistsSecondaryEnable
                0x9d06f3cc       0x50
 .text.PLIB_OSC_ExistsSecondaryEnable
                0x9d06f3cc       0x50 build/pic32mx_eth_sk_int_dyn/production/_ext/52938249/sys_clk_pic32.o

.text.PLIB_OSC_ExistsReferenceOscEnable
                0x9d06f41c       0x50
 .text.PLIB_OSC_ExistsReferenceOscEnable
                0x9d06f41c       0x50 build/pic32mx_eth_sk_int_dyn/production/_ext/52938249/sys_clk_pic32.o

.text.SYS_CLK_SystemClockSourceSwitch
                0x9d06f46c       0x50
 .text.SYS_CLK_SystemClockSourceSwitch
                0x9d06f46c       0x50 build/pic32mx_eth_sk_int_dyn/production/_ext/52938249/sys_clk_pic32.o
                0x9d06f46c                SYS_CLK_SystemClockSourceSwitch

.text.SYS_CLK_UsbClockSourceSwitch
                0x9d06f4bc       0x50
 .text.SYS_CLK_UsbClockSourceSwitch
                0x9d06f4bc       0x50 build/pic32mx_eth_sk_int_dyn/production/_ext/52938249/sys_clk_pic32.o
                0x9d06f4bc                SYS_CLK_UsbClockSourceSwitch

.text.PLIB_INT_IsEnabled
                0x9d06f50c       0x50
 .text.PLIB_INT_IsEnabled
                0x9d06f50c       0x50 build/pic32mx_eth_sk_int_dyn/production/_ext/1042686532/sys_int_pic32.o

.text.TCPIP_ARP_HashKeyCompare
                0x9d06f55c       0x50
 .text.TCPIP_ARP_HashKeyCompare
                0x9d06f55c       0x50 build/pic32mx_eth_sk_int_dyn/production/_ext/1164207549/arp.o
                0x9d06f55c                TCPIP_ARP_HashKeyCompare

.text._DNSReleaseSocket
                0x9d06f5ac       0x50
 .text._DNSReleaseSocket
                0x9d06f5ac       0x50 build/pic32mx_eth_sk_int_dyn/production/_ext/1164207549/dns.o

.text.HTTPPrint_
                0x9d06f5fc       0x50
 .text.HTTPPrint_
                0x9d06f5fc       0x50 build/pic32mx_eth_sk_int_dyn/production/_ext/1164207549/http.o
                0x9d06f5fc                HTTPPrint_

.text.TCPIP_UDP_IsConnected
                0x9d06f64c       0x50
 .text.TCPIP_UDP_IsConnected
                0x9d06f64c       0x50 build/pic32mx_eth_sk_int_dyn/production/_ext/1164207549/udp.o
                0x9d06f64c                TCPIP_UDP_IsConnected

.text._SYS_CONSOLE_MESSAGE
                0x9d06f69c       0x50
 .text._SYS_CONSOLE_MESSAGE
                0x9d06f69c       0x50 build/pic32mx_eth_sk_int_dyn/production/_ext/1418760511/system_debug.o
                0x9d06f69c                _SYS_CONSOLE_MESSAGE

.text.sbrk      0x9d06f6ec       0x50
 .text.sbrk     0x9d06f6ec       0x50 c:/program files/microchip/xc32/v1.30-tc9/bin/../lib/gcc/pic32mx/4.5.2/../../../../pic32mx/lib\libpic32.a(sbrk.o)
                0x9d06f6ec                sbrk

.text.ETH_ReceiveFilterEnable_Default
                0x9d06f73c       0x4c
 .text.ETH_ReceiveFilterEnable_Default
                0x9d06f73c       0x4c build/pic32mx_eth_sk_int_dyn/production/_ext/1104573755/plib_eth_legacy.o

.text.ETH_ReceiveFilterDisable_Default
                0x9d06f788       0x4c
 .text.ETH_ReceiveFilterDisable_Default
                0x9d06f788       0x4c build/pic32mx_eth_sk_int_dyn/production/_ext/1104573755/plib_eth_legacy.o

.text.TCPIP_TCP_Get
                0x9d06f7d4       0x4c
 .text.TCPIP_TCP_Get
                0x9d06f7d4       0x4c build/pic32mx_eth_sk_int_dyn/production/_ext/1164207549/tcp.o
                0x9d06f7d4                TCPIP_TCP_Get

.text._Command_DHCPSOnOff
                0x9d06f820       0x4c
 .text._Command_DHCPSOnOff
                0x9d06f820       0x4c build/pic32mx_eth_sk_int_dyn/production/_ext/1164207549/tcpip_commands.o

.text._Command_ZcllOnOff
                0x9d06f86c       0x4c
 .text._Command_ZcllOnOff
                0x9d06f86c       0x4c build/pic32mx_eth_sk_int_dyn/production/_ext/1164207549/tcpip_commands.o

.text._TCPIP_HEAP_FreeDebug
                0x9d06f8b8       0x4c
 .text._TCPIP_HEAP_FreeDebug
                0x9d06f8b8       0x4c build/pic32mx_eth_sk_int_dyn/production/_ext/1164207549/tcpip_heap_alloc.o
                0x9d06f8b8                _TCPIP_HEAP_FreeDebug

.text.TCPIP_MAC_PacketTx
                0x9d06f904       0x4c
 .text.TCPIP_MAC_PacketTx
                0x9d06f904       0x4c build/pic32mx_eth_sk_int_dyn/production/_ext/1164207549/tcpip_mac_object.o
                0x9d06f904                TCPIP_MAC_PacketTx

.text.TCPIP_UDP_Get
                0x9d06f950       0x4c
 .text.TCPIP_UDP_Get
                0x9d06f950       0x4c build/pic32mx_eth_sk_int_dyn/production/_ext/1164207549/udp.o
                0x9d06f950                TCPIP_UDP_Get

.text           0x9d06f99c       0x4c
 .text          0x9d06f99c       0x4c c:/program files/microchip/xc32/v1.30-tc9/bin/../lib/gcc/pic32mx/4.5.2\libgcc.a(floatunsisf.o)
                0x9d06f99c                __floatunsisf

.text.ETH_InterruptClear_Default
                0x9d06f9e8       0x48
 .text.ETH_InterruptClear_Default
                0x9d06f9e8       0x48 build/pic32mx_eth_sk_int_dyn/production/_ext/1697634946/drv_ethmac_lib.o

.text._EthMacInit
                0x9d06fa30       0x48
 .text._EthMacInit
                0x9d06fa30       0x48 build/pic32mx_eth_sk_int_dyn/production/_ext/1697634946/drv_ethmac_lib.o

.text.PLIB_ETH_MACSetMaxFrame
                0x9d06fa78       0x48
 .text.PLIB_ETH_MACSetMaxFrame
                0x9d06fa78       0x48 build/pic32mx_eth_sk_int_dyn/production/_ext/1104573755/plib_eth_legacy.o
                0x9d06fa78                PLIB_ETH_MACSetMaxFrame

.text.PLIB_ETH_RxFiltersHTSet
                0x9d06fac0       0x48
 .text.PLIB_ETH_RxFiltersHTSet
                0x9d06fac0       0x48 build/pic32mx_eth_sk_int_dyn/production/_ext/1104573755/plib_eth_legacy.o
                0x9d06fac0                PLIB_ETH_RxFiltersHTSet

.text.SYS_INT_Disable
                0x9d06fb08       0x48
 .text.SYS_INT_Disable
                0x9d06fb08       0x48 build/pic32mx_eth_sk_int_dyn/production/_ext/1042686532/sys_int_pic32.o
                0x9d06fb08                SYS_INT_Disable

.text._ARPDeleteClients
                0x9d06fb50       0x48
 .text._ARPDeleteClients
                0x9d06fb50       0x48 build/pic32mx_eth_sk_int_dyn/production/_ext/1164207549/arp.o

.text.TCPIP_ARP_HashKeyCopy
                0x9d06fb98       0x48
 .text.TCPIP_ARP_HashKeyCopy
                0x9d06fb98       0x48 build/pic32mx_eth_sk_int_dyn/production/_ext/1164207549/arp.o
                0x9d06fb98                TCPIP_ARP_HashKeyCopy

.text.TCPIP_DNS_UsageEnd
                0x9d06fbe0       0x48
 .text.TCPIP_DNS_UsageEnd
                0x9d06fbe0       0x48 build/pic32mx_eth_sk_int_dyn/production/_ext/1164207549/dns.o
                0x9d06fbe0                TCPIP_DNS_UsageEnd

.text.TCPIP_HTTP_CurrentConnectionByteCountDec
                0x9d06fc28       0x48
 .text.TCPIP_HTTP_CurrentConnectionByteCountDec
                0x9d06fc28       0x48 build/pic32mx_eth_sk_int_dyn/production/_ext/1164207549/http.o
                0x9d06fc28                TCPIP_HTTP_CurrentConnectionByteCountDec

.text.StateMachineUdpTxDone
                0x9d06fc70       0x48
 .text.StateMachineUdpTxDone
                0x9d06fc70       0x48 build/pic32mx_eth_sk_int_dyn/production/_ext/1164207549/iperf.o

.text.TCPIP_SNMP_PacketProcStubPtrsGet
                0x9d06fcb8       0x48
 .text.TCPIP_SNMP_PacketProcStubPtrsGet
                0x9d06fcb8       0x48 build/pic32mx_eth_sk_int_dyn/production/_ext/1164207549/snmp.o
                0x9d06fcb8                TCPIP_SNMP_PacketProcStubPtrsGet

.text.TCPIP_STACK_NetIndexGet
                0x9d06fd00       0x48
 .text.TCPIP_STACK_NetIndexGet
                0x9d06fd00       0x48 build/pic32mx_eth_sk_int_dyn/production/_ext/1164207549/tcpip_manager.o
                0x9d06fd00                TCPIP_STACK_NetIndexGet

.text._TCPIPStackAsyncHandlerDeRegister
                0x9d06fd48       0x48
 .text._TCPIPStackAsyncHandlerDeRegister
                0x9d06fd48       0x48 build/pic32mx_eth_sk_int_dyn/production/_ext/1164207549/tcpip_manager.o
                0x9d06fd48                _TCPIPStackAsyncHandlerDeRegister

.text.TCPIP_UDP_TxPutIsReady
                0x9d06fd90       0x48
 .text.TCPIP_UDP_TxPutIsReady
                0x9d06fd90       0x48 build/pic32mx_eth_sk_int_dyn/production/_ext/1164207549/udp.o
                0x9d06fd90                TCPIP_UDP_TxPutIsReady

.text._SYS_CONSOLE_DATA_RDY
                0x9d06fdd8       0x48
 .text._SYS_CONSOLE_DATA_RDY
                0x9d06fdd8       0x48 build/pic32mx_eth_sk_int_dyn/production/_ext/1418760511/system_debug.o
                0x9d06fdd8                _SYS_CONSOLE_DATA_RDY

.text._SYS_CONSOLE_GETC
                0x9d06fe20       0x48
 .text._SYS_CONSOLE_GETC
                0x9d06fe20       0x48 build/pic32mx_eth_sk_int_dyn/production/_ext/1418760511/system_debug.o
                0x9d06fe20                _SYS_CONSOLE_GETC

.vector_default
                0x9d06fe68       0x48
 .vector_default
                0x9d06fe68       0x48 c:/program files/microchip/xc32/v1.30-tc9/bin/../lib/gcc/pic32mx/4.5.2/../../../../pic32mx/lib\libpic32.a(defaultinterrupt.o)
                0x9d06fe68                _DefaultInterrupt

.text._INT_INT_FLAG_STATUS_0_VREG
                0x9d06feb0       0x44
 .text._INT_INT_FLAG_STATUS_0_VREG
                0x9d06feb0       0x44 build/pic32mx_eth_sk_int_dyn/production/_ext/1951764757/system_init_private.o

.text._INT_INT_ENABLE_CONTROL_0_VREG
                0x9d06fef4       0x44
 .text._INT_INT_ENABLE_CONTROL_0_VREG
                0x9d06fef4       0x44 build/pic32mx_eth_sk_int_dyn/production/_ext/1951764757/system_init_private.o

.text._INT_INT_PRIORITY_CONTROL_0_VREG
                0x9d06ff38       0x44
 .text._INT_INT_PRIORITY_CONTROL_0_VREG
                0x9d06ff38       0x44 build/pic32mx_eth_sk_int_dyn/production/_ext/1951764757/system_init_private.o

.text.SYS_Reboot
                0x9d06ff7c       0x44
 .text.SYS_Reboot
                0x9d06ff7c       0x44 build/pic32mx_eth_sk_int_dyn/production/_ext/1951764757/system_init_private.o
                0x9d06ff7c                SYS_Reboot

.text._INT_INT_FLAG_STATUS_0_VREG
                0x9d06ffc0       0x44
 .text._INT_INT_FLAG_STATUS_0_VREG
                0x9d06ffc0       0x44 build/pic32mx_eth_sk_int_dyn/production/_ext/1697634946/drv_ethmac.o

.text._ETH_ETHERNET_ON_VREG
                0x9d070004       0x44
 .text._ETH_ETHERNET_ON_VREG
                0x9d070004       0x44 build/pic32mx_eth_sk_int_dyn/production/_ext/1697634946/drv_ethmac_lib.o

.text._ETH_TX_REQUEST_TO_SEND_VREG
                0x9d070048       0x44
 .text._ETH_TX_REQUEST_TO_SEND_VREG
                0x9d070048       0x44 build/pic32mx_eth_sk_int_dyn/production/_ext/1697634946/drv_ethmac_lib.o

.text._ETH_RX_ENABLE_VREG
                0x9d07008c       0x44
 .text._ETH_RX_ENABLE_VREG
                0x9d07008c       0x44 build/pic32mx_eth_sk_int_dyn/production/_ext/1697634946/drv_ethmac_lib.o

.text._ETH_BUFCNT_DECREMENT_VREG
                0x9d0700d0       0x44
 .text._ETH_BUFCNT_DECREMENT_VREG
                0x9d0700d0       0x44 build/pic32mx_eth_sk_int_dyn/production/_ext/1697634946/drv_ethmac_lib.o

.text._ETH_TX_START_ADDRESS_VREG
                0x9d070114       0x44
 .text._ETH_TX_START_ADDRESS_VREG
                0x9d070114       0x44 build/pic32mx_eth_sk_int_dyn/production/_ext/1697634946/drv_ethmac_lib.o

.text._ETH_RX_START_ADDRESS_VREG
                0x9d070158       0x44
 .text._ETH_RX_START_ADDRESS_VREG
                0x9d070158       0x44 build/pic32mx_eth_sk_int_dyn/production/_ext/1697634946/drv_ethmac_lib.o

.text._ETH_RX_FIFO_OVERFLOW_INT_VREG
                0x9d07019c       0x44
 .text._ETH_RX_FIFO_OVERFLOW_INT_VREG
                0x9d07019c       0x44 build/pic32mx_eth_sk_int_dyn/production/_ext/1697634946/drv_ethmac_lib.o

.text._ETH_PACKET_BUFFER_COUNT_VREG
                0x9d0701e0       0x44
 .text._ETH_PACKET_BUFFER_COUNT_VREG
                0x9d0701e0       0x44 build/pic32mx_eth_sk_int_dyn/production/_ext/1697634946/drv_ethmac_lib.o

.text._ETH_ETHERNET_MODULE_BUSY_VREG
                0x9d070224       0x44
 .text._ETH_ETHERNET_MODULE_BUSY_VREG
                0x9d070224       0x44 build/pic32mx_eth_sk_int_dyn/production/_ext/1697634946/drv_ethmac_lib.o

.text._ETH_TX_BUSY_VREG
                0x9d070268       0x44
 .text._ETH_TX_BUSY_VREG
                0x9d070268       0x44 build/pic32mx_eth_sk_int_dyn/production/_ext/1697634946/drv_ethmac_lib.o

.text._ETH_RX_BUSY_VREG
                0x9d0702ac       0x44
 .text._ETH_RX_BUSY_VREG
                0x9d0702ac       0x44 build/pic32mx_eth_sk_int_dyn/production/_ext/1697634946/drv_ethmac_lib.o

.text._ETH_MII_RESET_VREG
                0x9d0702f0       0x44
 .text._ETH_MII_RESET_VREG
                0x9d0702f0       0x44 build/pic32mx_eth_sk_int_dyn/production/_ext/1697634946/drv_ethmac_lib.o

.text._ETH_BACK2BACK_IPGAP_VREG
                0x9d070334       0x44
 .text._ETH_BACK2BACK_IPGAP_VREG
                0x9d070334       0x44 build/pic32mx_eth_sk_int_dyn/production/_ext/1697634946/drv_ethmac_lib.o

.text._ETH_NON_BACK2BACK_IPGAP1_VREG
                0x9d070378       0x44
 .text._ETH_NON_BACK2BACK_IPGAP1_VREG
                0x9d070378       0x44 build/pic32mx_eth_sk_int_dyn/production/_ext/1697634946/drv_ethmac_lib.o

.text._ETH_NON_BACK2BACK_IPGAP2_VREG
                0x9d0703bc       0x44
 .text._ETH_NON_BACK2BACK_IPGAP2_VREG
                0x9d0703bc       0x44 build/pic32mx_eth_sk_int_dyn/production/_ext/1697634946/drv_ethmac_lib.o

.text._ETH_COL_WINDOW_VREG
                0x9d070400       0x44
 .text._ETH_COL_WINDOW_VREG
                0x9d070400       0x44 build/pic32mx_eth_sk_int_dyn/production/_ext/1697634946/drv_ethmac_lib.o

.text._ETH_RETX_MAX_VREG
                0x9d070444       0x44
 .text._ETH_RETX_MAX_VREG
                0x9d070444       0x44 build/pic32mx_eth_sk_int_dyn/production/_ext/1697634946/drv_ethmac_lib.o

.text._ETH_MAX_FRAME_LENGTH_VREG
                0x9d070488       0x44
 .text._ETH_MAX_FRAME_LENGTH_VREG
                0x9d070488       0x44 build/pic32mx_eth_sk_int_dyn/production/_ext/1697634946/drv_ethmac_lib.o

.text._ETH_RESET_RMII_VREG
                0x9d0704cc       0x44
 .text._ETH_RESET_RMII_VREG
                0x9d0704cc       0x44 build/pic32mx_eth_sk_int_dyn/production/_ext/1697634946/drv_ethmac_lib.o

.text._ETH_SPEED_RMII_VREG
                0x9d070510       0x44
 .text._ETH_SPEED_RMII_VREG
                0x9d070510       0x44 build/pic32mx_eth_sk_int_dyn/production/_ext/1697634946/drv_ethmac_lib.o

.text.ETH_TxPacketDescAddrSet_Default
                0x9d070554       0x44
 .text.ETH_TxPacketDescAddrSet_Default
                0x9d070554       0x44 build/pic32mx_eth_sk_int_dyn/production/_ext/1697634946/drv_ethmac_lib.o

.text.ETH_RxPacketDescAddrSet_Default
                0x9d070598       0x44
 .text.ETH_RxPacketDescAddrSet_Default
                0x9d070598       0x44 build/pic32mx_eth_sk_int_dyn/production/_ext/1697634946/drv_ethmac_lib.o

.text._EthMacReset
                0x9d0705dc       0x44
 .text._EthMacReset
                0x9d0705dc       0x44 build/pic32mx_eth_sk_int_dyn/production/_ext/1697634946/drv_ethmac_lib.o

.text._ETH_RESET_MIIM_VREG
                0x9d070620       0x44
 .text._ETH_RESET_MIIM_VREG
                0x9d070620       0x44 build/pic32mx_eth_sk_int_dyn/production/_ext/521481140/drv_ethphy.o

.text._ETH_MII_CLOCK_SEL_VREG
                0x9d070664       0x44
 .text._ETH_MII_CLOCK_SEL_VREG
                0x9d070664       0x44 build/pic32mx_eth_sk_int_dyn/production/_ext/521481140/drv_ethphy.o

.text._ETH_MIIM_READ_COMMAND_VREG
                0x9d0706a8       0x44
 .text._ETH_MIIM_READ_COMMAND_VREG
                0x9d0706a8       0x44 build/pic32mx_eth_sk_int_dyn/production/_ext/521481140/drv_ethphy.o

.text._ETH_MIIM_PHY_ADDRESS_VREG
                0x9d0706ec       0x44
 .text._ETH_MIIM_PHY_ADDRESS_VREG
                0x9d0706ec       0x44 build/pic32mx_eth_sk_int_dyn/production/_ext/521481140/drv_ethphy.o

.text._ETH_MIIM_REGISTER_ADDRESS_VREG
                0x9d070730       0x44
 .text._ETH_MIIM_REGISTER_ADDRESS_VREG
                0x9d070730       0x44 build/pic32mx_eth_sk_int_dyn/production/_ext/521481140/drv_ethphy.o

.text._ETH_MIIM_WRITE_DATA_VREG
                0x9d070774       0x44
 .text._ETH_MIIM_WRITE_DATA_VREG
                0x9d070774       0x44 build/pic32mx_eth_sk_int_dyn/production/_ext/521481140/drv_ethphy.o

.text._ETH_MIIM_READ_DATA_VREG
                0x9d0707b8       0x44
 .text._ETH_MIIM_READ_DATA_VREG
                0x9d0707b8       0x44 build/pic32mx_eth_sk_int_dyn/production/_ext/521481140/drv_ethphy.o

.text._ETH_MIIM_BUSY_VREG
                0x9d0707fc       0x44
 .text._ETH_MIIM_BUSY_VREG
                0x9d0707fc       0x44 build/pic32mx_eth_sk_int_dyn/production/_ext/521481140/drv_ethphy.o

.text._INT_INT_FLAG_STATUS_0_VREG
                0x9d070840       0x44
 .text._INT_INT_FLAG_STATUS_0_VREG
                0x9d070840       0x44 build/pic32mx_eth_sk_int_dyn/production/_ext/184581597/drv_nvm.o

.text._INT_INT_ENABLE_CONTROL_0_VREG
                0x9d070884       0x44
 .text._INT_INT_ENABLE_CONTROL_0_VREG
                0x9d070884       0x44 build/pic32mx_eth_sk_int_dyn/production/_ext/184581597/drv_nvm.o

.text._NVM_OPERATION_MODE_VREG
                0x9d0708c8       0x44
 .text._NVM_OPERATION_MODE_VREG
                0x9d0708c8       0x44 build/pic32mx_eth_sk_int_dyn/production/_ext/184581597/drv_nvm.o

.text._NVM_MEMORY_MODIFY_CONTROL_VREG
                0x9d07090c       0x44
 .text._NVM_MEMORY_MODIFY_CONTROL_VREG
                0x9d07090c       0x44 build/pic32mx_eth_sk_int_dyn/production/_ext/184581597/drv_nvm.o

.text._NVM_KEY_SEQUENCE_VREG
                0x9d070950       0x44
 .text._NVM_KEY_SEQUENCE_VREG
                0x9d070950       0x44 build/pic32mx_eth_sk_int_dyn/production/_ext/184581597/drv_nvm.o

.text._NVM_ADDRESS_MODIFY_CONTROL_VREG
                0x9d070994       0x44
 .text._NVM_ADDRESS_MODIFY_CONTROL_VREG
                0x9d070994       0x44 build/pic32mx_eth_sk_int_dyn/production/_ext/184581597/drv_nvm.o

.text._NVM_PROVIDE_DATA_VREG
                0x9d0709d8       0x44
 .text._NVM_PROVIDE_DATA_VREG
                0x9d0709d8       0x44 build/pic32mx_eth_sk_int_dyn/production/_ext/184581597/drv_nvm.o

.text._NVM_SOURCE_ADDRESS_SELECT_VREG
                0x9d070a1c       0x44
 .text._NVM_SOURCE_ADDRESS_SELECT_VREG
                0x9d070a1c       0x44 build/pic32mx_eth_sk_int_dyn/production/_ext/184581597/drv_nvm.o

.text.NVM_MemoryOperationSelect_Default
                0x9d070a60       0x44
 .text.NVM_MemoryOperationSelect_Default
                0x9d070a60       0x44 build/pic32mx_eth_sk_int_dyn/production/_ext/184581597/drv_nvm.o

.text.NVM_FlashAddressToModify_Default
                0x9d070aa4       0x44
 .text.NVM_FlashAddressToModify_Default
                0x9d070aa4       0x44 build/pic32mx_eth_sk_int_dyn/production/_ext/184581597/drv_nvm.o

.text.NVM_FlashProvideData_Default
                0x9d070ae8       0x44
 .text.NVM_FlashProvideData_Default
                0x9d070ae8       0x44 build/pic32mx_eth_sk_int_dyn/production/_ext/184581597/drv_nvm.o

.text.NVM_FlashWriteStart_Default
                0x9d070b2c       0x44
 .text.NVM_FlashWriteStart_Default
                0x9d070b2c       0x44 build/pic32mx_eth_sk_int_dyn/production/_ext/184581597/drv_nvm.o

.text.NVM_FlashWriteKeySequence_Default
                0x9d070b70       0x44
 .text.NVM_FlashWriteKeySequence_Default
                0x9d070b70       0x44 build/pic32mx_eth_sk_int_dyn/production/_ext/184581597/drv_nvm.o

.text.NVM_DataBlockSourceAddress_Default
                0x9d070bb4       0x44
 .text.NVM_DataBlockSourceAddress_Default
                0x9d070bb4       0x44 build/pic32mx_eth_sk_int_dyn/production/_ext/184581597/drv_nvm.o

.text.USART_DATA_RDY
                0x9d070bf8       0x44
 .text.USART_DATA_RDY
                0x9d070bf8       0x44 build/pic32mx_eth_sk_int_dyn/production/_ext/2138650627/usart.o
                0x9d070bf8                USART_DATA_RDY

.text._ETH_RX_ENABLE_VREG
                0x9d070c3c       0x44
 .text._ETH_RX_ENABLE_VREG
                0x9d070c3c       0x44 build/pic32mx_eth_sk_int_dyn/production/_ext/1104573755/plib_eth_legacy.o

.text._ETH_RX_DATA_BUFFER_SIZE_VREG
                0x9d070c80       0x44
 .text._ETH_RX_DATA_BUFFER_SIZE_VREG
                0x9d070c80       0x44 build/pic32mx_eth_sk_int_dyn/production/_ext/1104573755/plib_eth_legacy.o

.text._ETH_HASH_TABLE_LOWER_VREG
                0x9d070cc4       0x44
 .text._ETH_HASH_TABLE_LOWER_VREG
                0x9d070cc4       0x44 build/pic32mx_eth_sk_int_dyn/production/_ext/1104573755/plib_eth_legacy.o

.text._ETH_HASH_TABLE_UPPER_VREG
                0x9d070d08       0x44
 .text._ETH_HASH_TABLE_UPPER_VREG
                0x9d070d08       0x44 build/pic32mx_eth_sk_int_dyn/production/_ext/1104573755/plib_eth_legacy.o

.text._ETH_BROADCAST_ENABLE_VREG
                0x9d070d4c       0x44
 .text._ETH_BROADCAST_ENABLE_VREG
                0x9d070d4c       0x44 build/pic32mx_eth_sk_int_dyn/production/_ext/1104573755/plib_eth_legacy.o

.text._ETH_MAX_FRAME_LENGTH_VREG
                0x9d070d90       0x44
 .text._ETH_MAX_FRAME_LENGTH_VREG
                0x9d070d90       0x44 build/pic32mx_eth_sk_int_dyn/production/_ext/1104573755/plib_eth_legacy.o

.text._ETH_STATION_ADDRESS_OCTET_6_VREG
                0x9d070dd4       0x44
 .text._ETH_STATION_ADDRESS_OCTET_6_VREG
                0x9d070dd4       0x44 build/pic32mx_eth_sk_int_dyn/production/_ext/1104573755/plib_eth_legacy.o

.text._ETH_STATION_ADDRESS_OCTET_5_VREG
                0x9d070e18       0x44
 .text._ETH_STATION_ADDRESS_OCTET_5_VREG
                0x9d070e18       0x44 build/pic32mx_eth_sk_int_dyn/production/_ext/1104573755/plib_eth_legacy.o

.text._ETH_STATION_ADDRESS_OCTET_4_VREG
                0x9d070e5c       0x44
 .text._ETH_STATION_ADDRESS_OCTET_4_VREG
                0x9d070e5c       0x44 build/pic32mx_eth_sk_int_dyn/production/_ext/1104573755/plib_eth_legacy.o

.text._ETH_STATION_ADDRESS_OCTET_3_VREG
                0x9d070ea0       0x44
 .text._ETH_STATION_ADDRESS_OCTET_3_VREG
                0x9d070ea0       0x44 build/pic32mx_eth_sk_int_dyn/production/_ext/1104573755/plib_eth_legacy.o

.text._ETH_STATION_ADDRESS_OCTET_2_VREG
                0x9d070ee4       0x44
 .text._ETH_STATION_ADDRESS_OCTET_2_VREG
                0x9d070ee4       0x44 build/pic32mx_eth_sk_int_dyn/production/_ext/1104573755/plib_eth_legacy.o

.text._ETH_STATION_ADDRESS_OCTET_1_VREG
                0x9d070f28       0x44
 .text._ETH_STATION_ADDRESS_OCTET_1_VREG
                0x9d070f28       0x44 build/pic32mx_eth_sk_int_dyn/production/_ext/1104573755/plib_eth_legacy.o

.text._OSC_OSC_SWITCH_INIT_VREG
                0x9d070f6c       0x44
 .text._OSC_OSC_SWITCH_INIT_VREG
                0x9d070f6c       0x44 build/pic32mx_eth_sk_int_dyn/production/_ext/52938249/sys_clk_pic32.o

.text._OSC_SECONDARY_ENABLE_VREG
                0x9d070fb0       0x44
 .text._OSC_SECONDARY_ENABLE_VREG
                0x9d070fb0       0x44 build/pic32mx_eth_sk_int_dyn/production/_ext/52938249/sys_clk_pic32.o

.text._OSC_OSC_USB_CLOCK_SOURCE_VREG
                0x9d070ff4       0x44
 .text._OSC_OSC_USB_CLOCK_SOURCE_VREG
                0x9d070ff4       0x44 build/pic32mx_eth_sk_int_dyn/production/_ext/52938249/sys_clk_pic32.o

.text._OSC_ON_WAIT_ACTION_VREG
                0x9d071038       0x44
 .text._OSC_ON_WAIT_ACTION_VREG
                0x9d071038       0x44 build/pic32mx_eth_sk_int_dyn/production/_ext/52938249/sys_clk_pic32.o

.text._OSC_OSC_SELECT_VREG
                0x9d07107c       0x44
 .text._OSC_OSC_SELECT_VREG
                0x9d07107c       0x44 build/pic32mx_eth_sk_int_dyn/production/_ext/52938249/sys_clk_pic32.o

.text._OSC_OSC_FRC_DIVISOR_VREG
                0x9d0710c0       0x44
 .text._OSC_OSC_FRC_DIVISOR_VREG
                0x9d0710c0       0x44 build/pic32mx_eth_sk_int_dyn/production/_ext/52938249/sys_clk_pic32.o

.text._OSC_OSC_REGISTER_LOCK_VREG
                0x9d071104       0x44
 .text._OSC_OSC_REGISTER_LOCK_VREG
                0x9d071104       0x44 build/pic32mx_eth_sk_int_dyn/production/_ext/52938249/sys_clk_pic32.o

.text.MPFS_Close
                0x9d071148       0x44
 .text.MPFS_Close
                0x9d071148       0x44 build/pic32mx_eth_sk_int_dyn/production/_ext/614935175/mpfs.o
                0x9d071148                MPFS_Close

.text._INT_SINGLE_MULTI_VECTOR_VREG
                0x9d07118c       0x44
 .text._INT_SINGLE_MULTI_VECTOR_VREG
                0x9d07118c       0x44 build/pic32mx_eth_sk_int_dyn/production/_ext/1042686532/sys_int_pic32.o

.text._INT_INT_ENABLE_CONTROL_0_VREG
                0x9d0711d0       0x44
 .text._INT_INT_ENABLE_CONTROL_0_VREG
                0x9d0711d0       0x44 build/pic32mx_eth_sk_int_dyn/production/_ext/1042686532/sys_int_pic32.o

.text.TCPIP_SNMPv3_ProcessBuffDataGet
                0x9d071214       0x44
 .text.TCPIP_SNMPv3_ProcessBuffDataGet
                0x9d071214       0x44 build/pic32mx_eth_sk_int_dyn/production/_ext/1164207549/snmpv3.o
                0x9d071214                TCPIP_SNMPv3_ProcessBuffDataGet

.text.TCPIP_HEAP_FreeSize
                0x9d071258       0x44
 .text.TCPIP_HEAP_FreeSize
                0x9d071258       0x44 build/pic32mx_eth_sk_int_dyn/production/_ext/1164207549/tcpip_heap_alloc.o
                0x9d071258                TCPIP_HEAP_FreeSize

.text.TCPIP_HEAP_LastError
                0x9d07129c       0x44
 .text.TCPIP_HEAP_LastError
                0x9d07129c       0x44 build/pic32mx_eth_sk_int_dyn/production/_ext/1164207549/tcpip_heap_alloc.o
                0x9d07129c                TCPIP_HEAP_LastError

.text.TCPIP_Helper_SingleListInitialize
                0x9d0712e0       0x44
 .text.TCPIP_Helper_SingleListInitialize
                0x9d0712e0       0x44 build/pic32mx_eth_sk_int_dyn/production/_ext/1164207549/tcpip_helpers.o
                0x9d0712e0                TCPIP_Helper_SingleListInitialize

.text.TCPIP_MAC_Close
                0x9d071324       0x44
 .text.TCPIP_MAC_Close
                0x9d071324       0x44 build/pic32mx_eth_sk_int_dyn/production/_ext/1164207549/tcpip_mac_object.o
                0x9d071324                TCPIP_MAC_Close

.text.TCPIP_MAC_LinkCheck
                0x9d071368       0x44
 .text.TCPIP_MAC_LinkCheck
                0x9d071368       0x44 build/pic32mx_eth_sk_int_dyn/production/_ext/1164207549/tcpip_mac_object.o
                0x9d071368                TCPIP_MAC_LinkCheck

.text.TCPIP_MAC_Process
                0x9d0713ac       0x44
 .text.TCPIP_MAC_Process
                0x9d0713ac       0x44 build/pic32mx_eth_sk_int_dyn/production/_ext/1164207549/tcpip_mac_object.o
                0x9d0713ac                TCPIP_MAC_Process

.text.TCPIP_STACK_NetHandleGet
                0x9d0713f0       0x44
 .text.TCPIP_STACK_NetHandleGet
                0x9d0713f0       0x44 build/pic32mx_eth_sk_int_dyn/production/_ext/1164207549/tcpip_manager.o
                0x9d0713f0                TCPIP_STACK_NetHandleGet

.text.TCPIP_STACK_NetIxGet
                0x9d071434       0x44
 .text.TCPIP_STACK_NetIxGet
                0x9d071434       0x44 build/pic32mx_eth_sk_int_dyn/production/_ext/1164207549/tcpip_manager.o
                0x9d071434                TCPIP_STACK_NetIxGet

.text.TCPIP_STACK_GatewayAddressSet
                0x9d071478       0x44
 .text.TCPIP_STACK_GatewayAddressSet
                0x9d071478       0x44 build/pic32mx_eth_sk_int_dyn/production/_ext/1164207549/tcpip_manager.o
                0x9d071478                TCPIP_STACK_GatewayAddressSet

.text.TCPIP_STACK_PrimaryDNSAddressSet
                0x9d0714bc       0x44
 .text.TCPIP_STACK_PrimaryDNSAddressSet
                0x9d0714bc       0x44 build/pic32mx_eth_sk_int_dyn/production/_ext/1164207549/tcpip_manager.o
                0x9d0714bc                TCPIP_STACK_PrimaryDNSAddressSet

.text.TCPIP_STACK_SecondaryDNSAddressSet
                0x9d071500       0x44
 .text.TCPIP_STACK_SecondaryDNSAddressSet
                0x9d071500       0x44 build/pic32mx_eth_sk_int_dyn/production/_ext/1164207549/tcpip_manager.o
                0x9d071500                TCPIP_STACK_SecondaryDNSAddressSet

.text.TCPIP_STACK_NetMACIdGet
                0x9d071544       0x44
 .text.TCPIP_STACK_NetMACIdGet
                0x9d071544       0x44 build/pic32mx_eth_sk_int_dyn/production/_ext/1164207549/tcpip_manager.o
                0x9d071544                TCPIP_STACK_NetMACIdGet

.text.TCPIP_STACK_NetToMAC
                0x9d071588       0x44
 .text.TCPIP_STACK_NetToMAC
                0x9d071588       0x44 build/pic32mx_eth_sk_int_dyn/production/_ext/1164207549/tcpip_manager.o
                0x9d071588                TCPIP_STACK_NetToMAC

.text._sys_CONSOLE_PUTC
                0x9d0715cc       0x44
 .text._sys_CONSOLE_PUTC
                0x9d0715cc       0x44 build/pic32mx_eth_sk_int_dyn/production/_ext/1418760511/system_command.o

.text.INTRestoreInterrupts
                0x9d071610       0x40
 .text.INTRestoreInterrupts
                0x9d071610       0x40 build/pic32mx_eth_sk_int_dyn/production/_ext/377798159/config_performance.o
                0x9d071610                INTRestoreInterrupts

.text.DRV_ETHMAC_PIC32MACClose
                0x9d071650       0x40
 .text.DRV_ETHMAC_PIC32MACClose
                0x9d071650       0x40 build/pic32mx_eth_sk_int_dyn/production/_ext/1697634946/drv_ethmac.o
                0x9d071650                DRV_ETHMAC_PIC32MACClose

.text._ETH_PACKET_BUFFER_COUNT_MASK
                0x9d071690       0x40
 .text._ETH_PACKET_BUFFER_COUNT_MASK
                0x9d071690       0x40 build/pic32mx_eth_sk_int_dyn/production/_ext/1697634946/drv_ethmac_lib.o

.text._ETH_BACK2BACK_IPGAP_MASK
                0x9d0716d0       0x40
 .text._ETH_BACK2BACK_IPGAP_MASK
                0x9d0716d0       0x40 build/pic32mx_eth_sk_int_dyn/production/_ext/1697634946/drv_ethmac_lib.o

.text._ETH_NON_BACK2BACK_IPGAP1_MASK
                0x9d071710       0x40
 .text._ETH_NON_BACK2BACK_IPGAP1_MASK
                0x9d071710       0x40 build/pic32mx_eth_sk_int_dyn/production/_ext/1697634946/drv_ethmac_lib.o

.text._ETH_NON_BACK2BACK_IPGAP2_MASK
                0x9d071750       0x40
 .text._ETH_NON_BACK2BACK_IPGAP2_MASK
                0x9d071750       0x40 build/pic32mx_eth_sk_int_dyn/production/_ext/1697634946/drv_ethmac_lib.o

.text._ETH_COL_WINDOW_MASK
                0x9d071790       0x40
 .text._ETH_COL_WINDOW_MASK
                0x9d071790       0x40 build/pic32mx_eth_sk_int_dyn/production/_ext/1697634946/drv_ethmac_lib.o

.text._ETH_RETX_MAX_MASK
                0x9d0717d0       0x40
 .text._ETH_RETX_MAX_MASK
                0x9d0717d0       0x40 build/pic32mx_eth_sk_int_dyn/production/_ext/1697634946/drv_ethmac_lib.o

.text._ETH_MAX_FRAME_LENGTH_MASK
                0x9d071810       0x40
 .text._ETH_MAX_FRAME_LENGTH_MASK
                0x9d071810       0x40 build/pic32mx_eth_sk_int_dyn/production/_ext/1697634946/drv_ethmac_lib.o

.text._ETH_ETHERNET_ON_POS
                0x9d071850       0x40
 .text._ETH_ETHERNET_ON_POS
                0x9d071850       0x40 build/pic32mx_eth_sk_int_dyn/production/_ext/1697634946/drv_ethmac_lib.o

.text._ETH_TX_REQUEST_TO_SEND_POS
                0x9d071890       0x40
 .text._ETH_TX_REQUEST_TO_SEND_POS
                0x9d071890       0x40 build/pic32mx_eth_sk_int_dyn/production/_ext/1697634946/drv_ethmac_lib.o

.text._ETH_RX_ENABLE_POS
                0x9d0718d0       0x40
 .text._ETH_RX_ENABLE_POS
                0x9d0718d0       0x40 build/pic32mx_eth_sk_int_dyn/production/_ext/1697634946/drv_ethmac_lib.o

.text._ETH_BUFCNT_DECREMENT_POS
                0x9d071910       0x40
 .text._ETH_BUFCNT_DECREMENT_POS
                0x9d071910       0x40 build/pic32mx_eth_sk_int_dyn/production/_ext/1697634946/drv_ethmac_lib.o

.text._ETH_PACKET_BUFFER_COUNT_POS
                0x9d071950       0x40
 .text._ETH_PACKET_BUFFER_COUNT_POS
                0x9d071950       0x40 build/pic32mx_eth_sk_int_dyn/production/_ext/1697634946/drv_ethmac_lib.o

.text._ETH_ETHERNET_MODULE_BUSY_POS
                0x9d071990       0x40
 .text._ETH_ETHERNET_MODULE_BUSY_POS
                0x9d071990       0x40 build/pic32mx_eth_sk_int_dyn/production/_ext/1697634946/drv_ethmac_lib.o

.text._ETH_TX_BUSY_POS
                0x9d0719d0       0x40
 .text._ETH_TX_BUSY_POS
                0x9d0719d0       0x40 build/pic32mx_eth_sk_int_dyn/production/_ext/1697634946/drv_ethmac_lib.o

.text._ETH_RX_BUSY_POS
                0x9d071a10       0x40
 .text._ETH_RX_BUSY_POS
                0x9d071a10       0x40 build/pic32mx_eth_sk_int_dyn/production/_ext/1697634946/drv_ethmac_lib.o

.text._ETH_MII_RESET_POS
                0x9d071a50       0x40
 .text._ETH_MII_RESET_POS
                0x9d071a50       0x40 build/pic32mx_eth_sk_int_dyn/production/_ext/1697634946/drv_ethmac_lib.o

.text._ETH_BACK2BACK_IPGAP_POS
                0x9d071a90       0x40
 .text._ETH_BACK2BACK_IPGAP_POS
                0x9d071a90       0x40 build/pic32mx_eth_sk_int_dyn/production/_ext/1697634946/drv_ethmac_lib.o

.text._ETH_NON_BACK2BACK_IPGAP1_POS
                0x9d071ad0       0x40
 .text._ETH_NON_BACK2BACK_IPGAP1_POS
                0x9d071ad0       0x40 build/pic32mx_eth_sk_int_dyn/production/_ext/1697634946/drv_ethmac_lib.o

.text._ETH_NON_BACK2BACK_IPGAP2_POS
                0x9d071b10       0x40
 .text._ETH_NON_BACK2BACK_IPGAP2_POS
                0x9d071b10       0x40 build/pic32mx_eth_sk_int_dyn/production/_ext/1697634946/drv_ethmac_lib.o

.text._ETH_COL_WINDOW_POS
                0x9d071b50       0x40
 .text._ETH_COL_WINDOW_POS
                0x9d071b50       0x40 build/pic32mx_eth_sk_int_dyn/production/_ext/1697634946/drv_ethmac_lib.o

.text._ETH_RETX_MAX_POS
                0x9d071b90       0x40
 .text._ETH_RETX_MAX_POS
                0x9d071b90       0x40 build/pic32mx_eth_sk_int_dyn/production/_ext/1697634946/drv_ethmac_lib.o

.text._ETH_MAX_FRAME_LENGTH_POS
                0x9d071bd0       0x40
 .text._ETH_MAX_FRAME_LENGTH_POS
                0x9d071bd0       0x40 build/pic32mx_eth_sk_int_dyn/production/_ext/1697634946/drv_ethmac_lib.o

.text._ETH_RESET_RMII_POS
                0x9d071c10       0x40
 .text._ETH_RESET_RMII_POS
                0x9d071c10       0x40 build/pic32mx_eth_sk_int_dyn/production/_ext/1697634946/drv_ethmac_lib.o

.text._ETH_SPEED_RMII_POS
                0x9d071c50       0x40
 .text._ETH_SPEED_RMII_POS
                0x9d071c50       0x40 build/pic32mx_eth_sk_int_dyn/production/_ext/1697634946/drv_ethmac_lib.o

.text._ETH_MII_CLOCK_SEL_MASK
                0x9d071c90       0x40
 .text._ETH_MII_CLOCK_SEL_MASK
                0x9d071c90       0x40 build/pic32mx_eth_sk_int_dyn/production/_ext/521481140/drv_ethphy.o

.text._ETH_MIIM_PHY_ADDRESS_MASK
                0x9d071cd0       0x40
 .text._ETH_MIIM_PHY_ADDRESS_MASK
                0x9d071cd0       0x40 build/pic32mx_eth_sk_int_dyn/production/_ext/521481140/drv_ethphy.o

.text._ETH_MIIM_REGISTER_ADDRESS_MASK
                0x9d071d10       0x40
 .text._ETH_MIIM_REGISTER_ADDRESS_MASK
                0x9d071d10       0x40 build/pic32mx_eth_sk_int_dyn/production/_ext/521481140/drv_ethphy.o

.text._ETH_MIIM_WRITE_DATA_MASK
                0x9d071d50       0x40
 .text._ETH_MIIM_WRITE_DATA_MASK
                0x9d071d50       0x40 build/pic32mx_eth_sk_int_dyn/production/_ext/521481140/drv_ethphy.o

.text._ETH_MIIM_READ_DATA_MASK
                0x9d071d90       0x40
 .text._ETH_MIIM_READ_DATA_MASK
                0x9d071d90       0x40 build/pic32mx_eth_sk_int_dyn/production/_ext/521481140/drv_ethphy.o

.text._ETH_RESET_MIIM_POS
                0x9d071dd0       0x40
 .text._ETH_RESET_MIIM_POS
                0x9d071dd0       0x40 build/pic32mx_eth_sk_int_dyn/production/_ext/521481140/drv_ethphy.o

.text._ETH_MII_CLOCK_SEL_POS
                0x9d071e10       0x40
 .text._ETH_MII_CLOCK_SEL_POS
                0x9d071e10       0x40 build/pic32mx_eth_sk_int_dyn/production/_ext/521481140/drv_ethphy.o

.text._ETH_MIIM_READ_COMMAND_POS
                0x9d071e50       0x40
 .text._ETH_MIIM_READ_COMMAND_POS
                0x9d071e50       0x40 build/pic32mx_eth_sk_int_dyn/production/_ext/521481140/drv_ethphy.o

.text._ETH_MIIM_PHY_ADDRESS_POS
                0x9d071e90       0x40
 .text._ETH_MIIM_PHY_ADDRESS_POS
                0x9d071e90       0x40 build/pic32mx_eth_sk_int_dyn/production/_ext/521481140/drv_ethphy.o

.text._ETH_MIIM_REGISTER_ADDRESS_POS
                0x9d071ed0       0x40
 .text._ETH_MIIM_REGISTER_ADDRESS_POS
                0x9d071ed0       0x40 build/pic32mx_eth_sk_int_dyn/production/_ext/521481140/drv_ethphy.o

.text._ETH_MIIM_WRITE_DATA_POS
                0x9d071f10       0x40
 .text._ETH_MIIM_WRITE_DATA_POS
                0x9d071f10       0x40 build/pic32mx_eth_sk_int_dyn/production/_ext/521481140/drv_ethphy.o

.text._ETH_MIIM_READ_DATA_POS
                0x9d071f50       0x40
 .text._ETH_MIIM_READ_DATA_POS
                0x9d071f50       0x40 build/pic32mx_eth_sk_int_dyn/production/_ext/521481140/drv_ethphy.o

.text._ETH_MIIM_BUSY_POS
                0x9d071f90       0x40
 .text._ETH_MIIM_BUSY_POS
                0x9d071f90       0x40 build/pic32mx_eth_sk_int_dyn/production/_ext/521481140/drv_ethphy.o

.text._NVM_WRITE_OPERATION_CONTROL_MASK
                0x9d071fd0       0x40
 .text._NVM_WRITE_OPERATION_CONTROL_MASK
                0x9d071fd0       0x40 build/pic32mx_eth_sk_int_dyn/production/_ext/184581597/drv_nvm.o

.text._NVM_MEMORY_MODIFY_CONTROL_POS
                0x9d072010       0x40
 .text._NVM_MEMORY_MODIFY_CONTROL_POS
                0x9d072010       0x40 build/pic32mx_eth_sk_int_dyn/production/_ext/184581597/drv_nvm.o

.text._ETH_RX_DATA_BUFFER_SIZE_MASK
                0x9d072050       0x40
 .text._ETH_RX_DATA_BUFFER_SIZE_MASK
                0x9d072050       0x40 build/pic32mx_eth_sk_int_dyn/production/_ext/1104573755/plib_eth_legacy.o

.text._ETH_HASH_FILTER_ENABLE_MASK
                0x9d072090       0x40
 .text._ETH_HASH_FILTER_ENABLE_MASK
                0x9d072090       0x40 build/pic32mx_eth_sk_int_dyn/production/_ext/1104573755/plib_eth_legacy.o

.text._ETH_MAX_FRAME_LENGTH_MASK
                0x9d0720d0       0x40
 .text._ETH_MAX_FRAME_LENGTH_MASK
                0x9d0720d0       0x40 build/pic32mx_eth_sk_int_dyn/production/_ext/1104573755/plib_eth_legacy.o

.text._ETH_STATION_ADDRESS_OCTET_6_MASK
                0x9d072110       0x40
 .text._ETH_STATION_ADDRESS_OCTET_6_MASK
                0x9d072110       0x40 build/pic32mx_eth_sk_int_dyn/production/_ext/1104573755/plib_eth_legacy.o

.text._ETH_STATION_ADDRESS_OCTET_5_MASK
                0x9d072150       0x40
 .text._ETH_STATION_ADDRESS_OCTET_5_MASK
                0x9d072150       0x40 build/pic32mx_eth_sk_int_dyn/production/_ext/1104573755/plib_eth_legacy.o

.text._ETH_STATION_ADDRESS_OCTET_4_MASK
                0x9d072190       0x40
 .text._ETH_STATION_ADDRESS_OCTET_4_MASK
                0x9d072190       0x40 build/pic32mx_eth_sk_int_dyn/production/_ext/1104573755/plib_eth_legacy.o

.text._ETH_STATION_ADDRESS_OCTET_3_MASK
                0x9d0721d0       0x40
 .text._ETH_STATION_ADDRESS_OCTET_3_MASK
                0x9d0721d0       0x40 build/pic32mx_eth_sk_int_dyn/production/_ext/1104573755/plib_eth_legacy.o

.text._ETH_STATION_ADDRESS_OCTET_2_MASK
                0x9d072210       0x40
 .text._ETH_STATION_ADDRESS_OCTET_2_MASK
                0x9d072210       0x40 build/pic32mx_eth_sk_int_dyn/production/_ext/1104573755/plib_eth_legacy.o

.text._ETH_STATION_ADDRESS_OCTET_1_MASK
                0x9d072250       0x40
 .text._ETH_STATION_ADDRESS_OCTET_1_MASK
                0x9d072250       0x40 build/pic32mx_eth_sk_int_dyn/production/_ext/1104573755/plib_eth_legacy.o

.text._ETH_RX_ENABLE_POS
                0x9d072290       0x40
 .text._ETH_RX_ENABLE_POS
                0x9d072290       0x40 build/pic32mx_eth_sk_int_dyn/production/_ext/1104573755/plib_eth_legacy.o

.text._ETH_RX_DATA_BUFFER_SIZE_POS
                0x9d0722d0       0x40
 .text._ETH_RX_DATA_BUFFER_SIZE_POS
                0x9d0722d0       0x40 build/pic32mx_eth_sk_int_dyn/production/_ext/1104573755/plib_eth_legacy.o

.text._ETH_HASH_FILTER_ENABLE_POS
                0x9d072310       0x40
 .text._ETH_HASH_FILTER_ENABLE_POS
                0x9d072310       0x40 build/pic32mx_eth_sk_int_dyn/production/_ext/1104573755/plib_eth_legacy.o

.text._ETH_MAX_FRAME_LENGTH_POS
                0x9d072350       0x40
 .text._ETH_MAX_FRAME_LENGTH_POS
                0x9d072350       0x40 build/pic32mx_eth_sk_int_dyn/production/_ext/1104573755/plib_eth_legacy.o

.text._ETH_STATION_ADDRESS_OCTET_6_POS
                0x9d072390       0x40
 .text._ETH_STATION_ADDRESS_OCTET_6_POS
                0x9d072390       0x40 build/pic32mx_eth_sk_int_dyn/production/_ext/1104573755/plib_eth_legacy.o

.text._ETH_STATION_ADDRESS_OCTET_5_POS
                0x9d0723d0       0x40
 .text._ETH_STATION_ADDRESS_OCTET_5_POS
                0x9d0723d0       0x40 build/pic32mx_eth_sk_int_dyn/production/_ext/1104573755/plib_eth_legacy.o

.text._ETH_STATION_ADDRESS_OCTET_4_POS
                0x9d072410       0x40
 .text._ETH_STATION_ADDRESS_OCTET_4_POS
                0x9d072410       0x40 build/pic32mx_eth_sk_int_dyn/production/_ext/1104573755/plib_eth_legacy.o

.text._ETH_STATION_ADDRESS_OCTET_3_POS
                0x9d072450       0x40
 .text._ETH_STATION_ADDRESS_OCTET_3_POS
                0x9d072450       0x40 build/pic32mx_eth_sk_int_dyn/production/_ext/1104573755/plib_eth_legacy.o

.text._ETH_STATION_ADDRESS_OCTET_2_POS
                0x9d072490       0x40
 .text._ETH_STATION_ADDRESS_OCTET_2_POS
                0x9d072490       0x40 build/pic32mx_eth_sk_int_dyn/production/_ext/1104573755/plib_eth_legacy.o

.text._ETH_STATION_ADDRESS_OCTET_1_POS
                0x9d0724d0       0x40
 .text._ETH_STATION_ADDRESS_OCTET_1_POS
                0x9d0724d0       0x40 build/pic32mx_eth_sk_int_dyn/production/_ext/1104573755/plib_eth_legacy.o

.text.PLIB_ETH_RxFiltersSet
                0x9d072510       0x40
 .text.PLIB_ETH_RxFiltersSet
                0x9d072510       0x40 build/pic32mx_eth_sk_int_dyn/production/_ext/1104573755/plib_eth_legacy.o
                0x9d072510                PLIB_ETH_RxFiltersSet

.text.PLIB_ETH_RxFiltersClr
                0x9d072550       0x40
 .text.PLIB_ETH_RxFiltersClr
                0x9d072550       0x40 build/pic32mx_eth_sk_int_dyn/production/_ext/1104573755/plib_eth_legacy.o
                0x9d072550                PLIB_ETH_RxFiltersClr

.text._OSC_OSC_SELECT_MASK
                0x9d072590       0x40
 .text._OSC_OSC_SELECT_MASK
                0x9d072590       0x40 build/pic32mx_eth_sk_int_dyn/production/_ext/52938249/sys_clk_pic32.o

.text._OSC_OSC_FRC_DIVISOR_MASK
                0x9d0725d0       0x40
 .text._OSC_OSC_FRC_DIVISOR_MASK
                0x9d0725d0       0x40 build/pic32mx_eth_sk_int_dyn/production/_ext/52938249/sys_clk_pic32.o

.text._OSC_OSC_SWITCH_INIT_POS
                0x9d072610       0x40
 .text._OSC_OSC_SWITCH_INIT_POS
                0x9d072610       0x40 build/pic32mx_eth_sk_int_dyn/production/_ext/52938249/sys_clk_pic32.o

.text._OSC_SECONDARY_ENABLE_POS
                0x9d072650       0x40
 .text._OSC_SECONDARY_ENABLE_POS
                0x9d072650       0x40 build/pic32mx_eth_sk_int_dyn/production/_ext/52938249/sys_clk_pic32.o

.text._OSC_OSC_USB_CLOCK_SOURCE_POS
                0x9d072690       0x40
 .text._OSC_OSC_USB_CLOCK_SOURCE_POS
                0x9d072690       0x40 build/pic32mx_eth_sk_int_dyn/production/_ext/52938249/sys_clk_pic32.o

.text._OSC_ON_WAIT_ACTION_POS
                0x9d0726d0       0x40
 .text._OSC_ON_WAIT_ACTION_POS
                0x9d0726d0       0x40 build/pic32mx_eth_sk_int_dyn/production/_ext/52938249/sys_clk_pic32.o

.text._OSC_OSC_SELECT_POS
                0x9d072710       0x40
 .text._OSC_OSC_SELECT_POS
                0x9d072710       0x40 build/pic32mx_eth_sk_int_dyn/production/_ext/52938249/sys_clk_pic32.o

.text._OSC_OSC_FRC_DIVISOR_POS
                0x9d072750       0x40
 .text._OSC_OSC_FRC_DIVISOR_POS
                0x9d072750       0x40 build/pic32mx_eth_sk_int_dyn/production/_ext/52938249/sys_clk_pic32.o

.text.SYS_CLK_ReferenceClosestDivisorGet
                0x9d072790       0x40
 .text.SYS_CLK_ReferenceClosestDivisorGet
                0x9d072790       0x40 build/pic32mx_eth_sk_int_dyn/production/_ext/52938249/sys_clk_pic32.o
                0x9d072790                SYS_CLK_ReferenceClosestDivisorGet

.text.MPFS_GetSize
                0x9d0727d0       0x40
 .text.MPFS_GetSize
                0x9d0727d0       0x40 build/pic32mx_eth_sk_int_dyn/production/_ext/614935175/mpfs.o
                0x9d0727d0                MPFS_GetSize

.text.MPFS_GetPosition
                0x9d072810       0x40
 .text.MPFS_GetPosition
                0x9d072810       0x40 build/pic32mx_eth_sk_int_dyn/production/_ext/614935175/mpfs.o
                0x9d072810                MPFS_GetPosition

.text._INT_SINGLE_MULTI_VECTOR_POS
                0x9d072850       0x40
 .text._INT_SINGLE_MULTI_VECTOR_POS
                0x9d072850       0x40 build/pic32mx_eth_sk_int_dyn/production/_ext/1042686532/sys_int_pic32.o

.text.TCPIP_HTTP_CurrentConnectionPostSmSet
                0x9d072890       0x40
 .text.TCPIP_HTTP_CurrentConnectionPostSmSet
                0x9d072890       0x40 build/pic32mx_eth_sk_int_dyn/production/_ext/1164207549/http.o
                0x9d072890                TCPIP_HTTP_CurrentConnectionPostSmSet

.text.TCPIP_HTTP_CurrentConnectionHasArgsSet
                0x9d0728d0       0x40
 .text.TCPIP_HTTP_CurrentConnectionHasArgsSet
                0x9d0728d0       0x40 build/pic32mx_eth_sk_int_dyn/production/_ext/1164207549/http.o
                0x9d0728d0                TCPIP_HTTP_CurrentConnectionHasArgsSet

.text.TCPIP_SNTP_Deinitialize
                0x9d072910       0x40
 .text.TCPIP_SNTP_Deinitialize
                0x9d072910       0x40 build/pic32mx_eth_sk_int_dyn/production/_ext/1164207549/sntp.o
                0x9d072910                TCPIP_SNTP_Deinitialize

.text.SYS_CLK_ClockGet
                0x9d072950       0x3c
 .text.SYS_CLK_ClockGet
                0x9d072950       0x3c build/pic32mx_eth_sk_int_dyn/production/_ext/1951764757/system_init_private.o
                0x9d072950                SYS_CLK_ClockGet

.text.ETH_TxPacketDescAddrGet_Default
                0x9d07298c       0x3c
 .text.ETH_TxPacketDescAddrGet_Default
                0x9d07298c       0x3c build/pic32mx_eth_sk_int_dyn/production/_ext/1697634946/drv_ethmac_lib.o

.text.ETH_RxPacketDescAddrGet_Default
                0x9d0729c8       0x3c
 .text.ETH_RxPacketDescAddrGet_Default
                0x9d0729c8       0x3c build/pic32mx_eth_sk_int_dyn/production/_ext/1697634946/drv_ethmac_lib.o

.text.OSC_ReferenceOscStopInSleepEnable_Unsupported
                0x9d072a04       0x3c
 .text.OSC_ReferenceOscStopInSleepEnable_Unsupported
                0x9d072a04       0x3c build/pic32mx_eth_sk_int_dyn/production/_ext/52938249/sys_clk_pic32.o

.text.OSC_ReferenceOscStopInSleepDisable_Unsupported
                0x9d072a40       0x3c
 .text.OSC_ReferenceOscStopInSleepDisable_Unsupported
                0x9d072a40       0x3c build/pic32mx_eth_sk_int_dyn/production/_ext/52938249/sys_clk_pic32.o

.text.OSC_ReferenceOutputEnable_Unsupported
                0x9d072a7c       0x3c
 .text.OSC_ReferenceOutputEnable_Unsupported
                0x9d072a7c       0x3c build/pic32mx_eth_sk_int_dyn/production/_ext/52938249/sys_clk_pic32.o

.text.OSC_ReferenceOscStopInIdleEnable_Unsupported
                0x9d072ab8       0x3c
 .text.OSC_ReferenceOscStopInIdleEnable_Unsupported
                0x9d072ab8       0x3c build/pic32mx_eth_sk_int_dyn/production/_ext/52938249/sys_clk_pic32.o

.text.OSC_ReferenceOscStopInIdleDisable_Unsupported
                0x9d072af4       0x3c
 .text.OSC_ReferenceOscStopInIdleDisable_Unsupported
                0x9d072af4       0x3c build/pic32mx_eth_sk_int_dyn/production/_ext/52938249/sys_clk_pic32.o

.text.OSC_ReferenceOscEnable_Unsupported
                0x9d072b30       0x3c
 .text.OSC_ReferenceOscEnable_Unsupported
                0x9d072b30       0x3c build/pic32mx_eth_sk_int_dyn/production/_ext/52938249/sys_clk_pic32.o

.text.OSC_ReferenceOscDisable_Unsupported
                0x9d072b6c       0x3c
 .text.OSC_ReferenceOscDisable_Unsupported
                0x9d072b6c       0x3c build/pic32mx_eth_sk_int_dyn/production/_ext/52938249/sys_clk_pic32.o

.text.TCPIP_HTTP_CurrentConnectionCallbackPosSet
                0x9d072ba8       0x3c
 .text.TCPIP_HTTP_CurrentConnectionCallbackPosSet
                0x9d072ba8       0x3c build/pic32mx_eth_sk_int_dyn/production/_ext/1164207549/http.o
                0x9d072ba8                TCPIP_HTTP_CurrentConnectionCallbackPosSet

.text.TCPIP_HTTP_CurrentConnectionStatusSet
                0x9d072be4       0x3c
 .text.TCPIP_HTTP_CurrentConnectionStatusSet
                0x9d072be4       0x3c build/pic32mx_eth_sk_int_dyn/production/_ext/1164207549/http.o
                0x9d072be4                TCPIP_HTTP_CurrentConnectionStatusSet

.text._ICMPAckPacket
                0x9d072c20       0x3c
 .text._ICMPAckPacket
                0x9d072c20       0x3c build/pic32mx_eth_sk_int_dyn/production/_ext/1164207549/icmp.o

.text.TCPIP_SNMPV3_PacketProcStubPtrsGet
                0x9d072c5c       0x3c
 .text.TCPIP_SNMPV3_PacketProcStubPtrsGet
                0x9d072c5c       0x3c build/pic32mx_eth_sk_int_dyn/production/_ext/1164207549/snmp.o
                0x9d072c5c                TCPIP_SNMPV3_PacketProcStubPtrsGet

.text.TCPIP_SNMP_WriteCommunityGet
                0x9d072c98       0x3c
 .text.TCPIP_SNMP_WriteCommunityGet
                0x9d072c98       0x3c build/pic32mx_eth_sk_int_dyn/production/_ext/1164207549/snmp.o
                0x9d072c98                TCPIP_SNMP_WriteCommunityGet

.text.TCPIP_SNMP_ReadCommunityGet
                0x9d072cd4       0x3c
 .text.TCPIP_SNMP_ReadCommunityGet
                0x9d072cd4       0x3c build/pic32mx_eth_sk_int_dyn/production/_ext/1164207549/snmp.o
                0x9d072cd4                TCPIP_SNMP_ReadCommunityGet

.rodata         0x9d072d10       0x3c
 .rodata        0x9d072d10       0x3c build/pic32mx_eth_sk_int_dyn/production/_ext/1164207549/tcpip_heap_alloc.o

.text._sys_CONSOLE_MESSAGE
                0x9d072d4c       0x3c
 .text._sys_CONSOLE_MESSAGE
                0x9d072d4c       0x3c build/pic32mx_eth_sk_int_dyn/production/_ext/1418760511/system_command.o

.text.PORTSetPinsDigitalIn
                0x9d072d88       0x3c
 .text.PORTSetPinsDigitalIn
                0x9d072d88       0x3c c:/program files/microchip/xc32/v1.30-tc9/bin/../lib/gcc/pic32mx/4.5.2/../../../../pic32mx/lib\libmchp_peripheral_32MX795F512L.a(port_set_pins_digital_in_lib.o)
                0x9d072d88                PORTSetPinsDigitalIn

.text.PORTSetPinsDigitalOut
                0x9d072dc4       0x3c
 .text.PORTSetPinsDigitalOut
                0x9d072dc4       0x3c c:/program files/microchip/xc32/v1.30-tc9/bin/../lib/gcc/pic32mx/4.5.2/../../../../pic32mx/lib\libmchp_peripheral_32MX795F512L.a(port_set_pins_digital_out_lib.o)
                0x9d072dc4                PORTSetPinsDigitalOut

.text           0x9d072e00       0x38
 .text          0x9d072e00       0x38 c:/program files/microchip/xc32/v1.30-tc9/bin/../lib/gcc/pic32mx/4.5.2/../../../../pic32mx/lib/./proc/32MX795F512L/crt0_mips32r2.o
                0x9d072e2c                __crt0_exit

.text.CheKseg0CacheOn
                0x9d072e38       0x38
 .text.CheKseg0CacheOn
                0x9d072e38       0x38 build/pic32mx_eth_sk_int_dyn/production/_ext/377798159/config_performance.o
                0x9d072e38                CheKseg0CacheOn

.text.DRV_NVM_MEDIA_Close
                0x9d072e70       0x38
 .text.DRV_NVM_MEDIA_Close
                0x9d072e70       0x38 build/pic32mx_eth_sk_int_dyn/production/_ext/184581597/drv_nvm_media.o
                0x9d072e70                DRV_NVM_MEDIA_Close

.text.SYS_CLK_Initialize
                0x9d072ea8       0x38
 .text.SYS_CLK_Initialize
                0x9d072ea8       0x38 build/pic32mx_eth_sk_int_dyn/production/_ext/52938249/sys_clk.o
                0x9d072ea8                SYS_CLK_Initialize

.text.TCPIP_IPERF_Pending
                0x9d072ee0       0x38
 .text.TCPIP_IPERF_Pending
                0x9d072ee0       0x38 build/pic32mx_eth_sk_int_dyn/production/_ext/1164207549/iperf.o
                0x9d072ee0                TCPIP_IPERF_Pending

.text._OAHashProbeStep
                0x9d072f18       0x38
 .text._OAHashProbeStep
                0x9d072f18       0x38 build/pic32mx_eth_sk_int_dyn/production/_ext/1164207549/oahash.o

.text.TCPIP_SMTP_Flush
                0x9d072f50       0x38
 .text.TCPIP_SMTP_Flush
                0x9d072f50       0x38 build/pic32mx_eth_sk_int_dyn/production/_ext/1164207549/smtp.o
                0x9d072f50                TCPIP_SMTP_Flush

.text.TCPIP_HEAP_Size
                0x9d072f88       0x38
 .text.TCPIP_HEAP_Size
                0x9d072f88       0x38 build/pic32mx_eth_sk_int_dyn/production/_ext/1164207549/tcpip_heap_alloc.o
                0x9d072f88                TCPIP_HEAP_Size

.text.INT_Enable_PIC32
                0x9d072fc0       0x34
 .text.INT_Enable_PIC32
                0x9d072fc0       0x34 build/pic32mx_eth_sk_int_dyn/production/_ext/1951764757/system_init.o

.text.INTDisableInterrupts
                0x9d072ff4       0x34
 .text.INTDisableInterrupts
                0x9d072ff4       0x34 build/pic32mx_eth_sk_int_dyn/production/_ext/377798159/config_performance.o
                0x9d072ff4                INTDisableInterrupts

.text.INT_Enable_PIC32
                0x9d073028       0x34
 .text.INT_Enable_PIC32
                0x9d073028       0x34 build/pic32mx_eth_sk_int_dyn/production/_ext/184581597/drv_nvm.o

.text.DRV_NVM_MEDIA_AddressGet
                0x9d07305c       0x34
 .text.DRV_NVM_MEDIA_AddressGet
                0x9d07305c       0x34 build/pic32mx_eth_sk_int_dyn/production/_ext/184581597/drv_nvm_media.o
                0x9d07305c                DRV_NVM_MEDIA_AddressGet

.rodata         0x9d073090       0x34
 .rodata        0x9d073090       0x34 build/pic32mx_eth_sk_int_dyn/production/_ext/614935175/mpfs.o
                0x9d073090                MPFSFunctions

.text.INT_Disable_PIC32
                0x9d0730c4       0x34
 .text.INT_Disable_PIC32
                0x9d0730c4       0x34 build/pic32mx_eth_sk_int_dyn/production/_ext/1042686532/sys_int_pic32.o

.text.INT_IsEnabled_PIC32
                0x9d0730f8       0x34
 .text.INT_IsEnabled_PIC32
                0x9d0730f8       0x34 build/pic32mx_eth_sk_int_dyn/production/_ext/1042686532/sys_int_pic32.o

.text.SYS_INT_Initialize
                0x9d07312c       0x34
 .text.SYS_INT_Initialize
                0x9d07312c       0x34 build/pic32mx_eth_sk_int_dyn/production/_ext/1042686532/sys_int_pic32.o
                0x9d07312c                SYS_INT_Initialize

.text.TCPIP_HTTP_CurrentConnectionFileGet
                0x9d073160       0x34
 .text.TCPIP_HTTP_CurrentConnectionFileGet
                0x9d073160       0x34 build/pic32mx_eth_sk_int_dyn/production/_ext/1164207549/http.o
                0x9d073160                TCPIP_HTTP_CurrentConnectionFileGet

.text.TCPIP_HTTP_CurrentConnectionPostSmGet
                0x9d073194       0x34
 .text.TCPIP_HTTP_CurrentConnectionPostSmGet
                0x9d073194       0x34 build/pic32mx_eth_sk_int_dyn/production/_ext/1164207549/http.o
                0x9d073194                TCPIP_HTTP_CurrentConnectionPostSmGet

.text.TCPIP_HTTP_CurrentConnectionDataBufferGet
                0x9d0731c8       0x34
 .text.TCPIP_HTTP_CurrentConnectionDataBufferGet
                0x9d0731c8       0x34 build/pic32mx_eth_sk_int_dyn/production/_ext/1164207549/http.o
                0x9d0731c8                TCPIP_HTTP_CurrentConnectionDataBufferGet

.text.TCPIP_HTTP_CurrentConnectionByteCountGet
                0x9d0731fc       0x34
 .text.TCPIP_HTTP_CurrentConnectionByteCountGet
                0x9d0731fc       0x34 build/pic32mx_eth_sk_int_dyn/production/_ext/1164207549/http.o
                0x9d0731fc                TCPIP_HTTP_CurrentConnectionByteCountGet

.text.TCPIP_HTTP_CurrentConnectionSocketGet
                0x9d073230       0x34
 .text.TCPIP_HTTP_CurrentConnectionSocketGet
                0x9d073230       0x34 build/pic32mx_eth_sk_int_dyn/production/_ext/1164207549/http.o
                0x9d073230                TCPIP_HTTP_CurrentConnectionSocketGet

.text._TCPIP_ProcessMACErrorEvents
                0x9d073264       0x34
 .text._TCPIP_ProcessMACErrorEvents
                0x9d073264       0x34 build/pic32mx_eth_sk_int_dyn/production/_ext/1164207549/tcpip_manager.o

.text._sys_CONSOLE_DATA_RDY
                0x9d073298       0x34
 .text._sys_CONSOLE_DATA_RDY
                0x9d073298       0x34 build/pic32mx_eth_sk_int_dyn/production/_ext/1418760511/system_command.o

.text._sys_CONSOLE_GETC
                0x9d0732cc       0x34
 .text._sys_CONSOLE_GETC
                0x9d0732cc       0x34 build/pic32mx_eth_sk_int_dyn/production/_ext/1418760511/system_command.o

.text.exit      0x9d073300       0x34
 .text.exit     0x9d073300       0x34 c:/program files/microchip/xc32/v1.30-tc9/bin/../lib/gcc/pic32mx/4.5.2/../../../../pic32mx/lib\libc.a(exit.o)
                0x9d073300                exit

.rodata         0x9d073334       0x30
 .rodata        0x9d073334       0x30 build/pic32mx_eth_sk_int_dyn/production/_ext/1697634946/drv_ethmac.o

.text.SYS_FS_Tasks
                0x9d073364       0x30
 .text.SYS_FS_Tasks
                0x9d073364       0x30 build/pic32mx_eth_sk_int_dyn/production/_ext/1750042194/sys_fs.o
                0x9d073364                SYS_FS_Tasks

.text.TCPIP_SMTP_PutIsDone
                0x9d073394       0x30
 .text.TCPIP_SMTP_PutIsDone
                0x9d073394       0x30 build/pic32mx_eth_sk_int_dyn/production/_ext/1164207549/smtp.o
                0x9d073394                TCPIP_SMTP_PutIsDone

.rodata         0x9d0733c4       0x30
 .rodata        0x9d0733c4       0x30 build/pic32mx_eth_sk_int_dyn/production/_ext/1164207549/snmpv3.o

.text.TCPIP_HEAP_TraceGetEntry
                0x9d0733f4       0x30
 .text.TCPIP_HEAP_TraceGetEntry
                0x9d0733f4       0x30 build/pic32mx_eth_sk_int_dyn/production/_ext/1164207549/tcpip_heap_alloc.o
                0x9d0733f4                TCPIP_HEAP_TraceGetEntry

.text.TCPIP_HEAP_TraceGetEntriesNo
                0x9d073424       0x30
 .text.TCPIP_HEAP_TraceGetEntriesNo
                0x9d073424       0x30 build/pic32mx_eth_sk_int_dyn/production/_ext/1164207549/tcpip_heap_alloc.o
                0x9d073424                TCPIP_HEAP_TraceGetEntriesNo

.text._TCPIP_STACK_TickHandler
                0x9d073454       0x30
 .text._TCPIP_STACK_TickHandler
                0x9d073454       0x30 build/pic32mx_eth_sk_int_dyn/production/_ext/1164207549/tcpip_manager.o

.text._TCPIPStackAddressServiceIsRunning
                0x9d073484       0x30
 .text._TCPIPStackAddressServiceIsRunning
                0x9d073484       0x30 build/pic32mx_eth_sk_int_dyn/production/_ext/1164207549/tcpip_manager.o
                0x9d073484                _TCPIPStackAddressServiceIsRunning

.text.TCPIP_STACK_ProcessPending
                0x9d0734b4       0x30
 .text.TCPIP_STACK_ProcessPending
                0x9d0734b4       0x30 build/pic32mx_eth_sk_int_dyn/production/_ext/1164207549/tcpip_manager.o

.text.SYS_USERIO_Tasks
                0x9d0734e4       0x30
 .text.SYS_USERIO_Tasks
                0x9d0734e4       0x30 build/pic32mx_eth_sk_int_dyn/production/_ext/1418760511/system_userio.o
                0x9d0734e4                SYS_USERIO_Tasks

.text.free      0x9d073514       0x30
 .text.free     0x9d073514       0x30 c:/program files/microchip/xc32/v1.30-tc9/bin/../lib/gcc/pic32mx/4.5.2/../../../../pic32mx/lib\libc.a(malloc.o)
                0x9d073514                free

.text.SYS_WDT_Clear
                0x9d073544       0x2c
 .text.SYS_WDT_Clear
                0x9d073544       0x2c build/pic32mx_eth_sk_int_dyn/production/_ext/1951764757/system_init_private.o
                0x9d073544                SYS_WDT_Clear

.text.DRV_ETHMAC_PIC32MACPowerMode
                0x9d073570       0x2c
 .text.DRV_ETHMAC_PIC32MACPowerMode
                0x9d073570       0x2c build/pic32mx_eth_sk_int_dyn/production/_ext/1697634946/drv_ethmac.o
                0x9d073570                DRV_ETHMAC_PIC32MACPowerMode

.text.DRV_EXTPHY_SMIClockGet
                0x9d07359c       0x2c
 .text.DRV_EXTPHY_SMIClockGet
                0x9d07359c       0x2c build/pic32mx_eth_sk_int_dyn/production/_ext/521481140/drv_extphy_dp83848.o
                0x9d07359c                DRV_EXTPHY_SMIClockGet

.text.DRV_NVM_MEDIA_MediaStatusGet
                0x9d0735c8       0x2c
 .text.DRV_NVM_MEDIA_MediaStatusGet
                0x9d0735c8       0x2c build/pic32mx_eth_sk_int_dyn/production/_ext/184581597/drv_nvm_media.o
                0x9d0735c8                DRV_NVM_MEDIA_MediaStatusGet

.text.HTTPPrint_ddns_service
                0x9d0735f4       0x2c
 .text.HTTPPrint_ddns_service
                0x9d0735f4       0x2c build/pic32mx_eth_sk_int_dyn/production/_ext/1360937237/custom_http_app.o
                0x9d0735f4                HTTPPrint_ddns_service

.text.TCPIP_SMTP_ClientInitialize
                0x9d073620       0x2c
 .text.TCPIP_SMTP_ClientInitialize
                0x9d073620       0x2c build/pic32mx_eth_sk_int_dyn/production/_ext/1164207549/smtp.o
                0x9d073620                TCPIP_SMTP_ClientInitialize

.text.TCPIP_SMTP_IsBusy
                0x9d07364c       0x2c
 .text.TCPIP_SMTP_IsBusy
                0x9d07364c       0x2c build/pic32mx_eth_sk_int_dyn/production/_ext/1164207549/smtp.o
                0x9d07364c                TCPIP_SMTP_IsBusy

.text.TCPIP_SNMP_FileDescrSet
                0x9d073678       0x2c
 .text.TCPIP_SNMP_FileDescrSet
                0x9d073678       0x2c build/pic32mx_eth_sk_int_dyn/production/_ext/1164207549/snmp.o
                0x9d073678                TCPIP_SNMP_FileDescrSet

.text.TCPIP_ANNOUNCE_TaskPending
                0x9d0736a4       0x2c
 .text.TCPIP_ANNOUNCE_TaskPending
                0x9d0736a4       0x2c build/pic32mx_eth_sk_int_dyn/production/_ext/1164207549/tcpip_announce.o
                0x9d0736a4                TCPIP_ANNOUNCE_TaskPending

.text.main      0x9d0736d0       0x2c
 .text.main     0x9d0736d0       0x2c build/pic32mx_eth_sk_int_dyn/production/_ext/1360937237/main.o
                0x9d0736d0                main

.text._fprintf_cdnopsuxX
                0x9d0736fc       0x2c
 .text._fprintf_cdnopsuxX
                0x9d0736fc       0x2c c:/program files/microchip/xc32/v1.30-tc9/bin/../lib/gcc/pic32mx/4.5.2/../../../../pic32mx/lib\libc.a(fprintf_cdnopsuxX.eo)
                0x9d0736fc                _fprintf_cdnopsuxX

.text._stub_sbd_memlayout
                0x9d073728       0x2c
 .text._stub_sbd_memlayout
                0x9d073728       0x2c c:/program files/microchip/xc32/v1.30-tc9/bin/../lib/gcc/pic32mx/4.5.2/../../../../pic32mx/lib\libpic32.a(sbrk.o)
                0x9d073728                _sbd_memlayout
                0x9d073728                _stub_sbd_memlayout

.text.DRV_EXTPHY_SMIAddressGet
                0x9d073754       0x28
 .text.DRV_EXTPHY_SMIAddressGet
                0x9d073754       0x28 build/pic32mx_eth_sk_int_dyn/production/_ext/521481140/drv_extphy_dp83848.o
                0x9d073754                DRV_EXTPHY_SMIAddressGet

.text.NVM_ExistsMemoryModificationControl_Default
                0x9d07377c       0x28
 .text.NVM_ExistsMemoryModificationControl_Default
                0x9d07377c       0x28 build/pic32mx_eth_sk_int_dyn/production/_ext/184581597/drv_nvm.o

.rodata         0x9d0737a4       0x28
 .rodata        0x9d0737a4       0x28 build/pic32mx_eth_sk_int_dyn/production/_ext/2138650627/usart.o

.text.OSC_ExistsOnWaitAction_Default
                0x9d0737cc       0x28
 .text.OSC_ExistsOnWaitAction_Default
                0x9d0737cc       0x28 build/pic32mx_eth_sk_int_dyn/production/_ext/52938249/sys_clk_pic32.o

.text.OSC_ExistsSecondaryEnable_Default
                0x9d0737f4       0x28
 .text.OSC_ExistsSecondaryEnable_Default
                0x9d0737f4       0x28 build/pic32mx_eth_sk_int_dyn/production/_ext/52938249/sys_clk_pic32.o

.text.OSC_ExistsReferenceOscEnable_Unsupported
                0x9d07381c       0x28
 .text.OSC_ExistsReferenceOscEnable_Unsupported
                0x9d07381c       0x28 build/pic32mx_eth_sk_int_dyn/production/_ext/52938249/sys_clk_pic32.o

.text.TCPIP_DHCPS_Disable
                0x9d073844       0x28
 .text.TCPIP_DHCPS_Disable
                0x9d073844       0x28 build/pic32mx_eth_sk_int_dyn/production/_ext/1164207549/dhcps.o
                0x9d073844                TCPIP_DHCPS_Disable

.text.TCPIP_DHCPS_Enable
                0x9d07386c       0x28
 .text.TCPIP_DHCPS_Enable
                0x9d07386c       0x28 build/pic32mx_eth_sk_int_dyn/production/_ext/1164207549/dhcps.o
                0x9d07386c                TCPIP_DHCPS_Enable

.text.TCPIP_DHCPS_IsEnabled
                0x9d073894       0x28
 .text.TCPIP_DHCPS_IsEnabled
                0x9d073894       0x28 build/pic32mx_eth_sk_int_dyn/production/_ext/1164207549/dhcps.o
                0x9d073894                TCPIP_DHCPS_IsEnabled

.text.TCPIP_STACK_NumberOfNetworksGet
                0x9d0738bc       0x28
 .text.TCPIP_STACK_NumberOfNetworksGet
                0x9d0738bc       0x28 build/pic32mx_eth_sk_int_dyn/production/_ext/1164207549/tcpip_manager.o
                0x9d0738bc                TCPIP_STACK_NumberOfNetworksGet

.text.TCPIP_STACK_StackToMacAction
                0x9d0738e4       0x28
 .text.TCPIP_STACK_StackToMacAction
                0x9d0738e4       0x28 build/pic32mx_eth_sk_int_dyn/production/_ext/1164207549/tcpip_manager.o

.text.TCPIP_ZCLL_Enable
                0x9d07390c       0x28
 .text.TCPIP_ZCLL_Enable
                0x9d07390c       0x28 build/pic32mx_eth_sk_int_dyn/production/_ext/1164207549/zero_conf_link_local.o
                0x9d07390c                TCPIP_ZCLL_Enable

.text.TCPIP_ZCLL_Disable
                0x9d073934       0x28
 .text.TCPIP_ZCLL_Disable
                0x9d073934       0x28 build/pic32mx_eth_sk_int_dyn/production/_ext/1164207549/zero_conf_link_local.o
                0x9d073934                TCPIP_ZCLL_Disable

.text.TCPIP_ZCLL_IsEnabled
                0x9d07395c       0x28
 .text.TCPIP_ZCLL_IsEnabled
                0x9d07395c       0x28 build/pic32mx_eth_sk_int_dyn/production/_ext/1164207549/zero_conf_link_local.o
                0x9d07395c                TCPIP_ZCLL_IsEnabled

.text.strchr    0x9d073984       0x28
 .text.strchr   0x9d073984       0x28 c:/program files/microchip/xc32/v1.30-tc9/bin/../lib/gcc/pic32mx/4.5.2/../../../../pic32mx/lib\libc.a(strchr.o)
                0x9d073984                strchr

.text._snprintf_cdnopsuxX
                0x9d0739ac       0x28
 .text._snprintf_cdnopsuxX
                0x9d0739ac       0x28 c:/program files/microchip/xc32/v1.30-tc9/bin/../lib/gcc/pic32mx/4.5.2/../../../../pic32mx/lib\libc.a(snprintf_cdnopsuxX.eo)
                0x9d0739ac                _snprintf_cdnopsuxX

.text.PLIB_INT_Enable_pic32
                0x9d0739d4       0x24
 .text.PLIB_INT_Enable_pic32
                0x9d0739d4       0x24 build/pic32mx_eth_sk_int_dyn/production/_ext/198928529/plib_int_pic32.o
                0x9d0739d4                PLIB_INT_Enable_pic32

.text.PLIB_INT_Disable_pic32
                0x9d0739f8       0x24
 .text.PLIB_INT_Disable_pic32
                0x9d0739f8       0x24 build/pic32mx_eth_sk_int_dyn/production/_ext/198928529/plib_int_pic32.o
                0x9d0739f8                PLIB_INT_Disable_pic32

.text.SYS_CLK_ReferenceClockSwitch
                0x9d073a1c       0x24
 .text.SYS_CLK_ReferenceClockSwitch
                0x9d073a1c       0x24 build/pic32mx_eth_sk_int_dyn/production/_ext/52938249/sys_clk_pic32.o
                0x9d073a1c                SYS_CLK_ReferenceClockSwitch

.text.HTTPPrint_ddns_user
                0x9d073a40       0x24
 .text.HTTPPrint_ddns_user
                0x9d073a40       0x24 build/pic32mx_eth_sk_int_dyn/production/_ext/1360937237/custom_http_app.o
                0x9d073a40                HTTPPrint_ddns_user

.text.HTTPPrint_ddns_pass
                0x9d073a64       0x24
 .text.HTTPPrint_ddns_pass
                0x9d073a64       0x24 build/pic32mx_eth_sk_int_dyn/production/_ext/1360937237/custom_http_app.o
                0x9d073a64                HTTPPrint_ddns_pass

.text.HTTPPrint_ddns_host
                0x9d073a88       0x24
 .text.HTTPPrint_ddns_host
                0x9d073a88       0x24 build/pic32mx_eth_sk_int_dyn/production/_ext/1360937237/custom_http_app.o
                0x9d073a88                HTTPPrint_ddns_host

.text.TCPIP_SMTP_ClientDeinitialize
                0x9d073aac       0x24
 .text.TCPIP_SMTP_ClientDeinitialize
                0x9d073aac       0x24 build/pic32mx_eth_sk_int_dyn/production/_ext/1164207549/smtp.o
                0x9d073aac                TCPIP_SMTP_ClientDeinitialize

.text.TCPIP_SNMP_TrapTimeGet
                0x9d073ad0       0x24
 .text.TCPIP_SNMP_TrapTimeGet
                0x9d073ad0       0x24 build/pic32mx_eth_sk_int_dyn/production/_ext/1164207549/snmp.o
                0x9d073ad0                TCPIP_SNMP_TrapTimeGet

.text.TCPIP_STACK_NetDefaultGet
                0x9d073af4       0x24
 .text.TCPIP_STACK_NetDefaultGet
                0x9d073af4       0x24 build/pic32mx_eth_sk_int_dyn/production/_ext/1164207549/tcpip_manager.o
                0x9d073af4                TCPIP_STACK_NetDefaultGet

.text.TCPIP_PKT_Deinitialize
                0x9d073b18       0x24
 .text.TCPIP_PKT_Deinitialize
                0x9d073b18       0x24 build/pic32mx_eth_sk_int_dyn/production/_ext/1164207549/tcpip_packet.o
                0x9d073b18                TCPIP_PKT_Deinitialize

.rodata         0x9d073b3c       0x54
 .rodata        0x9d073b3c       0x20 build/pic32mx_eth_sk_int_dyn/production/_ext/1164207549/arp.o
 .rodata        0x9d073b5c       0x1c build/pic32mx_eth_sk_int_dyn/production/_ext/1164207549/sntp.o
 .rodata        0x9d073b78       0x18 build/pic32mx_eth_sk_int_dyn/production/_ext/1360937237/custom_snmp_app.o

.text           0x9d073b90       0x18
 .text          0x9d073b90       0x18 c:/program files/microchip/xc32/v1.30-tc9/bin/../lib/gcc/pic32mx/4.5.2/../../../../pic32mx/lib\libpic32.a(default-nmi-handler.o)
                0x9d073b90                _nmi_handler

.text.abort     0x9d073ba8       0x18
 .text.abort    0x9d073ba8       0x18 c:/program files/microchip/xc32/v1.30-tc9/bin/../lib/gcc/pic32mx/4.5.2/../../../../pic32mx/lib\libc.a(signal.o)
                0x9d073ba8                abort

.rodata         0x9d073bc0       0x20
 .rodata        0x9d073bc0       0x10 build/pic32mx_eth_sk_int_dyn/production/_ext/1886247299/sys_fs_wrapper.o
 .rodata        0x9d073bd0       0x10 build/pic32mx_eth_sk_int_dyn/production/_ext/1164207549/dhcp.o

.text._bootstrap_exception_handler
                0x9d073be0        0x8
 .text._bootstrap_exception_handler
                0x9d073be0        0x8 c:/program files/microchip/xc32/v1.30-tc9/bin/../lib/gcc/pic32mx/4.5.2/../../../../pic32mx/lib\libpic32.a(default-bootstrap-exception-handler.o)
                0x9d073be0                _bootstrap_exception_handler

.text._on_reset
                0x9d073be8        0x8
 .text._on_reset
                0x9d073be8        0x8 c:/program files/microchip/xc32/v1.30-tc9/bin/../lib/gcc/pic32mx/4.5.2/../../../../pic32mx/lib\libpic32.a(default-on-reset.o)
                0x9d073be8                _on_reset

.text._on_bootstrap
                0x9d073bf0        0x8
 .text._on_bootstrap
                0x9d073bf0        0x8 c:/program files/microchip/xc32/v1.30-tc9/bin/../lib/gcc/pic32mx/4.5.2/../../../../pic32mx/lib\libpic32.a(default-on-bootstrap.o)
                0x9d073bf0                _on_bootstrap

.text._cleanup  0x9d073bf8        0x8
 .text._cleanup
                0x9d073bf8        0x8 c:/program files/microchip/xc32/v1.30-tc9/bin/../lib/gcc/pic32mx/4.5.2/../../../../pic32mx/lib\libc.a(stdclean_simple.o)
                0x9d073bf8                _cleanup

.rodata         0x9d073c00        0xc
 .rodata        0x9d073c00        0x8 c:/program files/microchip/xc32/v1.30-tc9/bin/../lib/gcc/pic32mx/4.5.2\libgcc.a(_floatundisf.o)
 .rodata        0x9d073c08        0x4 build/pic32mx_eth_sk_int_dyn/production/_ext/1164207549/tcpip_announce.o
